ARM GAS   			page 1


   1              	 .cpu cortex-a8
   2              	 .arch armv7-a
   3              	 .fpu softvfp
   4              	 .arch_extension sec
   5              	 .eabi_attribute 20,1
   6              	 .eabi_attribute 21,1
   7              	 .eabi_attribute 23,3
   8              	 .eabi_attribute 24,1
   9              	 .eabi_attribute 25,1
  10              	 .eabi_attribute 26,2
  11              	 .eabi_attribute 30,2
  12              	 .eabi_attribute 34,1
  13              	 .eabi_attribute 18,4
  14              	 .file "rki_init.c"
  15              	 .text
  16              	.Ltext0:
  17              	 .cfi_sections .debug_frame
  18              	 .file 1 "../../src/rki_init.c"
  19              	 .syntax divided
  20              	 .globl _ISR_Stack_size
  21              	 .set _ISR_Stack_size,(1024*4)
  22              	
  23              	 .globl _ISR_Stack_area_end
  24              	 .set _ISR_Stack_area_end,_ISR_Stack_area_begin+((1024*4)*1)
  25              	
  26              	 .section .rodata.str1.4,"aMS",%progbits,1
  27              	 .align 2
  28              	.LC0:
  29 0000 0A00     	 .ascii "\012\000"
  30 0002 0000     	 .align 2
  31              	.LC1:
  32 0004 5254454D 	 .ascii "RTEMS Kernel Image With LibBSD Booting\000"
  32      53204B65 
  32      726E656C 
  32      20496D61 
  32      67652057 
  33 002b 00       	 .align 2
  34              	.LC2:
  35 002c 0A0A2A2A 	 .ascii "\012\012*** RTEMS Info ***\000"
  35      2A205254 
  35      454D5320 
  35      496E666F 
  35      202A2A2A 
  36 0041 000000   	 .align 2
  37              	.LC3:
  38 0044 25730A0A 	 .ascii "%s\012\012\000"
  38      00
  39 0049 000000   	 .align 2
  40              	.LC4:
  41 004c 20425350 	 .ascii " BSP Ticks Per Second = %d\012\000"
  41      20546963 
  41      6B732050 
  41      65722053 
  41      65636F6E 
  42              	 .align 2
  43              	.LC5:
  44 0068 2A2A2A20 	 .ascii "*** End RTEMS info ***\012\000"
ARM GAS   			page 2


  44      456E6420 
  44      5254454D 
  44      5320696E 
  44      666F202A 
  45              	 .align 2
  46              	.LC6:
  47 0080 506F7075 	 .ascii "Populating Root file system from TAR file.\000"
  47      6C617469 
  47      6E672052 
  47      6F6F7420 
  47      66696C65 
  48 00ab 00       	 .align 2
  49              	.LC7:
  50 00ac 53657474 	 .ascii "Setting up filesystems.\000"
  50      696E6720 
  50      75702066 
  50      696C6573 
  50      79737465 
  51              	 .align 2
  52              	.LC8:
  53 00c4 496E6974 	 .ascii "Initializing Local Commands.\000"
  53      69616C69 
  53      7A696E67 
  53      204C6F63 
  53      616C2043 
  54 00e1 000000   	 .align 2
  55              	.LC9:
  56 00e4 456E6469 	 .ascii "Ending the RTEMS Init task.\000"
  56      6E672074 
  56      68652052 
  56      54454D53 
  56      20496E69 
  57              	 .align 2
  58              	.LC10:
  59 0100 7274656D 	 .ascii "rtems_task_delete returned with status of %d.\012\000"
  59      735F7461 
  59      736B5F64 
  59      656C6574 
  59      65207265 
  60              	 .arm
  61              	 .syntax unified
  62              	 .text
  63              	 .align 2
  64              	 .global Init
  65              	 .syntax unified
  66              	 .arm
  67              	 .type Init,%function
  68              	Init:
  69              	.LVL0:
  70              	.LFB430:
   1:../../src/rki_init.c **** /*
   2:../../src/rki_init.c ****  * RTEMS configuration/initialization
   3:../../src/rki_init.c ****  *
   4:../../src/rki_init.c ****  * Based on code by W. Eric Norum and others
   5:../../src/rki_init.c ****  *
   6:../../src/rki_init.c ****  * This program may be distributed and used for any purpose.
   7:../../src/rki_init.c ****  * I ask only that you:
ARM GAS   			page 3


   8:../../src/rki_init.c ****  *	1. Leave this author information intact.
   9:../../src/rki_init.c ****  *	2. Document any changes you make.
  10:../../src/rki_init.c ****  *
  11:../../src/rki_init.c ****  * W. Eric Norum
  12:../../src/rki_init.c ****  * Saskatchewan Accelerator Laboratory
  13:../../src/rki_init.c ****  * University of Saskatchewan
  14:../../src/rki_init.c ****  * Saskatoon, Saskatchewan, CANADA
  15:../../src/rki_init.c ****  * eric@skatter.usask.ca
  16:../../src/rki_init.c ****  *
  17:../../src/rki_init.c ****  */
  18:../../src/rki_init.c **** 
  19:../../src/rki_init.c **** #include <stdio.h>
  20:../../src/rki_init.c **** #include <stdlib.h>
  21:../../src/rki_init.c **** #include "rki_config.h"
  22:../../src/rki_init.c **** #include "rtems_config.h"
  23:../../src/rki_init.c **** #include <rtems.h>
  24:../../src/rki_init.c **** #include <rtems/version.h>
  25:../../src/rki_init.c **** 
  26:../../src/rki_init.c **** #ifdef RKI_INCLUDE_TARFS
  27:../../src/rki_init.c ****    /*
  28:../../src/rki_init.c ****    ** Tar file symbols
  29:../../src/rki_init.c ****    */
  30:../../src/rki_init.c ****    extern int _binary_tarfile_start;
  31:../../src/rki_init.c ****    extern int _binary_tarfile_size;
  32:../../src/rki_init.c ****    #define TARFILE_START _binary_tarfile_start
  33:../../src/rki_init.c ****    #define TARFILE_SIZE _binary_tarfile_size
  34:../../src/rki_init.c **** #endif
  35:../../src/rki_init.c **** 
  36:../../src/rki_init.c **** /*
  37:../../src/rki_init.c **** ** External functions
  38:../../src/rki_init.c **** */
  39:../../src/rki_init.c **** int  rki_init_libbsd( void );
  40:../../src/rki_init.c **** int  rki_add_local_cmds(void);
  41:../../src/rki_init.c **** int  rki_setup_filesystems (void);
  42:../../src/rki_init.c **** void rki_start_network_services(void);
  43:../../src/rki_init.c **** 
  44:../../src/rki_init.c **** /*
  45:../../src/rki_init.c **** ** RTEMS Startup Task
  46:../../src/rki_init.c **** */
  47:../../src/rki_init.c **** rtems_task Init (rtems_task_argument ignored)
  48:../../src/rki_init.c **** {
  71              	 .loc 1 48 1 view-0
  72              	 .cfi_startproc
  73              	 
  74              	 
  49:../../src/rki_init.c ****    int status;
  75              	 .loc 1 49 4 view .LVU1
  50:../../src/rki_init.c **** 
  51:../../src/rki_init.c ****    printf("\n\n");
  76              	 .loc 1 51 4 view .LVU2
  48:../../src/rki_init.c ****    int status;
  77              	 .loc 1 48 1 is_stmt 0 view .LVU3
  78 0000 10402DE9 	 push {r4,lr}
  79              	 .cfi_def_cfa_offset 8
  80              	 .cfi_offset 4,-8
  81              	 .cfi_offset 14,-4
  82              	 .loc 1 51 4 view .LVU4
ARM GAS   			page 4


  83 0004 000000E3 	 movw r0,#:lower16:.LC0
  84              	.LVL1:
  85              	 .loc 1 51 4 view .LVU5
  86 0008 000040E3 	 movt r0,#:upper16:.LC0
  87 000c FEFFFFEB 	 bl puts
  88              	.LVL2:
  52:../../src/rki_init.c **** #ifdef RKI_INCLUDE_LIBBSD
  53:../../src/rki_init.c ****    printf("RTEMS Kernel Image With LibBSD Booting\n");
  89              	 .loc 1 53 4 is_stmt 1 view .LVU6
  90 0010 000000E3 	 movw r0,#:lower16:.LC1
  91 0014 000040E3 	 movt r0,#:upper16:.LC1
  92 0018 FEFFFFEB 	 bl puts
  93              	.LVL3:
  54:../../src/rki_init.c **** #else
  55:../../src/rki_init.c ****    printf("RTEMS Kernel Image Booting\n");
  56:../../src/rki_init.c **** #endif
  57:../../src/rki_init.c **** 
  58:../../src/rki_init.c ****    printf( "\n\n*** RTEMS Info ***\n" );
  94              	 .loc 1 58 4 view .LVU7
  95 001c 000000E3 	 movw r0,#:lower16:.LC2
  96 0020 000040E3 	 movt r0,#:upper16:.LC2
  97 0024 FEFFFFEB 	 bl puts
  98              	.LVL4:
  59:../../src/rki_init.c ****    printf("%s\n\n", rtems_version() );
  99              	 .loc 1 59 4 view .LVU8
 100 0028 FEFFFFEB 	 bl rtems_version
 101              	.LVL5:
 102 002c 0010A0E1 	 mov r1,r0
 103              	 .loc 1 59 4 is_stmt 0 discriminator 1 view .LVU9
 104 0030 000000E3 	 movw r0,#:lower16:.LC3
 105 0034 000040E3 	 movt r0,#:upper16:.LC3
 106 0038 FEFFFFEB 	 bl printf
 107              	.LVL6:
  60:../../src/rki_init.c ****    printf("\n");
 108              	 .loc 1 60 4 is_stmt 1 view .LVU10
 109 003c 0A00A0E3 	 mov r0,#10
 110 0040 FEFFFFEB 	 bl putchar
 111              	.LVL7:
  61:../../src/rki_init.c ****    printf(" BSP Ticks Per Second = %d\n",(int)rtems_clock_get_ticks_per_second());
 112              	 .loc 1 61 4 view .LVU11
 113 0044 6410A0E3 	 mov r1,#100
 114 0048 000000E3 	 movw r0,#:lower16:.LC4
 115 004c 000040E3 	 movt r0,#:upper16:.LC4
 116 0050 FEFFFFEB 	 bl printf
 117              	.LVL8:
  62:../../src/rki_init.c ****    printf( "*** End RTEMS info ***\n\n" );
 118              	 .loc 1 62 4 view .LVU12
 119 0054 000000E3 	 movw r0,#:lower16:.LC5
 120 0058 000040E3 	 movt r0,#:upper16:.LC5
 121 005c FEFFFFEB 	 bl puts
 122              	.LVL9:
  63:../../src/rki_init.c **** 
  64:../../src/rki_init.c **** #ifdef RKI_INCLUDE_TARFS
  65:../../src/rki_init.c ****    /*
  66:../../src/rki_init.c ****    ** Initialize the file system
  67:../../src/rki_init.c ****    */
  68:../../src/rki_init.c ****    printf("Populating Root file system from TAR file.\n");
ARM GAS   			page 5


 123              	 .loc 1 68 4 view .LVU13
 124 0060 000000E3 	 movw r0,#:lower16:.LC6
 125 0064 000040E3 	 movt r0,#:upper16:.LC6
 126 0068 FEFFFFEB 	 bl puts
 127              	.LVL10:
  69:../../src/rki_init.c ****    status = Untar_FromMemory(
 128              	 .loc 1 69 4 view .LVU14
 129              	 .loc 1 69 13 is_stmt 0 view .LVU15
 130 006c 001000E3 	 movw r1,#:lower16:_binary_tarfile_size
 131 0070 000000E3 	 movw r0,#:lower16:_binary_tarfile_start
 132 0074 001040E3 	 movt r1,#:upper16:_binary_tarfile_size
 133 0078 000040E3 	 movt r0,#:upper16:_binary_tarfile_start
 134 007c FEFFFFEB 	 bl Untar_FromMemory
 135              	.LVL11:
  70:../../src/rki_init.c ****                 (unsigned char *)(&TARFILE_START),
  71:../../src/rki_init.c **** 		(unsigned long)&TARFILE_SIZE);
  72:../../src/rki_init.c **** #endif
  73:../../src/rki_init.c **** 
  74:../../src/rki_init.c ****    /*
  75:../../src/rki_init.c ****    ** Setup the filesystems and commands
  76:../../src/rki_init.c ****    */
  77:../../src/rki_init.c ****    printf("Setting up filesystems.\n");
 136              	 .loc 1 77 4 is_stmt 1 view .LVU16
 137 0080 000000E3 	 movw r0,#:lower16:.LC7
 138 0084 000040E3 	 movt r0,#:upper16:.LC7
 139 0088 FEFFFFEB 	 bl puts
 140              	.LVL12:
  78:../../src/rki_init.c ****    status = rki_setup_filesystems();
 141              	 .loc 1 78 4 view .LVU17
 142              	 .loc 1 78 13 is_stmt 0 view .LVU18
 143 008c FEFFFFEB 	 bl rki_setup_filesystems
 144              	.LVL13:
  79:../../src/rki_init.c **** 
  80:../../src/rki_init.c **** #ifdef RKI_INCLUDE_LIBBSD
  81:../../src/rki_init.c ****    status = rki_init_libbsd();
 145              	 .loc 1 81 4 is_stmt 1 view .LVU19
 146              	 .loc 1 81 13 is_stmt 0 view .LVU20
 147 0090 FEFFFFEB 	 bl rki_init_libbsd
 148              	.LVL14:
  82:../../src/rki_init.c **** #endif
  83:../../src/rki_init.c **** 
  84:../../src/rki_init.c **** #ifdef RKI_INCLUDE_NETWORK_SERVICES
  85:../../src/rki_init.c ****    /*
  86:../../src/rki_init.c ****    ** Start network services
  87:../../src/rki_init.c ****    */
  88:../../src/rki_init.c ****    rki_start_network_services();
 149              	 .loc 1 88 4 is_stmt 1 view .LVU21
 150 0094 FEFFFFEB 	 bl rki_start_network_services
 151              	.LVL15:
  89:../../src/rki_init.c **** #endif
  90:../../src/rki_init.c **** 
  91:../../src/rki_init.c **** #ifdef RKI_INCLUDE_SHELL
  92:../../src/rki_init.c ****    /*
  93:../../src/rki_init.c ****    ** Setup the RTEMS shell and add local commands
  94:../../src/rki_init.c ****    */
  95:../../src/rki_init.c ****    printf("Initializing Local Commands.\n");
 152              	 .loc 1 95 4 view .LVU22
ARM GAS   			page 6


 153 0098 000000E3 	 movw r0,#:lower16:.LC8
 154 009c 000040E3 	 movt r0,#:upper16:.LC8
 155 00a0 FEFFFFEB 	 bl puts
 156              	.LVL16:
  96:../../src/rki_init.c ****    status = rki_add_local_cmds();
 157              	 .loc 1 96 4 view .LVU23
 158              	 .loc 1 96 13 is_stmt 0 view .LVU24
 159 00a4 FEFFFFEB 	 bl rki_add_local_cmds
 160              	.LVL17:
  97:../../src/rki_init.c **** #endif
  98:../../src/rki_init.c **** 
  99:../../src/rki_init.c ****    /*
 100:../../src/rki_init.c ****    ** Delete the init task
 101:../../src/rki_init.c ****    ** -- Note, the shell init does not return so the following is not called  
 102:../../src/rki_init.c ****    */
 103:../../src/rki_init.c ****    printf("Ending the RTEMS Init task.\n");
 161              	 .loc 1 103 4 is_stmt 1 view .LVU25
 162 00a8 000000E3 	 movw r0,#:lower16:.LC9
 163 00ac 000040E3 	 movt r0,#:upper16:.LC9
 164 00b0 FEFFFFEB 	 bl puts
 165              	.LVL18:
 104:../../src/rki_init.c ****    status = rtems_task_delete( RTEMS_SELF );    /* should not return */
 166              	 .loc 1 104 4 view .LVU26
 167              	 .loc 1 104 13 is_stmt 0 view .LVU27
 168 00b4 0000A0E3 	 mov r0,#0
 169 00b8 FEFFFFEB 	 bl rtems_task_delete
 170              	.LVL19:
 171 00bc 0010A0E1 	 mov r1,r0
 172              	.LVL20:
 105:../../src/rki_init.c ****    printf( "rtems_task_delete returned with status of %d.\n", status );
 173              	 .loc 1 105 4 is_stmt 1 view .LVU28
 174 00c0 000000E3 	 movw r0,#:lower16:.LC10
 175              	.LVL21:
 176              	 .loc 1 105 4 is_stmt 0 view .LVU29
 177 00c4 000040E3 	 movt r0,#:upper16:.LC10
 178 00c8 FEFFFFEB 	 bl printf
 179              	.LVL22:
 106:../../src/rki_init.c ****    exit( 1 );
 180              	 .loc 1 106 4 is_stmt 1 view .LVU30
 181 00cc 0100A0E3 	 mov r0,#1
 182 00d0 FEFFFFEB 	 bl exit
 183              	.LVL23:
 184              	 .cfi_endproc
 185              	.LFE430:
 186              	 .size Init,.-Init
 187              	 .global _Stack_Allocator_allocate_for_idle
 188              	 .global _Stack_Space_size
 189              	 .global rtems_minimum_stack_size
 190              	 .global _Workspace_Size
 191              	 .global _POSIX_Keys_Key_value_pair_maximum
 192              	 .global _POSIX_Keys_Key_value_pairs
 193              	 .global _POSIX_Keys_Information
 194              	 .global _Timer_Information
 195              	 .global _Semaphore_Information
 196              	 .global _Partition_Information
 197              	 .global _Message_queue_Information
 198              	 .global rtems_libio_number_iops
ARM GAS   			page 7


 199              	 .global rtems_libio_iops
 200              	 .global _Linker_set__Sysinit_rtems_filesystem_initialize
 201              	 .global rtems_filesystem_root_configuration
 202              	 .section .rodata.str1.4
 203 012f 00       	 .align 2
 204              	.LC11:
 205 0130 2F00     	 .ascii "/\000"
 206              	 .global rtems_filesystem_table
 207 0132 0000     	 .align 2
 208              	.LC12:
 209 0134 696D6673 	 .ascii "imfs\000"
 209      00
 210 0139 000000   	 .align 2
 211              	.LC13:
 212 013c 72667300 	 .ascii "rfs\000"
 213              	 .global imfs_memfile_bytes_per_block
 214              	 .global _Linker_set__Sysinit_rtems_libio_post_driver
 215              	 .global _Linker_set__Sysinit__IO_Initialize_all_drivers
 216              	 .global _IO_Number_of_drivers
 217              	 .global _IO_Driver_address_table
 218              	 .global _Linker_set__Sysinit__RTEMS_tasks_Initialize_user_task
 219              	 .global _RTEMS_tasks_User_task_table
 220              	 .global _RTEMS_tasks_Information
 221              	 .global _Thread_Information
 222              	 .global _Thread_Initial_thread_count
 223              	 .global _Thread_Control_add_on_count
 224              	 .global _Thread_Control_add_ons
 225              	 .global _Thread_Maximum_TLS_size
 226              	 .global _Thread_Maximum_name_size
 227              	 .global _Scheduler_Table
 228              	 .global Stack_checker_Reporter
 229              	 .global _Extension_Information
 230              	 .global _Linker_set__Sysinit__User_extensions_Handler_initialization
 231              	 .global _User_extensions_Initial_switch_controls
 232              	 .global _User_extensions_Initial_count
 233              	 .global _User_extensions_Initial_extensions
 234              	 .global _Watchdog_Ticks_per_second
 235              	 .global _Watchdog_Nanoseconds_per_tick
 236              	 .global _Watchdog_Microseconds_per_tick
 237              	 .global _Linker_set__Sysinit__Clock_Initialize
 238              	 .global rtems_bdbuf_configuration
 239              	 .global _Thread_Idle_stack_size
 240              	 .global _ISR_Stack_area_begin
 241              	 .global rtems_shell_Initial_commands
 242              	 .global rtems_shell_Initial_aliases
 243              	 .section .rodata
 244              	 .align 3
 245              	 .type _Stack_Allocator_allocate_for_idle,%object
 246              	 .size _Stack_Allocator_allocate_for_idle,4
 247              	_Stack_Allocator_allocate_for_idle:
 248 0000 00000000 	 .word _Stack_Allocator_allocate_for_idle_workspace
 249              	 .type _Stack_Space_size,%object
 250              	 .size _Stack_Space_size,4
 251              	_Stack_Space_size:
 252 0004 00000000 	 .space 4
 253              	 .type _Workspace_Size,%object
 254              	 .size _Workspace_Size,4
ARM GAS   			page 8


 255              	_Workspace_Size:
 256 0008 00002000 	 .word 2097152
 257              	 .type _POSIX_Keys_Key_value_pair_maximum,%object
 258              	 .size _POSIX_Keys_Key_value_pair_maximum,4
 259              	_POSIX_Keys_Key_value_pair_maximum:
 260 000c 40000000 	 .word 64
 261              	 .type rtems_libio_number_iops,%object
 262              	 .size rtems_libio_number_iops,4
 263              	rtems_libio_number_iops:
 264 0010 C8000000 	 .word 200
 265              	 .type rtems_filesystem_root_configuration,%object
 266              	 .size rtems_filesystem_root_configuration,20
 267              	rtems_filesystem_root_configuration:
 268 0014 00000000 	 .word 0
 269 0018 00000000 	 .word 0
 270 001c 30010000 	 .word .LC11
 271 0020 01000000 	 .word 1
 272 0024 48000000 	 .word IMFS_root_mount_data
 273              	 .type rtems_filesystem_table,%object
 274              	 .size rtems_filesystem_table,32
 275              	rtems_filesystem_table:
 276 0028 30010000 	 .word .LC11
 277 002c 00000000 	 .word IMFS_initialize_support
 278 0030 34010000 	 .word .LC12
 279 0034 00000000 	 .word IMFS_initialize
 280 0038 3C010000 	 .word .LC13
 281 003c 00000000 	 .word rtems_rfs_rtems_initialise
 282 0040 00000000 	 .word 0
 283 0044 00000000 	 .word 0
 284              	 .type IMFS_root_mount_data,%object
 285              	 .size IMFS_root_mount_data,12
 286              	IMFS_root_mount_data:
 287 0048 20390000 	 .word IMFS_root_fs_info
 288 004c 64000000 	 .word IMFS_root_ops
 289 0050 54000000 	 .word IMFS_root_mknod_controls
 290              	 .type IMFS_root_mknod_controls,%object
 291              	 .size IMFS_root_mknod_controls,16
 292              	IMFS_root_mknod_controls:
 293 0054 00000000 	 .word IMFS_mknod_control_dir_default
 294 0058 00000000 	 .word IMFS_mknod_control_device
 295 005c 00000000 	 .word IMFS_mknod_control_memfile
 296 0060 00000000 	 .word IMFS_mknod_control_enosys
 297              	 .type IMFS_root_ops,%object
 298              	 .size IMFS_root_ops,76
 299              	IMFS_root_ops:
 300 0064 00000000 	 .word rtems_filesystem_default_lock
 301 0068 00000000 	 .word rtems_filesystem_default_unlock
 302 006c 00000000 	 .word IMFS_eval_path
 303 0070 00000000 	 .word IMFS_link
 304 0074 00000000 	 .word rtems_filesystem_default_are_nodes_equal
 305 0078 00000000 	 .word IMFS_mknod
 306 007c 00000000 	 .word IMFS_rmnod
 307 0080 00000000 	 .word IMFS_fchmod
 308 0084 00000000 	 .word IMFS_chown
 309 0088 00000000 	 .word IMFS_node_clone
 310 008c 00000000 	 .word IMFS_node_free
 311 0090 00000000 	 .word IMFS_mount
ARM GAS   			page 9


 312 0094 00000000 	 .word IMFS_unmount
 313 0098 00000000 	 .word rtems_filesystem_default_fsunmount
 314 009c 00000000 	 .word IMFS_utimens
 315 00a0 00000000 	 .word IMFS_symlink
 316 00a4 00000000 	 .word IMFS_readlink
 317 00a8 00000000 	 .word IMFS_rename
 318 00ac 00000000 	 .word rtems_filesystem_default_statvfs
 319              	 .type imfs_memfile_bytes_per_block,%object
 320              	 .size imfs_memfile_bytes_per_block,4
 321              	imfs_memfile_bytes_per_block:
 322 00b0 80000000 	 .word 128
 323              	 .type _IO_Number_of_drivers,%object
 324              	 .size _IO_Number_of_drivers,4
 325              	_IO_Number_of_drivers:
 326 00b4 20000000 	 .word 32
 327              	 .type _RTEMS_tasks_User_task_table,%object
 328              	 .size _RTEMS_tasks_User_task_table,28
 329              	_RTEMS_tasks_User_task_table:
 330 00b8 20314955 	 .word 1430860064
 331 00bc 00800000 	 .word 32768
 332 00c0 78000000 	 .word 120
 333 00c4 01000000 	 .word 1
 334 00c8 00000000 	 .word Init
 335 00cc 00010000 	 .word 256
 336 00d0 00000000 	 .word bsp_boot_cmdline
 337              	 .type _Thread_Initial_thread_count,%object
 338              	 .size _Thread_Initial_thread_count,4
 339              	_Thread_Initial_thread_count:
 340 00d4 83000000 	 .word 131
 341              	 .type _Thread_Control_add_on_count,%object
 342              	 .size _Thread_Control_add_on_count,4
 343              	_Thread_Control_add_on_count:
 344 00d8 04000000 	 .word 4
 345              	 .type _Thread_Control_add_ons,%object
 346              	 .size _Thread_Control_add_ons,32
 347              	_Thread_Control_add_ons:
 348 00dc 38000000 	 .word 56
 349 00e0 D8010000 	 .word 472
 350 00e4 14010000 	 .word 276
 351 00e8 28020000 	 .word 552
 352 00ec 18000000 	 .word 24
 353 00f0 D0020000 	 .word 720
 354 00f4 18010000 	 .word 280
 355 00f8 50020000 	 .word 592
 356              	 .type _Thread_Maximum_TLS_size,%object
 357              	 .size _Thread_Maximum_TLS_size,4
 358              	_Thread_Maximum_TLS_size:
 359 00fc 00000000 	 .space 4
 360              	 .type _Thread_Maximum_name_size,%object
 361              	 .size _Thread_Maximum_name_size,4
 362              	_Thread_Maximum_name_size:
 363 0100 10000000 	 .word 16
 364 0104 00000000 	 .space 4
 365              	 .type _Scheduler_Table,%object
 366              	 .size _Scheduler_Table,72
 367              	_Scheduler_Table:
 368 0108 843B0000 	 .word _Configuration_Scheduler_priority_dflt
ARM GAS   			page 10


 369 010c 00000000 	 .word _Scheduler_priority_Initialize
 370 0110 00000000 	 .word _Scheduler_priority_Schedule
 371 0114 00000000 	 .word _Scheduler_priority_Yield
 372 0118 00000000 	 .word _Scheduler_priority_Block
 373 011c 00000000 	 .word _Scheduler_priority_Unblock
 374 0120 00000000 	 .word _Scheduler_priority_Update_priority
 375 0124 00000000 	 .word _Scheduler_default_Map_priority
 376 0128 00000000 	 .word _Scheduler_default_Unmap_priority
 377 012c 00000000 	 .word _Scheduler_priority_Node_initialize
 378 0130 00000000 	 .word _Scheduler_default_Node_destroy
 379 0134 00000000 	 .word _Scheduler_default_Release_job
 380 0138 00000000 	 .word _Scheduler_default_Cancel_job
 381 013c 00000000 	 .word _Scheduler_default_Start_idle
 382 0140 FF000000 	 .word 255
 383 0144 00000000 	 .word 0
 384 0148 20445055 	 .word 1431323680
 385 014c 00000000 	 .space 4
 386              	 .type Stack_checker_Reporter,%object
 387              	 .size Stack_checker_Reporter,4
 388              	Stack_checker_Reporter:
 389 0150 00000000 	 .word rtems_stack_checker_reporter_quiet
 390              	 .type _User_extensions_Initial_count,%object
 391              	 .size _User_extensions_Initial_count,4
 392              	_User_extensions_Initial_count:
 393 0154 03000000 	 .word 3
 394              	 .type _User_extensions_Initial_extensions,%object
 395              	 .size _User_extensions_Initial_extensions,108
 396              	_User_extensions_Initial_extensions:
 397 0158 00000000 	 .word 0
 398 015c 00000000 	 .word 0
 399 0160 00000000 	 .word 0
 400 0164 00000000 	 .word 0
 401 0168 00000000 	 .word 0
 402 016c 00000000 	 .word 0
 403 0170 00000000 	 .word 0
 404 0174 00000000 	 .word 0
 405 0178 00000000 	 .word newlib_terminate_hook
 406 017c 00000000 	 .word rtems_stack_checker_create_extension
 407 0180 00000000 	 .word 0
 408 0184 00000000 	 .word 0
 409 0188 00000000 	 .word 0
 410 018c 00000000 	 .word rtems_stack_checker_switch_extension
 411 0190 00000000 	 .word rtems_stack_checker_begin_extension
 412 0194 00000000 	 .word 0
 413 0198 00000000 	 .word 0
 414 019c 00000000 	 .word 0
 415 01a0 00000000 	 .word 0
 416 01a4 00000000 	 .word 0
 417 01a8 00000000 	 .word 0
 418 01ac 00000000 	 .word 0
 419 01b0 00000000 	 .word 0
 420 01b4 00000000 	 .word 0
 421 01b8 00000000 	 .word 0
 422 01bc 00000000 	 .word bsp_fatal_extension
 423 01c0 00000000 	 .word 0
 424              	 .type _Watchdog_Ticks_per_second,%object
 425              	 .size _Watchdog_Ticks_per_second,4
ARM GAS   			page 11


 426              	_Watchdog_Ticks_per_second:
 427 01c4 64000000 	 .word 100
 428              	 .type _Watchdog_Nanoseconds_per_tick,%object
 429              	 .size _Watchdog_Nanoseconds_per_tick,4
 430              	_Watchdog_Nanoseconds_per_tick:
 431 01c8 80969800 	 .word 10000000
 432              	 .type _Watchdog_Microseconds_per_tick,%object
 433              	 .size _Watchdog_Microseconds_per_tick,4
 434              	_Watchdog_Microseconds_per_tick:
 435 01cc 10270000 	 .word 10000
 436              	 .type rtems_bdbuf_configuration,%object
 437              	 .size rtems_bdbuf_configuration,48
 438              	rtems_bdbuf_configuration:
 439 01d0 04000000 	 .word 4
 440 01d4 10000000 	 .word 16
 441 01d8 0A000000 	 .word 10
 442 01dc FA000000 	 .word 250
 443 01e0 E8030000 	 .word 1000
 444 01e4 00000000 	 .word 0
 445 01e8 0F000000 	 .word 15
 446 01ec 00100000 	 .word 4096
 447 01f0 00001000 	 .word 1048576
 448 01f4 00020000 	 .word 512
 449 01f8 00000100 	 .word 65536
 450 01fc 0F000000 	 .word 15
 451              	 .type _Thread_Idle_stack_size,%object
 452              	 .size _Thread_Idle_stack_size,4
 453              	_Thread_Idle_stack_size:
 454 0200 00100000 	 .word 4096
 455              	 .type rtems_shell_Initial_commands,%object
 456              	 .size rtems_shell_Initial_commands,320
 457              	rtems_shell_Initial_commands:
 458 0204 00000000 	 .word rtems_shell_HELP_Command
 459 0208 00000000 	 .word rtems_shell_ALIAS_Command
 460 020c 00000000 	 .word rtems_shell_TIME_Command
 461 0210 00000000 	 .word rtems_shell_CMDLS_Command
 462 0214 00000000 	 .word rtems_shell_CMDCHOWN_Command
 463 0218 00000000 	 .word rtems_shell_CMDCHMOD_Command
 464 021c 00000000 	 .word rtems_shell_JOEL_Command
 465 0220 00000000 	 .word rtems_shell_DATE_Command
 466 0224 00000000 	 .word rtems_shell_ECHO_Command
 467 0228 00000000 	 .word rtems_shell_EDIT_Command
 468 022c 00000000 	 .word rtems_shell_SLEEP_Command
 469 0230 00000000 	 .word rtems_shell_ID_Command
 470 0234 00000000 	 .word rtems_shell_TTY_Command
 471 0238 00000000 	 .word rtems_shell_WHOAMI_Command
 472 023c 00000000 	 .word rtems_shell_LOGOFF_Command
 473 0240 00000000 	 .word rtems_shell_SETENV_Command
 474 0244 00000000 	 .word rtems_shell_GETENV_Command
 475 0248 00000000 	 .word rtems_shell_UNSETENV_Command
 476 024c 00000000 	 .word rtems_shell_MDUMP_Command
 477 0250 00000000 	 .word rtems_shell_WDUMP_Command
 478 0254 00000000 	 .word rtems_shell_LDUMP_Command
 479 0258 00000000 	 .word rtems_shell_MEDIT_Command
 480 025c 00000000 	 .word rtems_shell_MFILL_Command
 481 0260 00000000 	 .word rtems_shell_MMOVE_Command
 482 0264 00000000 	 .word rtems_shell_CP_Command
ARM GAS   			page 12


 483 0268 00000000 	 .word rtems_shell_PWD_Command
 484 026c 00000000 	 .word rtems_shell_LS_Command
 485 0270 00000000 	 .word rtems_shell_CHDIR_Command
 486 0274 00000000 	 .word rtems_shell_MKDIR_Command
 487 0278 00000000 	 .word rtems_shell_RMDIR_Command
 488 027c 00000000 	 .word rtems_shell_CHROOT_Command
 489 0280 00000000 	 .word rtems_shell_CHMOD_Command
 490 0284 00000000 	 .word rtems_shell_CAT_Command
 491 0288 00000000 	 .word rtems_shell_MKRFS_Command
 492 028c 00000000 	 .word rtems_shell_MSDOSFMT_Command
 493 0290 00000000 	 .word rtems_shell_MSDOSFMT_Alias
 494 0294 00000000 	 .word rtems_shell_MV_Command
 495 0298 00000000 	 .word rtems_shell_RM_Command
 496 029c 00000000 	 .word rtems_shell_LN_Command
 497 02a0 00000000 	 .word rtems_shell_MKNOD_Command
 498 02a4 00000000 	 .word rtems_shell_UMASK_Command
 499 02a8 00000000 	 .word rtems_shell_LSOF_Command
 500 02ac 00000000 	 .word rtems_shell_MOUNT_Command
 501 02b0 00000000 	 .word rtems_shell_UNMOUNT_Command
 502 02b4 00000000 	 .word rtems_shell_BLKSYNC_Command
 503 02b8 00000000 	 .word rtems_shell_BLKSTATS_Command
 504 02bc 00000000 	 .word rtems_shell_FDISK_Command
 505 02c0 00000000 	 .word rtems_shell_DD_Command
 506 02c4 00000000 	 .word rtems_shell_HEXDUMP_Command
 507 02c8 00000000 	 .word rtems_shell_DEBUGRFS_Command
 508 02cc 00000000 	 .word rtems_shell_DF_Command
 509 02d0 00000000 	 .word rtems_shell_MD5_Command
 510 02d4 00000000 	 .word rtems_shell_SHUTDOWN_Command
 511 02d8 00000000 	 .word rtems_shell_CPUINFO_Command
 512 02dc 00000000 	 .word rtems_shell_CPUUSE_Command
 513 02e0 00000000 	 .word rtems_shell_TOP_Command
 514 02e4 00000000 	 .word rtems_shell_STACKUSE_Command
 515 02e8 00000000 	 .word rtems_shell_PERIODUSE_Command
 516 02ec 00000000 	 .word rtems_shell_PROFREPORT_Command
 517 02f0 00000000 	 .word rtems_shell_WKSPACE_INFO_Command
 518 02f4 00000000 	 .word rtems_shell_RTEMS_Command
 519 02f8 00000000 	 .word rtems_shell_MALLOC_INFO_Command
 520 02fc 00000000 	 .word rtems_shell_RTRACE_Command
 521 0300 00000000 	 .word rtems_shell_RTC_Command
 522 0304 00000000 	 .word rtems_shell_SPI_Command
 523 0308 00000000 	 .word rtems_shell_FLASHDEV_Command
 524 030c 00000000 	 .word rtems_shell_I2CDETECT_Command
 525 0310 00000000 	 .word rtems_shell_I2CGET_Command
 526 0314 00000000 	 .word rtems_shell_I2CSET_Command
 527 0318 00000000 	 .word bsp_interrupt_shell_command
 528 031c 00000000 	 .word rtems_shell_ARP_Command
 529 0320 00000000 	 .word rtems_shell_HOSTNAME_Command
 530 0324 00000000 	 .word rtems_shell_PING_Command
 531 0328 00000000 	 .word rtems_shell_ROUTE_Command
 532 032c 00000000 	 .word rtems_shell_NETSTAT_Command
 533 0330 00000000 	 .word rtems_shell_IFCONFIG_Command
 534 0334 00000000 	 .word rtems_shell_TCPDUMP_Command
 535 0338 00000000 	 .word rtems_shell_SYSCTL_Command
 536 033c 00000000 	 .word rtems_shell_VMSTAT_Command
 537 0340 00000000 	 .word 0
 538              	 .type rtems_shell_Initial_aliases,%object
 539              	 .size rtems_shell_Initial_aliases,16
ARM GAS   			page 13


 540              	rtems_shell_Initial_aliases:
 541 0344 00000000 	 .word rtems_shell_DIR_Alias
 542 0348 00000000 	 .word rtems_shell_CD_Alias
 543 034c 00000000 	 .word rtems_shell_EXIT_Alias
 544 0350 00000000 	 .word 0
 545              	 .data
 546              	 .align 2
 547              	 .type rtems_minimum_stack_size,%object
 548              	 .size rtems_minimum_stack_size,4
 549              	rtems_minimum_stack_size:
 550 0000 00100000 	 .word 4096
 551              	 .type _POSIX_Keys_Information,%object
 552              	 .size _POSIX_Keys_Information,48
 553              	_POSIX_Keys_Information:
 554 0004 20000113 	 .word 318832672
 555 0008 00090000 	 .word _POSIX_Keys_Local_table
 556 000c 00000000 	 .word _Objects_Allocate_static
 557 0010 00000000 	 .word _Objects_Free_static
 558 0014 0000     	 .short 0
 559 0016 0000     	 .short 0
 560 0018 2000     	 .short 32
 561 001a 0000     	 .short 0
 562 001c 1C000000 	 .word _POSIX_Keys_Information+28
 563 0020 00000000 	 .word 0
 564 0024 18000000 	 .word _POSIX_Keys_Information+24
 565 0028 00000000 	 .word 0
 566 002c 00000000 	 .word 0
 567 0030 00000000 	 .word _POSIX_Keys_Objects
 568              	 .type _Timer_Information,%object
 569              	 .size _Timer_Information,48
 570              	_Timer_Information:
 571 0034 05000112 	 .word 302055429
 572 0038 80090000 	 .word _Timer_Local_table
 573 003c 00000000 	 .word _Objects_Allocate_static
 574 0040 00000000 	 .word _Objects_Free_static
 575 0044 0000     	 .short 0
 576 0046 0000     	 .short 0
 577 0048 4800     	 .short 72
 578 004a 0000     	 .short 0
 579 004c 1C000000 	 .word _Timer_Information+28
 580 0050 00000000 	 .word 0
 581 0054 18000000 	 .word _Timer_Information+24
 582 0058 00000000 	 .word 0
 583 005c 00000000 	 .word 0
 584 0060 00000000 	 .word _Timer_Objects
 585              	 .type _Semaphore_Information,%object
 586              	 .size _Semaphore_Information,48
 587              	_Semaphore_Information:
 588 0064 0002011A 	 .word 436273664
 589 0068 94090000 	 .word _Semaphore_Local_table
 590 006c 00000000 	 .word _Objects_Allocate_static
 591 0070 00000000 	 .word _Objects_Free_static
 592 0074 0000     	 .short 0
 593 0076 0000     	 .short 0
 594 0078 3800     	 .short 56
 595 007a 0000     	 .short 0
 596 007c 1C000000 	 .word _Semaphore_Information+28
ARM GAS   			page 14


 597 0080 00000000 	 .word 0
 598 0084 18000000 	 .word _Semaphore_Information+24
 599 0088 00000000 	 .word 0
 600 008c 00000000 	 .word 0
 601 0090 00000000 	 .word _Semaphore_Objects
 602              	 .type _Partition_Information,%object
 603              	 .size _Partition_Information,48
 604              	_Partition_Information:
 605 0094 0200012A 	 .word 704708610
 606 0098 94110000 	 .word _Partition_Local_table
 607 009c 00000000 	 .word _Objects_Allocate_static
 608 00a0 00000000 	 .word _Objects_Free_static
 609 00a4 0000     	 .short 0
 610 00a6 0000     	 .short 0
 611 00a8 3000     	 .short 48
 612 00aa 0000     	 .short 0
 613 00ac 1C000000 	 .word _Partition_Information+28
 614 00b0 00000000 	 .word 0
 615 00b4 18000000 	 .word _Partition_Information+24
 616 00b8 00000000 	 .word 0
 617 00bc 00000000 	 .word 0
 618 00c0 00000000 	 .word _Partition_Objects
 619              	 .type _Message_queue_Information,%object
 620              	 .size _Message_queue_Information,48
 621              	_Message_queue_Information:
 622 00c4 80000122 	 .word 570491008
 623 00c8 9C110000 	 .word _Message_queue_Local_table
 624 00cc 00000000 	 .word _Objects_Allocate_static
 625 00d0 00000000 	 .word _Objects_Free_static
 626 00d4 0000     	 .short 0
 627 00d6 0000     	 .short 0
 628 00d8 5000     	 .short 80
 629 00da 0000     	 .short 0
 630 00dc 1C000000 	 .word _Message_queue_Information+28
 631 00e0 00000000 	 .word 0
 632 00e4 18000000 	 .word _Message_queue_Information+24
 633 00e8 00000000 	 .word 0
 634 00ec 00000000 	 .word 0
 635 00f0 00000000 	 .word _Message_queue_Objects
 636              	 .type _IO_Driver_address_table,%object
 637              	 .size _IO_Driver_address_table,768
 638              	_IO_Driver_address_table:
 639 00f4 00000000 	 .word console_initialize
 640 00f8 00000000 	 .word console_open
 641 00fc 00000000 	 .word console_close
 642 0100 00000000 	 .word console_read
 643 0104 00000000 	 .word console_write
 644 0108 00000000 	 .word console_control
 645 010c 00000000 	 .word null_initialize
 646 0110 00000000 	 .word null_open
 647 0114 00000000 	 .word null_close
 648 0118 00000000 	 .word null_read
 649 011c 00000000 	 .word null_write
 650 0120 00000000 	 .word null_control
 651 0124 00000000 	 .word dev_zero_initialize
 652 0128 00000000 	 .word dev_zero_open
 653 012c 00000000 	 .word dev_zero_close
ARM GAS   			page 15


 654 0130 00000000 	 .word dev_zero_read
 655 0134 00000000 	 .word dev_zero_write
 656 0138 00000000 	 .word dev_zero_control
 657 013c 00000000 	 .space 696
 657      00000000 
 657      00000000 
 657      00000000 
 657      00000000 
 658              	 .type _RTEMS_tasks_Information,%object
 659              	 .size _RTEMS_tasks_Information,60
 660              	_RTEMS_tasks_Information:
 661 03f4 8200010A 	 .word 167837826
 662 03f8 78390000 	 .word _RTEMS_tasks_Local_table
 663 03fc 00000000 	 .word _Objects_Allocate_static
 664 0400 00000000 	 .word _Objects_Free_static
 665 0404 0000     	 .short 0
 666 0406 0000     	 .short 0
 667 0408 E002     	 .short 736
 668 040a 0000     	 .short 0
 669 040c 1C000000 	 .word _RTEMS_tasks_Information+28
 670 0410 00000000 	 .word 0
 671 0414 18000000 	 .word _RTEMS_tasks_Information+24
 672 0418 00000000 	 .word 0
 673 041c 00000000 	 .word 0
 674 0420 90240000 	 .word _RTEMS_tasks_Objects
 675 0424 00000000 	 .word _RTEMS_tasks_Heads
 676 0428 00000000 	 .space 8
 676      00000000 
 677              	 .type _Thread_Information,%object
 678              	 .size _Thread_Information,60
 679              	_Thread_Information:
 680 0430 01000109 	 .word 151060481
 681 0434 803B0000 	 .word _Thread_Local_table
 682 0438 00000000 	 .word _Objects_Allocate_static
 683 043c 00000000 	 .word _Objects_Free_static
 684 0440 0000     	 .short 0
 685 0442 0000     	 .short 0
 686 0444 E002     	 .short 736
 687 0446 0000     	 .short 0
 688 0448 1C000000 	 .word _Thread_Information+28
 689 044c 00000000 	 .word 0
 690 0450 18000000 	 .word _Thread_Information+24
 691 0454 00000000 	 .word 0
 692 0458 00000000 	 .word 0
 693 045c 48000000 	 .word _Thread_Objects
 694 0460 00000000 	 .word _Thread_Heads
 695 0464 00000000 	 .space 8
 695      00000000 
 696              	 .type _Extension_Information,%object
 697              	 .size _Extension_Information,48
 698              	_Extension_Information:
 699 046c 2000014A 	 .word 1241579552
 700 0470 A8470000 	 .word _Extension_Local_table
 701 0474 00000000 	 .word _Objects_Allocate_static
 702 0478 00000000 	 .word _Objects_Free_static
 703 047c 0000     	 .short 0
 704 047e 0000     	 .short 0
ARM GAS   			page 16


 705 0480 4800     	 .short 72
 706 0482 0000     	 .short 0
 707 0484 1C000000 	 .word _Extension_Information+28
 708 0488 00000000 	 .word 0
 709 048c 18000000 	 .word _Extension_Information+24
 710 0490 00000000 	 .word 0
 711 0494 00000000 	 .word 0
 712 0498 00000000 	 .word _Extension_Objects
 713              	 .bss
 714              	 .align 3
 715              	 .type _POSIX_Keys_Key_value_pairs,%object
 716              	 .size _POSIX_Keys_Key_value_pairs,2304
 717              	_POSIX_Keys_Key_value_pairs:
 718 0000 00000000 	 .space 2304
 718      00000000 
 718      00000000 
 718      00000000 
 718      00000000 
 719              	 .type _POSIX_Keys_Local_table,%object
 720              	 .size _POSIX_Keys_Local_table,128
 721              	_POSIX_Keys_Local_table:
 722 0900 00000000 	 .space 128
 722      00000000 
 722      00000000 
 722      00000000 
 722      00000000 
 723              	 .type _Timer_Local_table,%object
 724              	 .size _Timer_Local_table,20
 725              	_Timer_Local_table:
 726 0980 00000000 	 .space 20
 726      00000000 
 726      00000000 
 726      00000000 
 726      00000000 
 727              	 .type _Semaphore_Local_table,%object
 728              	 .size _Semaphore_Local_table,2048
 729              	_Semaphore_Local_table:
 730 0994 00000000 	 .space 2048
 730      00000000 
 730      00000000 
 730      00000000 
 730      00000000 
 731              	 .type _Partition_Local_table,%object
 732              	 .size _Partition_Local_table,8
 733              	_Partition_Local_table:
 734 1194 00000000 	 .space 8
 734      00000000 
 735              	 .type _Message_queue_Local_table,%object
 736              	 .size _Message_queue_Local_table,512
 737              	_Message_queue_Local_table:
 738 119c 00000000 	 .space 512
 738      00000000 
 738      00000000 
 738      00000000 
 738      00000000 
 739 139c 00000000 	 .space 4
 740              	 .type rtems_libio_iops,%object
ARM GAS   			page 17


 741              	 .size rtems_libio_iops,9600
 742              	rtems_libio_iops:
 743 13a0 00000000 	 .space 9600
 743      00000000 
 743      00000000 
 743      00000000 
 743      00000000 
 744              	 .type IMFS_root_fs_info,%object
 745              	 .size IMFS_root_fs_info,88
 746              	IMFS_root_fs_info:
 747 3920 00000000 	 .space 88
 747      00000000 
 747      00000000 
 747      00000000 
 747      00000000 
 748              	 .type _RTEMS_tasks_Local_table,%object
 749              	 .size _RTEMS_tasks_Local_table,520
 750              	_RTEMS_tasks_Local_table:
 751 3978 00000000 	 .space 520
 751      00000000 
 751      00000000 
 751      00000000 
 751      00000000 
 752              	 .type _Thread_Local_table,%object
 753              	 .size _Thread_Local_table,4
 754              	_Thread_Local_table:
 755 3b80 00000000 	 .space 4
 756              	 .type _Configuration_Scheduler_priority_dflt,%object
 757              	 .size _Configuration_Scheduler_priority_dflt,3108
 758              	_Configuration_Scheduler_priority_dflt:
 759 3b84 00000000 	 .space 3108
 759      00000000 
 759      00000000 
 759      00000000 
 759      00000000 
 760              	 .type _Extension_Local_table,%object
 761              	 .size _Extension_Local_table,128
 762              	_Extension_Local_table:
 763 47a8 00000000 	 .space 128
 763      00000000 
 763      00000000 
 763      00000000 
 763      00000000 
 764              	 .type _User_extensions_Initial_switch_controls,%object
 765              	 .size _User_extensions_Initial_switch_controls,36
 766              	_User_extensions_Initial_switch_controls:
 767 4828 00000000 	 .space 36
 767      00000000 
 767      00000000 
 767      00000000 
 767      00000000 
 768              	 .section .noinit.rtems.content.objects._Extension,"aw"
 769              	 .align 2
 770              	 .type _Extension_Objects,%object
 771              	 .size _Extension_Objects,2304
 772              	_Extension_Objects:
 773 0000 00000000 	 .space 2304
ARM GAS   			page 18


 773      00000000 
 773      00000000 
 773      00000000 
 773      00000000 
 774              	 .section .noinit.rtems.content.objects._Message_queue,"aw"
 775              	 .align 2
 776              	 .type _Message_queue_Objects,%object
 777              	 .size _Message_queue_Objects,10240
 778              	_Message_queue_Objects:
 779 0000 00000000 	 .space 10240
 779      00000000 
 779      00000000 
 779      00000000 
 779      00000000 
 780              	 .section .noinit.rtems.content.objects._POSIX_Keys,"aw"
 781              	 .align 2
 782              	 .type _POSIX_Keys_Objects,%object
 783              	 .size _POSIX_Keys_Objects,1024
 784              	_POSIX_Keys_Objects:
 785 0000 00000000 	 .space 1024
 785      00000000 
 785      00000000 
 785      00000000 
 785      00000000 
 786              	 .section .noinit.rtems.content.objects._Partition,"aw"
 787              	 .align 2
 788              	 .type _Partition_Objects,%object
 789              	 .size _Partition_Objects,96
 790              	_Partition_Objects:
 791 0000 00000000 	 .space 96
 791      00000000 
 791      00000000 
 791      00000000 
 791      00000000 
 792              	 .section .noinit.rtems.content.objects._RTEMS_tasks,"aw"
 793              	 .align 3
 794              	 .type _RTEMS_tasks_Heads,%object
 795              	 .size _RTEMS_tasks_Heads,9360
 796              	_RTEMS_tasks_Heads:
 797 0000 00000000 	 .space 9360
 797      00000000 
 797      00000000 
 797      00000000 
 797      00000000 
 798              	 .type _RTEMS_tasks_Objects,%object
 799              	 .size _RTEMS_tasks_Objects,95680
 800              	_RTEMS_tasks_Objects:
 801 2490 00000000 	 .space 95680
 801      00000000 
 801      00000000 
 801      00000000 
 801      00000000 
 802              	 .section .noinit.rtems.content.objects._Semaphore,"aw"
 803              	 .align 3
 804              	 .type _Semaphore_Objects,%object
 805              	 .size _Semaphore_Objects,28672
 806              	_Semaphore_Objects:
ARM GAS   			page 19


 807 0000 00000000 	 .space 28672
 807      00000000 
 807      00000000 
 807      00000000 
 807      00000000 
 808              	 .section .noinit.rtems.content.objects._Thread,"aw"
 809              	 .align 3
 810              	 .type _Thread_Heads,%object
 811              	 .size _Thread_Heads,72
 812              	_Thread_Heads:
 813 0000 00000000 	 .space 72
 813      00000000 
 813      00000000 
 813      00000000 
 813      00000000 
 814              	 .type _Thread_Objects,%object
 815              	 .size _Thread_Objects,736
 816              	_Thread_Objects:
 817 0048 00000000 	 .space 736
 817      00000000 
 817      00000000 
 817      00000000 
 817      00000000 
 818              	 .section .noinit.rtems.content.objects._Timer,"aw"
 819              	 .align 3
 820              	 .type _Timer_Objects,%object
 821              	 .size _Timer_Objects,360
 822              	_Timer_Objects:
 823 0000 00000000 	 .space 360
 823      00000000 
 823      00000000 
 823      00000000 
 823      00000000 
 824              	 .section .rtemsroset._Sysinit.content.0.0x00050080,"a"
 825              	 .align 2
 826              	 .type _Linker_set__Sysinit__User_extensions_Handler_initialization,%object
 827              	 .size _Linker_set__Sysinit__User_extensions_Handler_initialization,4
 828              	_Linker_set__Sysinit__User_extensions_Handler_initialization:
 829 0000 00000000 	 .word _User_extensions_Handler_initialization
 830              	 .section .rtemsroset._Sysinit.content.0.0x001f0080,"a"
 831              	 .align 2
 832              	 .type _Linker_set__Sysinit_rtems_filesystem_initialize,%object
 833              	 .size _Linker_set__Sysinit_rtems_filesystem_initialize,4
 834              	_Linker_set__Sysinit_rtems_filesystem_initialize:
 835 0000 00000000 	 .word rtems_filesystem_initialize
 836              	 .section .rtemsroset._Sysinit.content.0.0x00240002,"a"
 837              	 .align 2
 838              	 .type _Linker_set__Sysinit__Clock_Initialize,%object
 839              	 .size _Linker_set__Sysinit__Clock_Initialize,4
 840              	_Linker_set__Sysinit__Clock_Initialize:
 841 0000 00000000 	 .word _Clock_Initialize
 842              	 .section .rtemsroset._Sysinit.content.0.0x00240080,"a"
 843              	 .align 2
 844              	 .type _Linker_set__Sysinit__IO_Initialize_all_drivers,%object
 845              	 .size _Linker_set__Sysinit__IO_Initialize_all_drivers,4
 846              	_Linker_set__Sysinit__IO_Initialize_all_drivers:
 847 0000 00000000 	 .word _IO_Initialize_all_drivers
ARM GAS   			page 20


 848              	 .section .rtemsroset._Sysinit.content.0.0x00290080,"a"
 849              	 .align 2
 850              	 .type _Linker_set__Sysinit__RTEMS_tasks_Initialize_user_task,%object
 851              	 .size _Linker_set__Sysinit__RTEMS_tasks_Initialize_user_task,4
 852              	_Linker_set__Sysinit__RTEMS_tasks_Initialize_user_task:
 853 0000 00000000 	 .word _RTEMS_tasks_Initialize_user_task
 854              	 .section .rtemsroset._Sysinit.content.0.0x002b0080,"a"
 855              	 .align 2
 856              	 .type _Linker_set__Sysinit_rtems_libio_post_driver,%object
 857              	 .size _Linker_set__Sysinit_rtems_libio_post_driver,4
 858              	_Linker_set__Sysinit_rtems_libio_post_driver:
 859 0000 00000000 	 .word rtems_libio_post_driver
 860              	 .section .rtemsstack.interrupt,"aw"
 861              	 .align 6
 862              	 .type _ISR_Stack_area_begin,%object
 863              	 .size _ISR_Stack_area_begin,4096
 864              	_ISR_Stack_area_begin:
 865 0000 00000000 	 .space 4096
 865      00000000 
 865      00000000 
 865      00000000 
 865      00000000 
 866              	 .text
 867              	.Letext0:
 868              	 .file 2 "/opt/rtems/tools/6/arm-rtems6/include/machine/_default_types.h"
 869              	 .file 3 "/opt/rtems/tools/6/lib/gcc/arm-rtems6/13.3.0/include/stddef.h"
 870              	 .file 4 "/opt/rtems/tools/6/arm-rtems6/include/machine/_types.h"
 871              	 .file 5 "/opt/rtems/tools/6/arm-rtems6/include/sys/_types.h"
 872              	 .file 6 "/opt/rtems/bsp/6/arm-rtems6/beagleboneblack/lib/include/rtems/score/threadq.h"
 873              	 .file 7 "/opt/rtems/bsp/6/arm-rtems6/beagleboneblack/lib/include/rtems/score/thread.h"
 874              	 .file 8 "/opt/rtems/tools/6/arm-rtems6/include/stdio.h"
 875              	 .file 9 "/opt/rtems/tools/6/arm-rtems6/include/sys/_stdint.h"
 876              	 .file 10 "/opt/rtems/bsp/6/arm-rtems6/beagleboneblack/lib/include/rtems/rtems/attr.h"
 877              	 .file 11 "/opt/rtems/bsp/6/arm-rtems6/beagleboneblack/lib/include/rtems/score/cpu.h"
 878              	 .file 12 "/opt/rtems/bsp/6/arm-rtems6/beagleboneblack/lib/include/rtems/rtems/modes.h"
 879              	 .file 13 "/opt/rtems/bsp/6/arm-rtems6/beagleboneblack/lib/include/rtems/rtems/status.h"
 880              	 .file 14 "/opt/rtems/tools/6/arm-rtems6/include/sys/_timespec.h"
 881              	 .file 15 "/opt/rtems/bsp/6/arm-rtems6/beagleboneblack/lib/include/rtems/score/object.h"
 882              	 .file 16 "/opt/rtems/bsp/6/arm-rtems6/beagleboneblack/lib/include/rtems/score/watchdogticks.h"
 883              	 .file 17 "/opt/rtems/bsp/6/arm-rtems6/beagleboneblack/lib/include/rtems/rtems/types.h"
 884              	 .file 18 "/opt/rtems/bsp/6/arm-rtems6/beagleboneblack/lib/include/rtems/score/stack.h"
 885              	 .file 19 "/opt/rtems/bsp/6/arm-rtems6/beagleboneblack/lib/include/rtems/rtems/tasks.h"
 886              	 .file 20 "/opt/rtems/bsp/6/arm-rtems6/beagleboneblack/lib/include/rtems/score/isrlevel.h"
 887              	 .file 21 "/opt/rtems/bsp/6/arm-rtems6/beagleboneblack/lib/include/rtems/score/isr.h"
 888              	 .file 22 "/opt/rtems/bsp/6/arm-rtems6/beagleboneblack/lib/include/rtems/score/threadidledata.h"
 889              	 .file 23 "/opt/rtems/bsp/6/arm-rtems6/beagleboneblack/lib/include/rtems/score/interr.h"
 890              	 .file 24 "/opt/rtems/bsp/6/arm-rtems6/beagleboneblack/lib/include/rtems/score/userext.h"
 891              	 .file 25 "/opt/rtems/bsp/6/arm-rtems6/beagleboneblack/lib/include/rtems/score/chain.h"
 892              	 .file 26 "/opt/rtems/bsp/6/arm-rtems6/beagleboneblack/lib/include/rtems/score/userextdata.h"
 893              	 .file 27 "/opt/rtems/bsp/6/arm-rtems6/beagleboneblack/lib/include/rtems/score/wkspacedata.h"
 894              	 .file 28 "/opt/rtems/bsp/6/arm-rtems6/beagleboneblack/lib/include/rtems/extension.h"
 895              	 .file 29 "/opt/rtems/bsp/6/arm-rtems6/beagleboneblack/lib/include/rtems/io.h"
 896              	 .file 30 "/opt/rtems/tools/6/arm-rtems6/include/sys/_sigset.h"
 897              	 .file 31 "/opt/rtems/tools/6/arm-rtems6/include/sys/select.h"
 898              	 .file 32 "/opt/rtems/tools/6/arm-rtems6/include/sys/types.h"
 899              	 .file 33 "/opt/rtems/bsp/6/arm-rtems6/beagleboneblack/lib/include/rtems/score/scheduler.h"
 900              	 .file 34 "/opt/rtems/tools/6/arm-rtems6/include/sys/_pthreadtypes.h"
ARM GAS   			page 21


 901              	 .file 35 "/opt/rtems/bsp/6/arm-rtems6/beagleboneblack/lib/include/rtems/rtems/event.h"
 902              	 .file 36 "/opt/rtems/bsp/6/arm-rtems6/beagleboneblack/lib/include/rtems/score/isrlock.h"
 903              	 .file 37 "/opt/rtems/bsp/6/arm-rtems6/beagleboneblack/lib/include/rtems/score/coremsgbuffer.h"
 904              	 .file 38 "/opt/rtems/bsp/6/arm-rtems6/beagleboneblack/lib/include/rtems/rtems/asr.h"
 905              	 .file 39 "/opt/rtems/bsp/6/arm-rtems6/beagleboneblack/lib/include/rtems/rtems/timer.h"
 906              	 .file 40 "/opt/rtems/tools/6/arm-rtems6/include/sys/stat.h"
 907              	 .file 41 "/opt/rtems/tools/6/arm-rtems6/include/sys/ioccom.h"
 908              	 .file 42 "/opt/rtems/bsp/6/arm-rtems6/beagleboneblack/lib/include/rtems/score/chainimpl.h"
 909              	 .file 43 "/opt/rtems/bsp/6/arm-rtems6/beagleboneblack/lib/include/rtems/chain.h"
 910              	 .file 44 "/opt/rtems/bsp/6/arm-rtems6/beagleboneblack/lib/include/rtems/fs.h"
 911              	 .file 45 "/opt/rtems/bsp/6/arm-rtems6/beagleboneblack/lib/include/rtems/libio.h"
 912              	 .file 46 "/opt/rtems/bsp/6/arm-rtems6/beagleboneblack/lib/include/sys/statvfs.h"
 913              	 .file 47 "/opt/rtems/tools/6/arm-rtems6/include/sys/_iovec.h"
 914              	 .file 48 "/opt/rtems/bsp/6/arm-rtems6/beagleboneblack/lib/include/rtems/score/atomic.h"
 915              	 .file 49 "/opt/rtems/bsp/6/arm-rtems6/beagleboneblack/lib/include/rtems/shell.h"
 916              	 .file 50 "/opt/rtems/bsp/6/arm-rtems6/beagleboneblack/lib/include/rtems/netcmds-config.h"
 917              	 .file 51 "/opt/rtems/bsp/6/arm-rtems6/beagleboneblack/lib/include/bsp/irq-info.h"
 918              	 .file 52 "/opt/rtems/bsp/6/arm-rtems6/beagleboneblack/lib/include/rtems/shellconfig.h"
 919              	 .file 53 "/opt/rtems/bsp/6/arm-rtems6/beagleboneblack/lib/include/rtems/score/timestamp.h"
 920              	 .file 54 "/opt/rtems/bsp/6/arm-rtems6/beagleboneblack/lib/include/rtems/score/rbtree.h"
 921              	 .file 55 "/opt/rtems/bsp/6/arm-rtems6/beagleboneblack/lib/include/rtems/score/watchdog.h"
 922              	 .file 56 "/opt/rtems/bsp/6/arm-rtems6/beagleboneblack/lib/include/rtems/score/percpu.h"
 923              	 .file 57 "/opt/rtems/bsp/6/arm-rtems6/beagleboneblack/lib/include/rtems/bdbuf.h"
 924              	 .file 58 "/opt/rtems/bsp/6/arm-rtems6/beagleboneblack/lib/include/rtems/confdefs/percpu.h"
 925              	 .file 59 "/opt/rtems/bsp/6/arm-rtems6/beagleboneblack/lib/include/rtems/confdefs/bdbuf.h"
 926              	 .file 60 "/opt/rtems/bsp/6/arm-rtems6/beagleboneblack/lib/include/rtems/sysinit.h"
 927              	 .file 61 "/opt/rtems/bsp/6/arm-rtems6/beagleboneblack/lib/include/rtems/confdefs/clock.h"
 928              	 .file 62 "/opt/rtems/bsp/6/arm-rtems6/beagleboneblack/lib/include/rtems/score/freechain.h"
 929              	 .file 63 "/opt/rtems/bsp/6/arm-rtems6/beagleboneblack/lib/include/rtems/score/objectdata.h"
 930              	 .file 64 "/opt/rtems/bsp/6/arm-rtems6/beagleboneblack/lib/include/rtems/score/priority.h"
 931              	 .file 65 "/opt/rtems/bsp/6/arm-rtems6/beagleboneblack/lib/include/rtems/score/schedulernode.h"
 932              	 .file 66 "/opt/rtems/bsp/6/arm-rtems6/beagleboneblack/lib/include/rtems/score/states.h"
 933              	 .file 67 "/opt/rtems/bsp/6/arm-rtems6/beagleboneblack/lib/include/rtems/userenv.h"
 934              	 .file 68 "/opt/rtems/tools/6/arm-rtems6/include/pthread.h"
 935              	 .file 69 "/opt/rtems/bsp/6/arm-rtems6/beagleboneblack/lib/include/rtems/score/userextimpl.h"
 936              	 .file 70 "/opt/rtems/bsp/6/arm-rtems6/beagleboneblack/lib/include/rtems/confdefs/threads.h"
 937              	 .file 71 "/opt/rtems/bsp/6/arm-rtems6/beagleboneblack/lib/include/rtems/extensiondata.h"
 938              	 .file 72 "/opt/rtems/bsp/6/arm-rtems6/beagleboneblack/lib/include/rtems/stackchk.h"
 939              	 .file 73 "/opt/rtems/bsp/6/arm-rtems6/beagleboneblack/lib/include/rtems/confdefs/extensions.h"
 940              	 .file 74 "/opt/rtems/bsp/6/arm-rtems6/beagleboneblack/lib/include/rtems/score/status.h"
 941              	 .file 75 "/opt/rtems/bsp/6/arm-rtems6/beagleboneblack/lib/include/rtems/score/prioritybitmap.h"
 942              	 .file 76 "/opt/rtems/bsp/6/arm-rtems6/beagleboneblack/lib/include/rtems/score/schedulerpriority.h"
 943              	 .file 77 "/opt/rtems/bsp/6/arm-rtems6/beagleboneblack/lib/include/rtems/confdefs/scheduler.h"
 944              	 .file 78 "/opt/rtems/bsp/6/arm-rtems6/beagleboneblack/lib/include/rtems/rtems/asrdata.h"
 945              	 .file 79 "/opt/rtems/bsp/6/arm-rtems6/beagleboneblack/lib/include/rtems/rtems/eventdata.h"
 946              	 .file 80 "/opt/rtems/bsp/6/arm-rtems6/beagleboneblack/lib/include/rtems/rtems/tasksdata.h"
 947              	 .file 81 "/opt/rtems/bsp/6/arm-rtems6/beagleboneblack/lib/include/rtems/posix/threadsup.h"
 948              	 .file 82 "/opt/rtems/bsp/6/arm-rtems6/beagleboneblack/lib/include/rtems/confdefs/inittask.h"
 949              	 .file 83 "/opt/rtems/bsp/6/arm-rtems6/beagleboneblack/lib/include/rtems/ioimpl.h"
 950              	 .file 84 "/opt/rtems/bsp/6/arm-rtems6/beagleboneblack/lib/include/rtems/confdefs/iodrivers.h"
 951              	 .file 85 "/opt/rtems/bsp/6/arm-rtems6/beagleboneblack/lib/include/rtems/libio_.h"
 952              	 .file 86 "/opt/rtems/bsp/6/arm-rtems6/beagleboneblack/lib/include/rtems/imfs.h"
 953              	 .file 87 "/opt/rtems/bsp/6/arm-rtems6/beagleboneblack/lib/include/rtems/confdefs/libio.h"
 954              	 .file 88 "/opt/rtems/bsp/6/arm-rtems6/beagleboneblack/lib/include/rtems/score/coremsg.h"
 955              	 .file 89 "/opt/rtems/bsp/6/arm-rtems6/beagleboneblack/lib/include/rtems/rtems/messagedata.h"
 956              	 .file 90 "/opt/rtems/bsp/6/arm-rtems6/beagleboneblack/lib/include/rtems/rtems/partdata.h"
 957              	 .file 91 "/opt/rtems/bsp/6/arm-rtems6/beagleboneblack/lib/include/rtems/score/coremutex.h"
ARM GAS   			page 22


 958              	 .file 92 "/opt/rtems/bsp/6/arm-rtems6/beagleboneblack/lib/include/rtems/score/coresem.h"
 959              	 .file 93 "/opt/rtems/bsp/6/arm-rtems6/beagleboneblack/lib/include/rtems/rtems/semdata.h"
 960              	 .file 94 "/opt/rtems/bsp/6/arm-rtems6/beagleboneblack/lib/include/rtems/rtems/timerdata.h"
 961              	 .file 95 "/opt/rtems/bsp/6/arm-rtems6/beagleboneblack/lib/include/rtems/confdefs/objectsclassic.h"
 962              	 .file 96 "/opt/rtems/bsp/6/arm-rtems6/beagleboneblack/lib/include/rtems/posix/key.h"
 963              	 .file 97 "/opt/rtems/bsp/6/arm-rtems6/beagleboneblack/lib/include/rtems/confdefs/objectsposix.h"
 964              	 .file 98 "/opt/rtems/bsp/6/arm-rtems6/beagleboneblack/lib/include/rtems/confdefs/wkspace.h"
 965              	 .file 99 "/opt/rtems/bsp/6/arm-rtems6/beagleboneblack/lib/include/rtems/rtems-rfs.h"
 966              	 .file 100 "/opt/rtems/bsp/6/arm-rtems6/beagleboneblack/lib/include/rtems/devzero.h"
 967              	 .file 101 "/opt/rtems/bsp/6/arm-rtems6/beagleboneblack/lib/include/rtems/devnull.h"
 968              	 .file 102 "/opt/rtems/bsp/6/arm-rtems6/beagleboneblack/lib/include/rtems/console.h"
 969              	 .file 103 "/opt/rtems/tools/6/arm-rtems6/include/stdlib.h"
 970              	 .file 104 "/opt/rtems/bsp/6/arm-rtems6/beagleboneblack/lib/include/rtems/untar.h"
 971              	 .file 105 "/opt/rtems/bsp/6/arm-rtems6/beagleboneblack/lib/include/rtems/version.h"
 972              	 .file 106 "/opt/rtems/bsp/6/arm-rtems6/beagleboneblack/lib/include/bsp/default-initial-extension.h"
 973              	 .file 107 "/opt/rtems/bsp/6/arm-rtems6/beagleboneblack/lib/include/rtems/libcsupport.h"
 974              	 .file 108 "/opt/rtems/bsp/6/arm-rtems6/beagleboneblack/lib/include/rtems/clockdrv.h"
 975              	 .file 109 "<built-in>"
 976              	 .section .debug_info,"",%progbits
 977              	.Ldebug_info0:
 978 0000 95500000 	 .4byte 0x5095
 979 0004 0500     	 .2byte 0x5
 980 0006 01       	 .byte 0x1
 981 0007 04       	 .byte 0x4
 982 0008 00000000 	 .4byte .Ldebug_abbrev0
 983 000c 36       	 .uleb128 0x36
 984 000d 9F410000 	 .4byte .LASF1048
 985 0011 1D       	 .byte 0x1d
 986 0012 8A250000 	 .4byte .LASF1049
 987 0016 26370000 	 .4byte .LASF1050
 988 001a 00000000 	 .4byte .Ltext0
 989 001e D4000000 	 .4byte .Letext0-.Ltext0
 990 0022 00000000 	 .4byte .Ldebug_line0
 991 0026 1A       	 .uleb128 0x1a
 992 0027 08       	 .byte 0x8
 993 0028 07       	 .byte 0x7
 994 0029 DA3C0000 	 .4byte .LASF0
 995 002d 1A       	 .uleb128 0x1a
 996 002e 04       	 .byte 0x4
 997 002f 07       	 .byte 0x7
 998 0030 F7470000 	 .4byte .LASF1
 999 0034 1A       	 .uleb128 0x1a
 1000 0035 01       	 .byte 0x1
 1001 0036 06       	 .byte 0x6
 1002 0037 13250000 	 .4byte .LASF2
 1003 003b 04       	 .uleb128 0x4
 1004 003c 22020000 	 .4byte .LASF5
 1005 0040 02       	 .byte 0x2
 1006 0041 2B       	 .byte 0x2b
 1007 0042 18       	 .byte 0x18
 1008 0043 47000000 	 .4byte 0x47
 1009 0047 1A       	 .uleb128 0x1a
 1010 0048 01       	 .byte 0x1
 1011 0049 08       	 .byte 0x8
 1012 004a 53100000 	 .4byte .LASF3
 1013 004e 1A       	 .uleb128 0x1a
 1014 004f 02       	 .byte 0x2
ARM GAS   			page 23


 1015 0050 05       	 .byte 0x5
 1016 0051 FF480000 	 .4byte .LASF4
 1017 0055 04       	 .uleb128 0x4
 1018 0056 0A0E0000 	 .4byte .LASF6
 1019 005a 02       	 .byte 0x2
 1020 005b 39       	 .byte 0x39
 1021 005c 19       	 .byte 0x19
 1022 005d 61000000 	 .4byte 0x61
 1023 0061 1A       	 .uleb128 0x1a
 1024 0062 02       	 .byte 0x2
 1025 0063 07       	 .byte 0x7
 1026 0064 00250000 	 .4byte .LASF7
 1027 0068 04       	 .uleb128 0x4
 1028 0069 34380000 	 .4byte .LASF8
 1029 006d 02       	 .byte 0x2
 1030 006e 4D       	 .byte 0x4d
 1031 006f 18       	 .byte 0x18
 1032 0070 74000000 	 .4byte 0x74
 1033 0074 37       	 .uleb128 0x37
 1034 0075 04       	 .byte 0x4
 1035 0076 05       	 .byte 0x5
 1036 0077 696E7400 	 .ascii "int\000"
 1037 007b 0B       	 .uleb128 0xb
 1038 007c 74000000 	 .4byte 0x74
 1039 0080 04       	 .uleb128 0x4
 1040 0081 6B380000 	 .4byte .LASF9
 1041 0085 02       	 .byte 0x2
 1042 0086 4F       	 .byte 0x4f
 1043 0087 19       	 .byte 0x19
 1044 0088 2D000000 	 .4byte 0x2d
 1045 008c 04       	 .uleb128 0x4
 1046 008d 421E0000 	 .4byte .LASF10
 1047 0091 02       	 .byte 0x2
 1048 0092 67       	 .byte 0x67
 1049 0093 18       	 .byte 0x18
 1050 0094 98000000 	 .4byte 0x98
 1051 0098 1A       	 .uleb128 0x1a
 1052 0099 08       	 .byte 0x8
 1053 009a 05       	 .byte 0x5
 1054 009b E1420000 	 .4byte .LASF11
 1055 009f 04       	 .uleb128 0x4
 1056 00a0 7E1E0000 	 .4byte .LASF12
 1057 00a4 02       	 .byte 0x2
 1058 00a5 69       	 .byte 0x69
 1059 00a6 19       	 .byte 0x19
 1060 00a7 26000000 	 .4byte 0x26
 1061 00ab 04       	 .uleb128 0x4
 1062 00ac 58000000 	 .4byte .LASF13
 1063 00b0 02       	 .byte 0x2
 1064 00b1 C8       	 .byte 0xc8
 1065 00b2 1E       	 .byte 0x1e
 1066 00b3 98000000 	 .4byte 0x98
 1067 00b7 04       	 .uleb128 0x4
 1068 00b8 A9310000 	 .4byte .LASF14
 1069 00bc 02       	 .byte 0x2
 1070 00bd E8       	 .byte 0xe8
 1071 00be 1A       	 .byte 0x1a
ARM GAS   			page 24


 1072 00bf 2D000000 	 .4byte 0x2d
 1073 00c3 04       	 .uleb128 0x4
 1074 00c4 06180000 	 .4byte .LASF15
 1075 00c8 03       	 .byte 0x3
 1076 00c9 D6       	 .byte 0xd6
 1077 00ca 17       	 .byte 0x17
 1078 00cb 2D000000 	 .4byte 0x2d
 1079 00cf 0B       	 .uleb128 0xb
 1080 00d0 C3000000 	 .4byte 0xc3
 1081 00d4 1A       	 .uleb128 0x1a
 1082 00d5 08       	 .byte 0x8
 1083 00d6 04       	 .byte 0x4
 1084 00d7 D22C0000 	 .4byte .LASF16
 1085 00db 38       	 .uleb128 0x38
 1086 00dc 04       	 .byte 0x4
 1087 00dd 04       	 .uleb128 0x4
 1088 00de 97100000 	 .4byte .LASF17
 1089 00e2 04       	 .byte 0x4
 1090 00e3 06       	 .byte 0x6
 1091 00e4 13       	 .byte 0x13
 1092 00e5 68000000 	 .4byte 0x68
 1093 00e9 04       	 .uleb128 0x4
 1094 00ea 39250000 	 .4byte .LASF18
 1095 00ee 04       	 .byte 0x4
 1096 00ef 09       	 .byte 0x9
 1097 00f0 13       	 .byte 0x13
 1098 00f1 68000000 	 .4byte 0x68
 1099 00f5 04       	 .uleb128 0x4
 1100 00f6 3B300000 	 .4byte .LASF19
 1101 00fa 04       	 .byte 0x4
 1102 00fb 0C       	 .byte 0xc
 1103 00fc 14       	 .byte 0x14
 1104 00fd 9F000000 	 .4byte 0x9f
 1105 0101 04       	 .uleb128 0x4
 1106 0102 A5170000 	 .4byte .LASF20
 1107 0106 04       	 .byte 0x4
 1108 0107 0F       	 .byte 0xf
 1109 0108 13       	 .byte 0x13
 1110 0109 8C000000 	 .4byte 0x8c
 1111 010d 04       	 .uleb128 0x4
 1112 010e DF440000 	 .4byte .LASF21
 1113 0112 04       	 .byte 0x4
 1114 0113 15       	 .byte 0x15
 1115 0114 14       	 .byte 0x14
 1116 0115 9F000000 	 .4byte 0x9f
 1117 0119 04       	 .uleb128 0x4
 1118 011a EF120000 	 .4byte .LASF22
 1119 011e 04       	 .byte 0x4
 1120 011f 18       	 .byte 0x18
 1121 0120 14       	 .byte 0x14
 1122 0121 80000000 	 .4byte 0x80
 1123 0125 04       	 .uleb128 0x4
 1124 0126 18180000 	 .4byte .LASF23
 1125 012a 05       	 .byte 0x5
 1126 012b 26       	 .byte 0x26
 1127 012c 14       	 .byte 0x14
 1128 012d 9F000000 	 .4byte 0x9f
ARM GAS   			page 25


 1129 0131 04       	 .uleb128 0x4
 1130 0132 520F0000 	 .4byte .LASF24
 1131 0136 05       	 .byte 0x5
 1132 0137 2A       	 .byte 0x2a
 1133 0138 14       	 .byte 0x14
 1134 0139 80000000 	 .4byte 0x80
 1135 013d 04       	 .uleb128 0x4
 1136 013e E32B0000 	 .4byte .LASF25
 1137 0142 05       	 .byte 0x5
 1138 0143 34       	 .byte 0x34
 1139 0144 0D       	 .byte 0xd
 1140 0145 74000000 	 .4byte 0x74
 1141 0149 04       	 .uleb128 0x4
 1142 014a EC0D0000 	 .4byte .LASF26
 1143 014e 05       	 .byte 0x5
 1144 014f 3C       	 .byte 0x3c
 1145 0150 18       	 .byte 0x18
 1146 0151 61000000 	 .4byte 0x61
 1147 0155 04       	 .uleb128 0x4
 1148 0156 FB3A0000 	 .4byte .LASF27
 1149 015a 05       	 .byte 0x5
 1150 015b 3F       	 .byte 0x3f
 1151 015c 18       	 .byte 0x18
 1152 015d 61000000 	 .4byte 0x61
 1153 0161 04       	 .uleb128 0x4
 1154 0162 CD040000 	 .4byte .LASF28
 1155 0166 05       	 .byte 0x5
 1156 0167 66       	 .byte 0x66
 1157 0168 10       	 .byte 0x10
 1158 0169 01010000 	 .4byte 0x101
 1159 016d 1A       	 .uleb128 0x1a
 1160 016e 04       	 .byte 0x4
 1161 016f 05       	 .byte 0x5
 1162 0170 3C2A0000 	 .4byte .LASF29
 1163 0174 04       	 .uleb128 0x4
 1164 0175 52220000 	 .4byte .LASF30
 1165 0179 05       	 .byte 0x5
 1166 017a 93       	 .byte 0x93
 1167 017b 17       	 .byte 0x17
 1168 017c 74000000 	 .4byte 0x74
 1169 0180 1A       	 .uleb128 0x1a
 1170 0181 04       	 .byte 0x4
 1171 0182 07       	 .byte 0x7
 1172 0183 682D0000 	 .4byte .LASF31
 1173 0187 04       	 .uleb128 0x4
 1174 0188 391C0000 	 .4byte .LASF32
 1175 018c 05       	 .byte 0x5
 1176 018d D5       	 .byte 0xd5
 1177 018e 18       	 .byte 0x18
 1178 018f 61000000 	 .4byte 0x61
 1179 0193 18       	 .uleb128 0x18
 1180 0194 1A1C0000 	 .4byte .LASF36
 1181 0198 48       	 .byte 0x48
 1182 0199 06       	 .byte 0x6
 1183 019a 8101     	 .2byte 0x181
 1184 019c 10       	 .byte 0x10
 1185 019d CC010000 	 .4byte 0x1cc
ARM GAS   			page 26


 1186 01a1 03       	 .uleb128 0x3
 1187 01a2 590B0000 	 .4byte .LASF33
 1188 01a6 06       	 .byte 0x6
 1189 01a7 9501     	 .2byte 0x195
 1190 01a9 05       	 .byte 0x5
 1191 01aa 7B2B0000 	 .4byte 0x2b7b
 1192 01ae 00       	 .byte 0
 1193 01af 03       	 .uleb128 0x3
 1194 01b0 6A060000 	 .4byte .LASF34
 1195 01b4 06       	 .byte 0x6
 1196 01b5 9B01     	 .2byte 0x19b
 1197 01b7 11       	 .byte 0x11
 1198 01b8 970A0000 	 .4byte 0xa97
 1199 01bc 30       	 .byte 0x30
 1200 01bd 03       	 .uleb128 0x3
 1201 01be 543D0000 	 .4byte .LASF35
 1202 01c2 06       	 .byte 0x6
 1203 01c3 A101     	 .2byte 0x1a1
 1204 01c5 0E       	 .byte 0xe
 1205 01c6 1C0A0000 	 .4byte 0xa1c
 1206 01ca 3C       	 .byte 0x3c
 1207 01cb 00       	 .byte 0
 1208 01cc 39       	 .uleb128 0x39
 1209 01cd 1E230000 	 .4byte .LASF37
 1210 01d1 5001     	 .2byte 0x150
 1211 01d3 07       	 .byte 0x7
 1212 01d4 2E03     	 .2byte 0x32e
 1213 01d6 08       	 .byte 0x8
 1214 01d7 3A030000 	 .4byte 0x33a
 1215 01db 03       	 .uleb128 0x3
 1216 01dc D20E0000 	 .4byte .LASF38
 1217 01e0 07       	 .byte 0x7
 1218 01e1 3003     	 .2byte 0x330
 1219 01e3 1C       	 .byte 0x1c
 1220 01e4 F0250000 	 .4byte 0x25f0
 1221 01e8 00       	 .byte 0
 1222 01e9 03       	 .uleb128 0x3
 1223 01ea 23220000 	 .4byte .LASF39
 1224 01ee 07       	 .byte 0x7
 1225 01ef 4103     	 .2byte 0x341
 1226 01f1 1C       	 .byte 0x1c
 1227 01f2 812C0000 	 .4byte 0x2c81
 1228 01f6 10       	 .byte 0x10
 1229 01f7 03       	 .uleb128 0x3
 1230 01f8 183A0000 	 .4byte .LASF40
 1231 01fc 07       	 .byte 0x7
 1232 01fd 4403     	 .2byte 0x344
 1233 01ff 1C       	 .byte 0x1c
 1234 0200 20290000 	 .4byte 0x2920
 1235 0204 1C       	 .byte 0x1c
 1236 0205 03       	 .uleb128 0x3
 1237 0206 5E300000 	 .4byte .LASF41
 1238 020a 07       	 .byte 0x7
 1239 020b 4903     	 .2byte 0x349
 1240 020d 1C       	 .byte 0x1c
 1241 020e E3270000 	 .4byte 0x27e3
 1242 0212 20       	 .byte 0x20
ARM GAS   			page 27


 1243 0213 03       	 .uleb128 0x3
 1244 0214 1F490000 	 .4byte .LASF42
 1245 0218 07       	 .byte 0x7
 1246 0219 5303     	 .2byte 0x353
 1247 021b 1C       	 .byte 0x1c
 1248 021c B22E0000 	 .4byte 0x2eb2
 1249 0220 38       	 .byte 0x38
 1250 0221 03       	 .uleb128 0x3
 1251 0222 8E170000 	 .4byte .LASF43
 1252 0226 07       	 .byte 0x7
 1253 0227 5603     	 .2byte 0x356
 1254 0229 1C       	 .byte 0x1c
 1255 022a 8C2F0000 	 .4byte 0x2f8c
 1256 022e 3C       	 .byte 0x3c
 1257 022f 03       	 .uleb128 0x3
 1258 0230 F9020000 	 .4byte .LASF44
 1259 0234 07       	 .byte 0x7
 1260 0235 5803     	 .2byte 0x358
 1261 0237 1C       	 .byte 0x1c
 1262 0238 C52F0000 	 .4byte 0x2fc5
 1263 023c 60       	 .byte 0x60
 1264 023d 03       	 .uleb128 0x3
 1265 023e F5190000 	 .4byte .LASF45
 1266 0242 07       	 .byte 0x7
 1267 0243 6603     	 .2byte 0x366
 1268 0245 13       	 .byte 0x13
 1269 0246 82040000 	 .4byte 0x482
 1270 024a 88       	 .byte 0x88
 1271 024b 03       	 .uleb128 0x3
 1272 024c 761E0000 	 .4byte .LASF46
 1273 0250 07       	 .byte 0x7
 1274 0251 7503     	 .2byte 0x375
 1275 0253 29       	 .byte 0x29
 1276 0254 F5060000 	 .4byte 0x6f5
 1277 0258 B8       	 .byte 0xb8
 1278 0259 03       	 .uleb128 0x3
 1279 025a 35310000 	 .4byte .LASF47
 1280 025e 07       	 .byte 0x7
 1281 025f 7B03     	 .2byte 0x37b
 1282 0261 29       	 .byte 0x29
 1283 0262 F5060000 	 .4byte 0x6f5
 1284 0266 B9       	 .byte 0xb9
 1285 0267 03       	 .uleb128 0x3
 1286 0268 3C060000 	 .4byte .LASF48
 1287 026c 07       	 .byte 0x7
 1288 026d 7D03     	 .2byte 0x37d
 1289 026f 29       	 .byte 0x29
 1290 0270 F5060000 	 .4byte 0x6f5
 1291 0274 BA       	 .byte 0xba
 1292 0275 03       	 .uleb128 0x3
 1293 0276 2D270000 	 .4byte .LASF49
 1294 027a 07       	 .byte 0x7
 1295 027b 8303     	 .2byte 0x383
 1296 027d 08       	 .byte 0x8
 1297 027e F5060000 	 .4byte 0x6f5
 1298 0282 BB       	 .byte 0xbb
 1299 0283 03       	 .uleb128 0x3
ARM GAS   			page 28


 1300 0284 96270000 	 .4byte .LASF50
 1301 0288 07       	 .byte 0x7
 1302 0289 8903     	 .2byte 0x389
 1303 028b 1D       	 .byte 0x1d
 1304 028c 0A2E0000 	 .4byte 0x2e0a
 1305 0290 BC       	 .byte 0xbc
 1306 0291 03       	 .uleb128 0x3
 1307 0292 122D0000 	 .4byte .LASF51
 1308 0296 07       	 .byte 0x7
 1309 0297 8F03     	 .2byte 0x38f
 1310 0299 15       	 .byte 0x15
 1311 029a 75210000 	 .4byte 0x2175
 1312 029e C8       	 .byte 0xc8
 1313 029f 03       	 .uleb128 0x3
 1314 02a0 FA0F0000 	 .4byte .LASF52
 1315 02a4 07       	 .byte 0x7
 1316 02a5 9603     	 .2byte 0x396
 1317 02a7 15       	 .byte 0x15
 1318 02a8 75210000 	 .4byte 0x2175
 1319 02ac D0       	 .byte 0xd0
 1320 02ad 03       	 .uleb128 0x3
 1321 02ae 50050000 	 .4byte .LASF53
 1322 02b2 07       	 .byte 0x7
 1323 02b3 9B03     	 .2byte 0x39b
 1324 02b5 29       	 .byte 0x29
 1325 02b6 882E0000 	 .4byte 0x2e88
 1326 02ba D8       	 .byte 0xd8
 1327 02bb 1E       	 .uleb128 0x1e
 1328 02bc 37110000 	 .4byte .LASF54
 1329 02c0 9D03     	 .2byte 0x39d
 1330 02c2 29       	 .byte 0x29
 1331 02c3 93300000 	 .4byte 0x3093
 1332 02c7 0801     	 .2byte 0x108
 1333 02c9 1E       	 .uleb128 0x1e
 1334 02ca 4F390000 	 .4byte .LASF55
 1335 02ce AC03     	 .2byte 0x3ac
 1336 02d0 29       	 .byte 0x29
 1337 02d1 31310000 	 .4byte 0x3131
 1338 02d5 1401     	 .2byte 0x114
 1339 02d7 1E       	 .uleb128 0x1e
 1340 02d8 DB0D0000 	 .4byte .LASF56
 1341 02dc B103     	 .2byte 0x3b1
 1342 02de 29       	 .byte 0x29
 1343 02df 6D300000 	 .4byte 0x306d
 1344 02e3 1C01     	 .2byte 0x11c
 1345 02e5 1E       	 .uleb128 0x1e
 1346 02e6 37350000 	 .4byte .LASF57
 1347 02ea B803     	 .2byte 0x3b8
 1348 02ec 29       	 .byte 0x29
 1349 02ed F0300000 	 .4byte 0x30f0
 1350 02f1 2001     	 .2byte 0x120
 1351 02f3 1E       	 .uleb128 0x1e
 1352 02f4 9C200000 	 .4byte .LASF58
 1353 02f8 BA03     	 .2byte 0x3ba
 1354 02fa 29       	 .byte 0x29
 1355 02fb 24310000 	 .4byte 0x3124
 1356 02ff 3801     	 .2byte 0x138
ARM GAS   			page 29


 1357 0301 1E       	 .uleb128 0x1e
 1358 0302 D43D0000 	 .4byte .LASF59
 1359 0306 BF03     	 .2byte 0x3bf
 1360 0308 1C       	 .byte 0x1c
 1361 0309 DE310000 	 .4byte 0x31de
 1362 030d 4001     	 .2byte 0x140
 1363 030f 1E       	 .uleb128 0x1e
 1364 0310 5E0E0000 	 .4byte .LASF60
 1365 0314 C403     	 .2byte 0x3c4
 1366 0316 24       	 .byte 0x24
 1367 0317 25320000 	 .4byte 0x3225
 1368 031b 4401     	 .2byte 0x144
 1369 031d 1E       	 .uleb128 0x1e
 1370 031e 211F0000 	 .4byte .LASF61
 1371 0322 C903     	 .2byte 0x3c9
 1372 0324 24       	 .byte 0x24
 1373 0325 52320000 	 .4byte 0x3252
 1374 0329 4801     	 .2byte 0x148
 1375 032b 1E       	 .uleb128 0x1e
 1376 032c 73220000 	 .4byte .LASF62
 1377 0330 D003     	 .2byte 0x3d0
 1378 0332 29       	 .byte 0x29
 1379 0333 57320000 	 .4byte 0x3257
 1380 0337 4C01     	 .2byte 0x14c
 1381 0339 00       	 .byte 0
 1382 033a 05       	 .uleb128 0x5
 1383 033b CC010000 	 .4byte 0x1cc
 1384 033f 05       	 .uleb128 0x5
 1385 0340 4B030000 	 .4byte 0x34b
 1386 0344 1A       	 .uleb128 0x1a
 1387 0345 01       	 .byte 0x1
 1388 0346 08       	 .byte 0x8
 1389 0347 002F0000 	 .4byte .LASF63
 1390 034b 0B       	 .uleb128 0xb
 1391 034c 44030000 	 .4byte 0x344
 1392 0350 05       	 .uleb128 0x5
 1393 0351 55030000 	 .4byte 0x355
 1394 0355 3A       	 .uleb128 0x3a
 1395 0356 05       	 .uleb128 0x5
 1396 0357 44030000 	 .4byte 0x344
 1397 035b 04       	 .uleb128 0x4
 1398 035c 3A120000 	 .4byte .LASF64
 1399 0360 08       	 .byte 0x8
 1400 0361 4C       	 .byte 0x4c
 1401 0362 11       	 .byte 0x11
 1402 0363 61010000 	 .4byte 0x161
 1403 0367 04       	 .uleb128 0x4
 1404 0368 56370000 	 .4byte .LASF65
 1405 036c 08       	 .byte 0x8
 1406 036d 51       	 .byte 0x51
 1407 036e 12       	 .byte 0x12
 1408 036f 74010000 	 .4byte 0x174
 1409 0373 05       	 .uleb128 0x5
 1410 0374 78030000 	 .4byte 0x378
 1411 0378 3B       	 .uleb128 0x3b
 1412 0379 04       	 .uleb128 0x4
 1413 037a 25180000 	 .4byte .LASF66
ARM GAS   			page 30


 1414 037e 09       	 .byte 0x9
 1415 037f 18       	 .byte 0x18
 1416 0380 13       	 .byte 0x13
 1417 0381 3B000000 	 .4byte 0x3b
 1418 0385 04       	 .uleb128 0x4
 1419 0386 20040000 	 .4byte .LASF67
 1420 038a 09       	 .byte 0x9
 1421 038b 24       	 .byte 0x24
 1422 038c 14       	 .byte 0x14
 1423 038d 55000000 	 .4byte 0x55
 1424 0391 04       	 .uleb128 0x4
 1425 0392 BB2B0000 	 .4byte .LASF68
 1426 0396 09       	 .byte 0x9
 1427 0397 30       	 .byte 0x30
 1428 0398 14       	 .byte 0x14
 1429 0399 80000000 	 .4byte 0x80
 1430 039d 0B       	 .uleb128 0xb
 1431 039e 91030000 	 .4byte 0x391
 1432 03a2 30       	 .uleb128 0x30
 1433 03a3 91030000 	 .4byte 0x391
 1434 03a7 04       	 .uleb128 0x4
 1435 03a8 7E340000 	 .4byte .LASF69
 1436 03ac 09       	 .byte 0x9
 1437 03ad 38       	 .byte 0x38
 1438 03ae 13       	 .byte 0x13
 1439 03af 8C000000 	 .4byte 0x8c
 1440 03b3 04       	 .uleb128 0x4
 1441 03b4 CF120000 	 .4byte .LASF70
 1442 03b8 09       	 .byte 0x9
 1443 03b9 3C       	 .byte 0x3c
 1444 03ba 14       	 .byte 0x14
 1445 03bb 9F000000 	 .4byte 0x9f
 1446 03bf 04       	 .uleb128 0x4
 1447 03c0 2E2C0000 	 .4byte .LASF71
 1448 03c4 09       	 .byte 0x9
 1449 03c5 52       	 .byte 0x52
 1450 03c6 15       	 .byte 0x15
 1451 03c7 B7000000 	 .4byte 0xb7
 1452 03cb 0B       	 .uleb128 0xb
 1453 03cc BF030000 	 .4byte 0x3bf
 1454 03d0 04       	 .uleb128 0x4
 1455 03d1 60320000 	 .4byte .LASF72
 1456 03d5 0A       	 .byte 0xa
 1457 03d6 60       	 .byte 0x60
 1458 03d7 12       	 .byte 0x12
 1459 03d8 91030000 	 .4byte 0x391
 1460 03dc 09       	 .uleb128 0x9
 1461 03dd 30       	 .byte 0x30
 1462 03de 0B       	 .byte 0xb
 1463 03df E0       	 .byte 0xe0
 1464 03e0 09       	 .byte 0x9
 1465 03e1 82040000 	 .4byte 0x482
 1466 03e5 02       	 .uleb128 0x2
 1467 03e6 39400000 	 .4byte .LASF73
 1468 03ea 0B       	 .byte 0xb
 1469 03eb E2       	 .byte 0xe2
 1470 03ec 0C       	 .byte 0xc
ARM GAS   			page 31


 1471 03ed 91030000 	 .4byte 0x391
 1472 03f1 00       	 .byte 0
 1473 03f2 02       	 .uleb128 0x2
 1474 03f3 45400000 	 .4byte .LASF74
 1475 03f7 0B       	 .byte 0xb
 1476 03f8 E3       	 .byte 0xe3
 1477 03f9 0C       	 .byte 0xc
 1478 03fa 91030000 	 .4byte 0x391
 1479 03fe 04       	 .byte 0x4
 1480 03ff 02       	 .uleb128 0x2
 1481 0400 51400000 	 .4byte .LASF75
 1482 0404 0B       	 .byte 0xb
 1483 0405 E4       	 .byte 0xe4
 1484 0406 0C       	 .byte 0xc
 1485 0407 91030000 	 .4byte 0x391
 1486 040b 08       	 .byte 0x8
 1487 040c 02       	 .uleb128 0x2
 1488 040d 5D400000 	 .4byte .LASF76
 1489 0411 0B       	 .byte 0xb
 1490 0412 E5       	 .byte 0xe5
 1491 0413 0C       	 .byte 0xc
 1492 0414 91030000 	 .4byte 0x391
 1493 0418 0C       	 .byte 0xc
 1494 0419 02       	 .uleb128 0x2
 1495 041a 69400000 	 .4byte .LASF77
 1496 041e 0B       	 .byte 0xb
 1497 041f E6       	 .byte 0xe6
 1498 0420 0C       	 .byte 0xc
 1499 0421 91030000 	 .4byte 0x391
 1500 0425 10       	 .byte 0x10
 1501 0426 02       	 .uleb128 0x2
 1502 0427 75400000 	 .4byte .LASF78
 1503 042b 0B       	 .byte 0xb
 1504 042c E7       	 .byte 0xe7
 1505 042d 0C       	 .byte 0xc
 1506 042e 91030000 	 .4byte 0x391
 1507 0432 14       	 .byte 0x14
 1508 0433 02       	 .uleb128 0x2
 1509 0434 4C070000 	 .4byte .LASF79
 1510 0438 0B       	 .byte 0xb
 1511 0439 E8       	 .byte 0xe8
 1512 043a 0C       	 .byte 0xc
 1513 043b 91030000 	 .4byte 0x391
 1514 043f 18       	 .byte 0x18
 1515 0440 02       	 .uleb128 0x2
 1516 0441 43300000 	 .4byte .LASF80
 1517 0445 0B       	 .byte 0xb
 1518 0446 E9       	 .byte 0xe9
 1519 0447 0C       	 .byte 0xc
 1520 0448 91030000 	 .4byte 0x391
 1521 044c 1C       	 .byte 0x1c
 1522 044d 02       	 .uleb128 0x2
 1523 044e 7C430000 	 .4byte .LASF81
 1524 0452 0B       	 .byte 0xb
 1525 0453 EA       	 .byte 0xea
 1526 0454 0C       	 .byte 0xc
 1527 0455 91030000 	 .4byte 0x391
ARM GAS   			page 32


 1528 0459 20       	 .byte 0x20
 1529 045a 02       	 .uleb128 0x2
 1530 045b 13390000 	 .4byte .LASF82
 1531 045f 0B       	 .byte 0xb
 1532 0460 EB       	 .byte 0xeb
 1533 0461 0C       	 .byte 0xc
 1534 0462 91030000 	 .4byte 0x391
 1535 0466 24       	 .byte 0x24
 1536 0467 02       	 .uleb128 0x2
 1537 0468 BF370000 	 .4byte .LASF83
 1538 046c 0B       	 .byte 0xb
 1539 046d EC       	 .byte 0xec
 1540 046e 0C       	 .byte 0xc
 1541 046f 91030000 	 .4byte 0x391
 1542 0473 28       	 .byte 0x28
 1543 0474 02       	 .uleb128 0x2
 1544 0475 9C3D0000 	 .4byte .LASF84
 1545 0479 0B       	 .byte 0xb
 1546 047a FC       	 .byte 0xfc
 1547 047b 0C       	 .byte 0xc
 1548 047c 91030000 	 .4byte 0x391
 1549 0480 2C       	 .byte 0x2c
 1550 0481 00       	 .byte 0
 1551 0482 08       	 .uleb128 0x8
 1552 0483 49350000 	 .4byte .LASF85
 1553 0487 0B       	 .byte 0xb
 1554 0488 0A01     	 .2byte 0x10a
 1555 048a 03       	 .byte 0x3
 1556 048b DC030000 	 .4byte 0x3dc
 1557 048f 08       	 .uleb128 0x8
 1558 0490 88430000 	 .4byte .LASF86
 1559 0494 0B       	 .byte 0xb
 1560 0495 A702     	 .2byte 0x2a7
 1561 0497 13       	 .byte 0x13
 1562 0498 BF030000 	 .4byte 0x3bf
 1563 049c 04       	 .uleb128 0x4
 1564 049d 180C0000 	 .4byte .LASF87
 1565 04a1 0C       	 .byte 0xc
 1566 04a2 AE       	 .byte 0xae
 1567 04a3 12       	 .byte 0x12
 1568 04a4 91030000 	 .4byte 0x391
 1569 04a8 1F       	 .uleb128 0x1f
 1570 04a9 2D000000 	 .4byte 0x2d
 1571 04ad 0D       	 .byte 0xd
 1572 04ae 55       	 .byte 0x55
 1573 04af 68050000 	 .4byte 0x568
 1574 04b3 07       	 .uleb128 0x7
 1575 04b4 C7360000 	 .4byte .LASF88
 1576 04b8 00       	 .byte 0
 1577 04b9 07       	 .uleb128 0x7
 1578 04ba A5240000 	 .4byte .LASF89
 1579 04be 01       	 .byte 0x1
 1580 04bf 07       	 .uleb128 0x7
 1581 04c0 5A3C0000 	 .4byte .LASF90
 1582 04c4 02       	 .byte 0x2
 1583 04c5 07       	 .uleb128 0x7
 1584 04c6 671B0000 	 .4byte .LASF91
ARM GAS   			page 33


 1585 04ca 03       	 .byte 0x3
 1586 04cb 07       	 .uleb128 0x7
 1587 04cc 33160000 	 .4byte .LASF92
 1588 04d0 04       	 .byte 0x4
 1589 04d1 07       	 .uleb128 0x7
 1590 04d2 2D060000 	 .4byte .LASF93
 1591 04d6 05       	 .byte 0x5
 1592 04d7 07       	 .uleb128 0x7
 1593 04d8 B81D0000 	 .4byte .LASF94
 1594 04dc 06       	 .byte 0x6
 1595 04dd 07       	 .uleb128 0x7
 1596 04de F1010000 	 .4byte .LASF95
 1597 04e2 07       	 .byte 0x7
 1598 04e3 07       	 .uleb128 0x7
 1599 04e4 C2380000 	 .4byte .LASF96
 1600 04e8 08       	 .byte 0x8
 1601 04e9 07       	 .uleb128 0x7
 1602 04ea AA050000 	 .4byte .LASF97
 1603 04ee 09       	 .byte 0x9
 1604 04ef 07       	 .uleb128 0x7
 1605 04f0 AC170000 	 .4byte .LASF98
 1606 04f4 0A       	 .byte 0xa
 1607 04f5 07       	 .uleb128 0x7
 1608 04f6 70320000 	 .4byte .LASF99
 1609 04fa 0B       	 .byte 0xb
 1610 04fb 07       	 .uleb128 0x7
 1611 04fc B31E0000 	 .4byte .LASF100
 1612 0500 0C       	 .byte 0xc
 1613 0501 07       	 .uleb128 0x7
 1614 0502 98400000 	 .4byte .LASF101
 1615 0506 0D       	 .byte 0xd
 1616 0507 07       	 .uleb128 0x7
 1617 0508 3D100000 	 .4byte .LASF102
 1618 050c 0E       	 .byte 0xe
 1619 050d 07       	 .uleb128 0x7
 1620 050e 990D0000 	 .4byte .LASF103
 1621 0512 0F       	 .byte 0xf
 1622 0513 07       	 .uleb128 0x7
 1623 0514 27140000 	 .4byte .LASF104
 1624 0518 10       	 .byte 0x10
 1625 0519 07       	 .uleb128 0x7
 1626 051a 05170000 	 .4byte .LASF105
 1627 051e 11       	 .byte 0x11
 1628 051f 07       	 .uleb128 0x7
 1629 0520 222F0000 	 .4byte .LASF106
 1630 0524 12       	 .byte 0x12
 1631 0525 07       	 .uleb128 0x7
 1632 0526 20090000 	 .4byte .LASF107
 1633 052a 13       	 .byte 0x13
 1634 052b 07       	 .uleb128 0x7
 1635 052c 9E440000 	 .4byte .LASF108
 1636 0530 14       	 .byte 0x14
 1637 0531 07       	 .uleb128 0x7
 1638 0532 88290000 	 .4byte .LASF109
 1639 0536 15       	 .byte 0x15
 1640 0537 07       	 .uleb128 0x7
 1641 0538 28070000 	 .4byte .LASF110
ARM GAS   			page 34


 1642 053c 16       	 .byte 0x16
 1643 053d 07       	 .uleb128 0x7
 1644 053e 10280000 	 .4byte .LASF111
 1645 0542 17       	 .byte 0x17
 1646 0543 07       	 .uleb128 0x7
 1647 0544 3E450000 	 .4byte .LASF112
 1648 0548 18       	 .byte 0x18
 1649 0549 07       	 .uleb128 0x7
 1650 054a 16290000 	 .4byte .LASF113
 1651 054e 19       	 .byte 0x19
 1652 054f 07       	 .uleb128 0x7
 1653 0550 B9390000 	 .4byte .LASF114
 1654 0554 1A       	 .byte 0x1a
 1655 0555 07       	 .uleb128 0x7
 1656 0556 423E0000 	 .4byte .LASF115
 1657 055a 1B       	 .byte 0x1b
 1658 055b 07       	 .uleb128 0x7
 1659 055c 442B0000 	 .4byte .LASF116
 1660 0560 1C       	 .byte 0x1c
 1661 0561 07       	 .uleb128 0x7
 1662 0562 10200000 	 .4byte .LASF117
 1663 0566 1D       	 .byte 0x1d
 1664 0567 00       	 .byte 0
 1665 0568 08       	 .uleb128 0x8
 1666 0569 67470000 	 .4byte .LASF118
 1667 056d 0D       	 .byte 0xd
 1668 056e 0501     	 .2byte 0x105
 1669 0570 03       	 .byte 0x3
 1670 0571 A8040000 	 .4byte 0x4a8
 1671 0575 04       	 .uleb128 0x4
 1672 0576 69040000 	 .4byte .LASF119
 1673 057a 0E       	 .byte 0xe
 1674 057b 2A       	 .byte 0x2a
 1675 057c 12       	 .byte 0x12
 1676 057d AB000000 	 .4byte 0xab
 1677 0581 13       	 .uleb128 0x13
 1678 0582 07200000 	 .4byte .LASF120
 1679 0586 10       	 .byte 0x10
 1680 0587 0E       	 .byte 0xe
 1681 0588 2F       	 .byte 0x2f
 1682 0589 08       	 .byte 0x8
 1683 058a A9050000 	 .4byte 0x5a9
 1684 058e 02       	 .uleb128 0x2
 1685 058f A33C0000 	 .4byte .LASF121
 1686 0593 0E       	 .byte 0xe
 1687 0594 30       	 .byte 0x30
 1688 0595 09       	 .byte 0x9
 1689 0596 75050000 	 .4byte 0x575
 1690 059a 00       	 .byte 0
 1691 059b 02       	 .uleb128 0x2
 1692 059c B3430000 	 .4byte .LASF122
 1693 05a0 0E       	 .byte 0xe
 1694 05a1 31       	 .byte 0x31
 1695 05a2 07       	 .byte 0x7
 1696 05a3 6D010000 	 .4byte 0x16d
 1697 05a7 08       	 .byte 0x8
 1698 05a8 00       	 .byte 0
ARM GAS   			page 35


 1699 05a9 20       	 .uleb128 0x20
 1700 05aa 04       	 .byte 0x4
 1701 05ab 0F       	 .byte 0xf
 1702 05ac 55       	 .byte 0x55
 1703 05ad 09       	 .byte 0x9
 1704 05ae CB050000 	 .4byte 0x5cb
 1705 05b2 15       	 .uleb128 0x15
 1706 05b3 76360000 	 .4byte .LASF123
 1707 05b7 0F       	 .byte 0xf
 1708 05b8 57       	 .byte 0x57
 1709 05b9 0F       	 .byte 0xf
 1710 05ba 3F030000 	 .4byte 0x33f
 1711 05be 15       	 .uleb128 0x15
 1712 05bf 230C0000 	 .4byte .LASF124
 1713 05c3 0F       	 .byte 0xf
 1714 05c4 59       	 .byte 0x59
 1715 05c5 0F       	 .byte 0xf
 1716 05c6 91030000 	 .4byte 0x391
 1717 05ca 00       	 .byte 0
 1718 05cb 04       	 .uleb128 0x4
 1719 05cc 24170000 	 .4byte .LASF125
 1720 05d0 0F       	 .byte 0xf
 1721 05d1 5A       	 .byte 0x5a
 1722 05d2 03       	 .byte 0x3
 1723 05d3 A9050000 	 .4byte 0x5a9
 1724 05d7 04       	 .uleb128 0x4
 1725 05d8 2B050000 	 .4byte .LASF126
 1726 05dc 0F       	 .byte 0xf
 1727 05dd 65       	 .byte 0x65
 1728 05de 14       	 .byte 0x14
 1729 05df 91030000 	 .4byte 0x391
 1730 05e3 04       	 .uleb128 0x4
 1731 05e4 F0440000 	 .4byte .LASF127
 1732 05e8 0F       	 .byte 0xf
 1733 05e9 6B       	 .byte 0x6b
 1734 05ea 14       	 .byte 0x14
 1735 05eb 85030000 	 .4byte 0x385
 1736 05ef 1F       	 .uleb128 0x1f
 1737 05f0 2D000000 	 .4byte 0x2d
 1738 05f4 0F       	 .byte 0xf
 1739 05f5 C3       	 .byte 0xc3
 1740 05f6 19060000 	 .4byte 0x619
 1741 05fa 07       	 .uleb128 0x7
 1742 05fb 6C030000 	 .4byte .LASF128
 1743 05ff 00       	 .byte 0
 1744 0600 07       	 .uleb128 0x7
 1745 0601 FF190000 	 .4byte .LASF129
 1746 0605 01       	 .byte 0x1
 1747 0606 07       	 .uleb128 0x7
 1748 0607 263A0000 	 .4byte .LASF130
 1749 060b 02       	 .byte 0x2
 1750 060c 07       	 .uleb128 0x7
 1751 060d 8B1F0000 	 .4byte .LASF131
 1752 0611 03       	 .byte 0x3
 1753 0612 07       	 .uleb128 0x7
 1754 0613 C80B0000 	 .4byte .LASF132
 1755 0617 07       	 .byte 0x7
ARM GAS   			page 36


 1756 0618 00       	 .byte 0
 1757 0619 04       	 .uleb128 0x4
 1758 061a 31170000 	 .4byte .LASF133
 1759 061e 10       	 .byte 0x10
 1760 061f 3B       	 .byte 0x3b
 1761 0620 14       	 .byte 0x14
 1762 0621 91030000 	 .4byte 0x391
 1763 0625 06       	 .uleb128 0x6
 1764 0626 5F4A0000 	 .4byte .LASF134
 1765 062a 10       	 .byte 0x10
 1766 062b 54       	 .byte 0x54
 1767 062c 17       	 .byte 0x17
 1768 062d 9D030000 	 .4byte 0x39d
 1769 0631 06       	 .uleb128 0x6
 1770 0632 79310000 	 .4byte .LASF135
 1771 0636 10       	 .byte 0x10
 1772 0637 5C       	 .byte 0x5c
 1773 0638 17       	 .byte 0x17
 1774 0639 9D030000 	 .4byte 0x39d
 1775 063d 06       	 .uleb128 0x6
 1776 063e 45250000 	 .4byte .LASF136
 1777 0642 10       	 .byte 0x10
 1778 0643 64       	 .byte 0x64
 1779 0644 17       	 .byte 0x17
 1780 0645 9D030000 	 .4byte 0x39d
 1781 0649 04       	 .uleb128 0x4
 1782 064a 4F000000 	 .4byte .LASF137
 1783 064e 11       	 .byte 0x11
 1784 064f 5E       	 .byte 0x5e
 1785 0650 14       	 .byte 0x14
 1786 0651 D7050000 	 .4byte 0x5d7
 1787 0655 04       	 .uleb128 0x4
 1788 0656 66200000 	 .4byte .LASF138
 1789 065a 11       	 .byte 0x11
 1790 065b E2       	 .byte 0xe2
 1791 065c 12       	 .byte 0x12
 1792 065d 91030000 	 .4byte 0x391
 1793 0661 08       	 .uleb128 0x8
 1794 0662 68430000 	 .4byte .LASF139
 1795 0666 11       	 .byte 0x11
 1796 0667 0101     	 .2byte 0x101
 1797 0669 12       	 .byte 0x12
 1798 066a 91030000 	 .4byte 0x391
 1799 066e 09       	 .uleb128 0x9
 1800 066f 08       	 .byte 0x8
 1801 0670 12       	 .byte 0x12
 1802 0671 47       	 .byte 0x47
 1803 0672 09       	 .byte 0x9
 1804 0673 92060000 	 .4byte 0x692
 1805 0677 02       	 .uleb128 0x2
 1806 0678 B3160000 	 .4byte .LASF140
 1807 067c 12       	 .byte 0x12
 1808 067d 49       	 .byte 0x49
 1809 067e 0F       	 .byte 0xf
 1810 067f C3000000 	 .4byte 0xc3
 1811 0683 00       	 .byte 0
 1812 0684 02       	 .uleb128 0x2
ARM GAS   			page 37


 1813 0685 84330000 	 .4byte .LASF141
 1814 0689 12       	 .byte 0x12
 1815 068a 4B       	 .byte 0x4b
 1816 068b 0F       	 .byte 0xf
 1817 068c DB000000 	 .4byte 0xdb
 1818 0690 04       	 .byte 0x4
 1819 0691 00       	 .byte 0
 1820 0692 04       	 .uleb128 0x4
 1821 0693 46130000 	 .4byte .LASF142
 1822 0697 12       	 .byte 0x12
 1823 0698 4C       	 .byte 0x4c
 1824 0699 05       	 .byte 0x5
 1825 069a 6E060000 	 .4byte 0x66e
 1826 069e 05       	 .uleb128 0x5
 1827 069f A3060000 	 .4byte 0x6a3
 1828 06a3 0E       	 .uleb128 0xe
 1829 06a4 AE060000 	 .4byte 0x6ae
 1830 06a8 01       	 .uleb128 0x1
 1831 06a9 DB000000 	 .4byte 0xdb
 1832 06ad 00       	 .byte 0
 1833 06ae 04       	 .uleb128 0x4
 1834 06af 400A0000 	 .4byte .LASF143
 1835 06b3 12       	 .byte 0x12
 1836 06b4 79       	 .byte 0x79
 1837 06b5 12       	 .byte 0x12
 1838 06b6 BF060000 	 .4byte 0x6bf
 1839 06ba 0B       	 .uleb128 0xb
 1840 06bb AE060000 	 .4byte 0x6ae
 1841 06bf 05       	 .uleb128 0x5
 1842 06c0 C4060000 	 .4byte 0x6c4
 1843 06c4 0C       	 .uleb128 0xc
 1844 06c5 DB000000 	 .4byte 0xdb
 1845 06c9 D8060000 	 .4byte 0x6d8
 1846 06cd 01       	 .uleb128 0x1
 1847 06ce 91030000 	 .4byte 0x391
 1848 06d2 01       	 .uleb128 0x1
 1849 06d3 D8060000 	 .4byte 0x6d8
 1850 06d7 00       	 .byte 0
 1851 06d8 05       	 .uleb128 0x5
 1852 06d9 C3000000 	 .4byte 0xc3
 1853 06dd 06       	 .uleb128 0x6
 1854 06de 59350000 	 .4byte .LASF144
 1855 06e2 12       	 .byte 0x12
 1856 06e3 83       	 .byte 0x83
 1857 06e4 11       	 .byte 0x11
 1858 06e5 91030000 	 .4byte 0x391
 1859 06e9 06       	 .uleb128 0x6
 1860 06ea 3C3D0000 	 .4byte .LASF145
 1861 06ee 12       	 .byte 0x12
 1862 06ef 8A       	 .byte 0x8a
 1863 06f0 18       	 .byte 0x18
 1864 06f1 CB030000 	 .4byte 0x3cb
 1865 06f5 1A       	 .uleb128 0x1a
 1866 06f6 01       	 .byte 0x1
 1867 06f7 02       	 .byte 0x2
 1868 06f8 74020000 	 .4byte .LASF146
 1869 06fc 30       	 .uleb128 0x30
ARM GAS   			page 38


 1870 06fd F5060000 	 .4byte 0x6f5
 1871 0701 0A       	 .uleb128 0xa
 1872 0702 44030000 	 .4byte 0x344
 1873 0706 0C070000 	 .4byte 0x70c
 1874 070a 1C       	 .uleb128 0x1c
 1875 070b 00       	 .byte 0
 1876 070c 06       	 .uleb128 0x6
 1877 070d 700A0000 	 .4byte .LASF147
 1878 0711 12       	 .byte 0x12
 1879 0712 E8       	 .byte 0xe8
 1880 0713 03       	 .byte 0x3
 1881 0714 BA060000 	 .4byte 0x6ba
 1882 0718 04       	 .uleb128 0x4
 1883 0719 8C2D0000 	 .4byte .LASF148
 1884 071d 13       	 .byte 0x13
 1885 071e 64       	 .byte 0x64
 1886 071f 17       	 .byte 0x17
 1887 0720 8F040000 	 .4byte 0x48f
 1888 0724 04       	 .uleb128 0x4
 1889 0725 8D1A0000 	 .4byte .LASF149
 1890 0729 13       	 .byte 0x13
 1891 072a EF       	 .byte 0xef
 1892 072b 17       	 .byte 0x17
 1893 072c 30070000 	 .4byte 0x730
 1894 0730 05       	 .uleb128 0x5
 1895 0731 35070000 	 .4byte 0x735
 1896 0735 0E       	 .uleb128 0xe
 1897 0736 40070000 	 .4byte 0x740
 1898 073a 01       	 .uleb128 0x1
 1899 073b 18070000 	 .4byte 0x718
 1900 073f 00       	 .byte 0
 1901 0740 09       	 .uleb128 0x9
 1902 0741 1C       	 .byte 0x1c
 1903 0742 13       	 .byte 0x13
 1904 0743 F9       	 .byte 0xf9
 1905 0744 09       	 .byte 0x9
 1906 0745 AB070000 	 .4byte 0x7ab
 1907 0749 02       	 .uleb128 0x2
 1908 074a 5B220000 	 .4byte .LASF150
 1909 074e 13       	 .byte 0x13
 1910 074f FD       	 .byte 0xfd
 1911 0750 0E       	 .byte 0xe
 1912 0751 55060000 	 .4byte 0x655
 1913 0755 00       	 .byte 0
 1914 0756 03       	 .uleb128 0x3
 1915 0757 D12A0000 	 .4byte .LASF151
 1916 075b 13       	 .byte 0x13
 1917 075c 0201     	 .2byte 0x102
 1918 075e 0A       	 .byte 0xa
 1919 075f C3000000 	 .4byte 0xc3
 1920 0763 04       	 .byte 0x4
 1921 0764 03       	 .uleb128 0x3
 1922 0765 470C0000 	 .4byte .LASF152
 1923 0769 13       	 .byte 0x13
 1924 076a 0701     	 .2byte 0x107
 1925 076c 17       	 .byte 0x17
 1926 076d 61060000 	 .4byte 0x661
ARM GAS   			page 39


 1927 0771 08       	 .byte 0x8
 1928 0772 03       	 .uleb128 0x3
 1929 0773 240B0000 	 .4byte .LASF153
 1930 0777 13       	 .byte 0x13
 1931 0778 0C01     	 .2byte 0x10c
 1932 077a 13       	 .byte 0x13
 1933 077b D0030000 	 .4byte 0x3d0
 1934 077f 0C       	 .byte 0xc
 1935 0780 03       	 .uleb128 0x3
 1936 0781 88070000 	 .4byte .LASF154
 1937 0785 13       	 .byte 0x13
 1938 0786 1101     	 .2byte 0x111
 1939 0788 14       	 .byte 0x14
 1940 0789 24070000 	 .4byte 0x724
 1941 078d 10       	 .byte 0x10
 1942 078e 03       	 .uleb128 0x3
 1943 078f 18030000 	 .4byte .LASF155
 1944 0793 13       	 .byte 0x13
 1945 0794 1601     	 .2byte 0x116
 1946 0796 0E       	 .byte 0xe
 1947 0797 9C040000 	 .4byte 0x49c
 1948 079b 14       	 .byte 0x14
 1949 079c 03       	 .uleb128 0x3
 1950 079d E7440000 	 .4byte .LASF156
 1951 07a1 13       	 .byte 0x13
 1952 07a2 1B01     	 .2byte 0x11b
 1953 07a4 17       	 .byte 0x17
 1954 07a5 18070000 	 .4byte 0x718
 1955 07a9 18       	 .byte 0x18
 1956 07aa 00       	 .byte 0
 1957 07ab 08       	 .uleb128 0x8
 1958 07ac 75060000 	 .4byte .LASF157
 1959 07b0 13       	 .byte 0x13
 1960 07b1 1C01     	 .2byte 0x11c
 1961 07b3 03       	 .byte 0x3
 1962 07b4 40070000 	 .4byte 0x740
 1963 07b8 0B       	 .uleb128 0xb
 1964 07b9 AB070000 	 .4byte 0x7ab
 1965 07bd 08       	 .uleb128 0x8
 1966 07be 8A300000 	 .4byte .LASF158
 1967 07c2 13       	 .byte 0x13
 1968 07c3 9001     	 .2byte 0x190
 1969 07c5 20       	 .byte 0x20
 1970 07c6 CC010000 	 .4byte 0x1cc
 1971 07ca 0B       	 .uleb128 0xb
 1972 07cb BD070000 	 .4byte 0x7bd
 1973 07cf 05       	 .uleb128 0x5
 1974 07d0 BD070000 	 .4byte 0x7bd
 1975 07d4 04       	 .uleb128 0x4
 1976 07d5 2C390000 	 .4byte .LASF159
 1977 07d9 14       	 .byte 0x14
 1978 07da 3C       	 .byte 0x3c
 1979 07db 14       	 .byte 0x14
 1980 07dc 91030000 	 .4byte 0x391
 1981 07e0 06       	 .uleb128 0x6
 1982 07e1 553A0000 	 .4byte .LASF160
 1983 07e5 15       	 .byte 0x15
ARM GAS   			page 40


 1984 07e6 7F       	 .byte 0x7f
 1985 07e7 0D       	 .byte 0xd
 1986 07e8 01070000 	 .4byte 0x701
 1987 07ec 06       	 .uleb128 0x6
 1988 07ed E8240000 	 .4byte .LASF161
 1989 07f1 16       	 .byte 0x16
 1990 07f2 3B       	 .byte 0x3b
 1991 07f3 15       	 .byte 0x15
 1992 07f4 CF000000 	 .4byte 0xcf
 1993 07f8 05       	 .uleb128 0x5
 1994 07f9 FD070000 	 .4byte 0x7fd
 1995 07fd 0C       	 .uleb128 0xc
 1996 07fe DB000000 	 .4byte 0xdb
 1997 0802 0C080000 	 .4byte 0x80c
 1998 0806 01       	 .uleb128 0x1
 1999 0807 BF030000 	 .4byte 0x3bf
 2000 080b 00       	 .byte 0
 2001 080c 1F       	 .uleb128 0x1f
 2002 080d 2D000000 	 .4byte 0x2d
 2003 0811 17       	 .byte 0x17
 2004 0812 3F       	 .byte 0x3f
 2005 0813 7B080000 	 .4byte 0x87b
 2006 0817 07       	 .uleb128 0x7
 2007 0818 E3180000 	 .4byte .LASF162
 2008 081c 00       	 .byte 0
 2009 081d 07       	 .uleb128 0x7
 2010 081e E50E0000 	 .4byte .LASF163
 2011 0822 01       	 .byte 0x1
 2012 0823 07       	 .uleb128 0x7
 2013 0824 21120000 	 .4byte .LASF164
 2014 0828 02       	 .byte 0x2
 2015 0829 07       	 .uleb128 0x7
 2016 082a 0D3F0000 	 .4byte .LASF165
 2017 082e 03       	 .byte 0x3
 2018 082f 07       	 .uleb128 0x7
 2019 0830 083C0000 	 .4byte .LASF166
 2020 0834 04       	 .byte 0x4
 2021 0835 07       	 .uleb128 0x7
 2022 0836 F81A0000 	 .4byte .LASF167
 2023 083a 05       	 .byte 0x5
 2024 083b 07       	 .uleb128 0x7
 2025 083c 66270000 	 .4byte .LASF168
 2026 0840 06       	 .byte 0x6
 2027 0841 07       	 .uleb128 0x7
 2028 0842 8E180000 	 .4byte .LASF169
 2029 0846 07       	 .byte 0x7
 2030 0847 07       	 .uleb128 0x7
 2031 0848 9E370000 	 .4byte .LASF170
 2032 084c 08       	 .byte 0x8
 2033 084d 07       	 .uleb128 0x7
 2034 084e AB0B0000 	 .4byte .LASF171
 2035 0852 09       	 .byte 0x9
 2036 0853 07       	 .uleb128 0x7
 2037 0854 CE070000 	 .4byte .LASF172
 2038 0858 0A       	 .byte 0xa
 2039 0859 07       	 .uleb128 0x7
 2040 085a C6350000 	 .4byte .LASF173
ARM GAS   			page 41


 2041 085e 0B       	 .byte 0xb
 2042 085f 07       	 .uleb128 0x7
 2043 0860 59280000 	 .4byte .LASF174
 2044 0864 0C       	 .byte 0xc
 2045 0865 07       	 .uleb128 0x7
 2046 0866 B93E0000 	 .4byte .LASF175
 2047 086a 0D       	 .byte 0xd
 2048 086b 07       	 .uleb128 0x7
 2049 086c 9F420000 	 .4byte .LASF176
 2050 0870 0E       	 .byte 0xe
 2051 0871 3C       	 .uleb128 0x3c
 2052 0872 D6300000 	 .4byte .LASF177
 2053 0876 FFFFFF7F 	 .4byte 0x7fffffff
 2054 087a 00       	 .byte 0
 2055 087b 04       	 .uleb128 0x4
 2056 087c 3F240000 	 .4byte .LASF178
 2057 0880 17       	 .byte 0x17
 2058 0881 B3       	 .byte 0xb3
 2059 0882 03       	 .byte 0x3
 2060 0883 0C080000 	 .4byte 0x80c
 2061 0887 04       	 .uleb128 0x4
 2062 0888 7A2D0000 	 .4byte .LASF179
 2063 088c 17       	 .byte 0x17
 2064 088d EE       	 .byte 0xee
 2065 088e 17       	 .byte 0x17
 2066 088f 8F040000 	 .4byte 0x48f
 2067 0893 04       	 .uleb128 0x4
 2068 0894 11400000 	 .4byte .LASF180
 2069 0898 18       	 .byte 0x18
 2070 0899 5C       	 .byte 0x5c
 2071 089a 11       	 .byte 0x11
 2072 089b 9F080000 	 .4byte 0x89f
 2073 089f 05       	 .uleb128 0x5
 2074 08a0 A4080000 	 .4byte 0x8a4
 2075 08a4 0C       	 .uleb128 0xc
 2076 08a5 F5060000 	 .4byte 0x6f5
 2077 08a9 B8080000 	 .4byte 0x8b8
 2078 08ad 01       	 .uleb128 0x1
 2079 08ae 3A030000 	 .4byte 0x33a
 2080 08b2 01       	 .uleb128 0x1
 2081 08b3 3A030000 	 .4byte 0x33a
 2082 08b7 00       	 .byte 0
 2083 08b8 04       	 .uleb128 0x4
 2084 08b9 033B0000 	 .4byte .LASF181
 2085 08bd 18       	 .byte 0x18
 2086 08be 70       	 .byte 0x70
 2087 08bf 10       	 .byte 0x10
 2088 08c0 C4080000 	 .4byte 0x8c4
 2089 08c4 05       	 .uleb128 0x5
 2090 08c5 C9080000 	 .4byte 0x8c9
 2091 08c9 0E       	 .uleb128 0xe
 2092 08ca D9080000 	 .4byte 0x8d9
 2093 08ce 01       	 .uleb128 0x1
 2094 08cf 3A030000 	 .4byte 0x33a
 2095 08d3 01       	 .uleb128 0x1
 2096 08d4 3A030000 	 .4byte 0x33a
 2097 08d8 00       	 .byte 0
ARM GAS   			page 42


 2098 08d9 04       	 .uleb128 0x4
 2099 08da 61290000 	 .4byte .LASF182
 2100 08de 18       	 .byte 0x18
 2101 08df 84       	 .byte 0x84
 2102 08e0 10       	 .byte 0x10
 2103 08e1 C4080000 	 .4byte 0x8c4
 2104 08e5 04       	 .uleb128 0x4
 2105 08e6 79470000 	 .4byte .LASF183
 2106 08ea 18       	 .byte 0x18
 2107 08eb 9A       	 .byte 0x9a
 2108 08ec 10       	 .byte 0x10
 2109 08ed C4080000 	 .4byte 0x8c4
 2110 08f1 04       	 .uleb128 0x4
 2111 08f2 BE310000 	 .4byte .LASF184
 2112 08f6 18       	 .byte 0x18
 2113 08f7 B1       	 .byte 0xb1
 2114 08f8 10       	 .byte 0x10
 2115 08f9 C4080000 	 .4byte 0x8c4
 2116 08fd 04       	 .uleb128 0x4
 2117 08fe 320B0000 	 .4byte .LASF185
 2118 0902 18       	 .byte 0x18
 2119 0903 C0       	 .byte 0xc0
 2120 0904 10       	 .byte 0x10
 2121 0905 09090000 	 .4byte 0x909
 2122 0909 05       	 .uleb128 0x5
 2123 090a 0E090000 	 .4byte 0x90e
 2124 090e 0E       	 .uleb128 0xe
 2125 090f 19090000 	 .4byte 0x919
 2126 0913 01       	 .uleb128 0x1
 2127 0914 3A030000 	 .4byte 0x33a
 2128 0918 00       	 .byte 0
 2129 0919 04       	 .uleb128 0x4
 2130 091a EE300000 	 .4byte .LASF186
 2131 091e 18       	 .byte 0x18
 2132 091f CE       	 .byte 0xce
 2133 0920 10       	 .byte 0x10
 2134 0921 09090000 	 .4byte 0x909
 2135 0925 04       	 .uleb128 0x4
 2136 0926 64420000 	 .4byte .LASF187
 2137 092a 18       	 .byte 0x18
 2138 092b E0       	 .byte 0xe0
 2139 092c 10       	 .byte 0x10
 2140 092d 31090000 	 .4byte 0x931
 2141 0931 05       	 .uleb128 0x5
 2142 0932 36090000 	 .4byte 0x936
 2143 0936 0E       	 .uleb128 0xe
 2144 0937 4B090000 	 .4byte 0x94b
 2145 093b 01       	 .uleb128 0x1
 2146 093c 7B080000 	 .4byte 0x87b
 2147 0940 01       	 .uleb128 0x1
 2148 0941 F5060000 	 .4byte 0x6f5
 2149 0945 01       	 .uleb128 0x1
 2150 0946 87080000 	 .4byte 0x887
 2151 094a 00       	 .byte 0
 2152 094b 04       	 .uleb128 0x4
 2153 094c 7A240000 	 .4byte .LASF188
 2154 0950 18       	 .byte 0x18
ARM GAS   			page 43


 2155 0951 F6       	 .byte 0xf6
 2156 0952 10       	 .byte 0x10
 2157 0953 09090000 	 .4byte 0x909
 2158 0957 09       	 .uleb128 0x9
 2159 0958 24       	 .byte 0x24
 2160 0959 18       	 .byte 0x18
 2161 095a FD       	 .byte 0xfd
 2162 095b 09       	 .byte 0x9
 2163 095c DD090000 	 .4byte 0x9dd
 2164 0960 02       	 .uleb128 0x2
 2165 0961 921D0000 	 .4byte .LASF189
 2166 0965 18       	 .byte 0x18
 2167 0966 FE       	 .byte 0xfe
 2168 0967 2C       	 .byte 0x2c
 2169 0968 93080000 	 .4byte 0x893
 2170 096c 00       	 .byte 0
 2171 096d 02       	 .uleb128 0x2
 2172 096e CA440000 	 .4byte .LASF190
 2173 0972 18       	 .byte 0x18
 2174 0973 FF       	 .byte 0xff
 2175 0974 2C       	 .byte 0x2c
 2176 0975 D9080000 	 .4byte 0x8d9
 2177 0979 04       	 .byte 0x4
 2178 097a 03       	 .uleb128 0x3
 2179 097b 750D0000 	 .4byte .LASF191
 2180 097f 18       	 .byte 0x18
 2181 0980 0001     	 .2byte 0x100
 2182 0982 2C       	 .byte 0x2c
 2183 0983 E5080000 	 .4byte 0x8e5
 2184 0987 08       	 .byte 0x8
 2185 0988 03       	 .uleb128 0x3
 2186 0989 D7050000 	 .4byte .LASF192
 2187 098d 18       	 .byte 0x18
 2188 098e 0101     	 .2byte 0x101
 2189 0990 2C       	 .byte 0x2c
 2190 0991 B8080000 	 .4byte 0x8b8
 2191 0995 0C       	 .byte 0xc
 2192 0996 03       	 .uleb128 0x3
 2193 0997 62440000 	 .4byte .LASF193
 2194 099b 18       	 .byte 0x18
 2195 099c 0201     	 .2byte 0x102
 2196 099e 2C       	 .byte 0x2c
 2197 099f F1080000 	 .4byte 0x8f1
 2198 09a3 10       	 .byte 0x10
 2199 09a4 03       	 .uleb128 0x3
 2200 09a5 1F390000 	 .4byte .LASF194
 2201 09a9 18       	 .byte 0x18
 2202 09aa 0301     	 .2byte 0x103
 2203 09ac 2C       	 .byte 0x2c
 2204 09ad FD080000 	 .4byte 0x8fd
 2205 09b1 14       	 .byte 0x14
 2206 09b2 03       	 .uleb128 0x3
 2207 09b3 DF3B0000 	 .4byte .LASF195
 2208 09b7 18       	 .byte 0x18
 2209 09b8 0401     	 .2byte 0x104
 2210 09ba 2C       	 .byte 0x2c
 2211 09bb 19090000 	 .4byte 0x919
ARM GAS   			page 44


 2212 09bf 18       	 .byte 0x18
 2213 09c0 03       	 .uleb128 0x3
 2214 09c1 E5390000 	 .4byte .LASF196
 2215 09c5 18       	 .byte 0x18
 2216 09c6 0501     	 .2byte 0x105
 2217 09c8 2C       	 .byte 0x2c
 2218 09c9 25090000 	 .4byte 0x925
 2219 09cd 1C       	 .byte 0x1c
 2220 09ce 03       	 .uleb128 0x3
 2221 09cf DC3A0000 	 .4byte .LASF197
 2222 09d3 18       	 .byte 0x18
 2223 09d4 0601     	 .2byte 0x106
 2224 09d6 2E       	 .byte 0x2e
 2225 09d7 4B090000 	 .4byte 0x94b
 2226 09db 20       	 .byte 0x20
 2227 09dc 00       	 .byte 0
 2228 09dd 08       	 .uleb128 0x8
 2229 09de 3D0D0000 	 .4byte .LASF198
 2230 09e2 18       	 .byte 0x18
 2231 09e3 0701     	 .2byte 0x107
 2232 09e5 05       	 .byte 0x5
 2233 09e6 57090000 	 .4byte 0x957
 2234 09ea 0B       	 .uleb128 0xb
 2235 09eb DD090000 	 .4byte 0x9dd
 2236 09ef 13       	 .uleb128 0x13
 2237 09f0 BE330000 	 .4byte .LASF199
 2238 09f4 08       	 .byte 0x8
 2239 09f5 19       	 .byte 0x19
 2240 09f6 4E       	 .byte 0x4e
 2241 09f7 10       	 .byte 0x10
 2242 09f8 170A0000 	 .4byte 0xa17
 2243 09fc 02       	 .uleb128 0x2
 2244 09fd 7F040000 	 .4byte .LASF200
 2245 0a01 19       	 .byte 0x19
 2246 0a02 50       	 .byte 0x50
 2247 0a03 16       	 .byte 0x16
 2248 0a04 170A0000 	 .4byte 0xa17
 2249 0a08 00       	 .byte 0
 2250 0a09 02       	 .uleb128 0x2
 2251 0a0a AE0C0000 	 .4byte .LASF201
 2252 0a0e 19       	 .byte 0x19
 2253 0a0f 52       	 .byte 0x52
 2254 0a10 16       	 .byte 0x16
 2255 0a11 170A0000 	 .4byte 0xa17
 2256 0a15 04       	 .byte 0x4
 2257 0a16 00       	 .byte 0
 2258 0a17 05       	 .uleb128 0x5
 2259 0a18 EF090000 	 .4byte 0x9ef
 2260 0a1c 04       	 .uleb128 0x4
 2261 0a1d BE330000 	 .4byte .LASF199
 2262 0a21 19       	 .byte 0x19
 2263 0a22 53       	 .byte 0x53
 2264 0a23 03       	 .byte 0x3
 2265 0a24 EF090000 	 .4byte 0x9ef
 2266 0a28 09       	 .uleb128 0x9
 2267 0a29 0C       	 .byte 0xc
 2268 0a2a 19       	 .byte 0x19
ARM GAS   			page 45


 2269 0a2b 61       	 .byte 0x61
 2270 0a2c 03       	 .byte 0x3
 2271 0a2d 4C0A0000 	 .4byte 0xa4c
 2272 0a31 02       	 .uleb128 0x2
 2273 0a32 40120000 	 .4byte .LASF202
 2274 0a36 19       	 .byte 0x19
 2275 0a37 62       	 .byte 0x62
 2276 0a38 10       	 .byte 0x10
 2277 0a39 1C0A0000 	 .4byte 0xa1c
 2278 0a3d 00       	 .byte 0
 2279 0a3e 02       	 .uleb128 0x2
 2280 0a3f 2E1C0000 	 .4byte .LASF203
 2281 0a43 19       	 .byte 0x19
 2282 0a44 63       	 .byte 0x63
 2283 0a45 11       	 .byte 0x11
 2284 0a46 4C0A0000 	 .4byte 0xa4c
 2285 0a4a 08       	 .byte 0x8
 2286 0a4b 00       	 .byte 0
 2287 0a4c 05       	 .uleb128 0x5
 2288 0a4d 1C0A0000 	 .4byte 0xa1c
 2289 0a51 09       	 .uleb128 0x9
 2290 0a52 0C       	 .byte 0xc
 2291 0a53 19       	 .byte 0x19
 2292 0a54 66       	 .byte 0x66
 2293 0a55 03       	 .byte 0x3
 2294 0a56 750A0000 	 .4byte 0xa75
 2295 0a5a 02       	 .uleb128 0x2
 2296 0a5b 2E1C0000 	 .4byte .LASF203
 2297 0a5f 19       	 .byte 0x19
 2298 0a60 67       	 .byte 0x67
 2299 0a61 11       	 .byte 0x11
 2300 0a62 4C0A0000 	 .4byte 0xa4c
 2301 0a66 00       	 .byte 0
 2302 0a67 02       	 .uleb128 0x2
 2303 0a68 40120000 	 .4byte .LASF202
 2304 0a6c 19       	 .byte 0x19
 2305 0a6d 68       	 .byte 0x68
 2306 0a6e 10       	 .byte 0x10
 2307 0a6f 1C0A0000 	 .4byte 0xa1c
 2308 0a73 04       	 .byte 0x4
 2309 0a74 00       	 .byte 0
 2310 0a75 20       	 .uleb128 0x20
 2311 0a76 0C       	 .byte 0xc
 2312 0a77 19       	 .byte 0x19
 2313 0a78 60       	 .byte 0x60
 2314 0a79 09       	 .byte 0x9
 2315 0a7a 970A0000 	 .4byte 0xa97
 2316 0a7e 15       	 .uleb128 0x15
 2317 0a7f B4180000 	 .4byte .LASF204
 2318 0a83 19       	 .byte 0x19
 2319 0a84 64       	 .byte 0x64
 2320 0a85 05       	 .byte 0x5
 2321 0a86 280A0000 	 .4byte 0xa28
 2322 0a8a 15       	 .uleb128 0x15
 2323 0a8b 9A420000 	 .4byte .LASF205
 2324 0a8f 19       	 .byte 0x19
 2325 0a90 69       	 .byte 0x69
ARM GAS   			page 46


 2326 0a91 05       	 .byte 0x5
 2327 0a92 510A0000 	 .4byte 0xa51
 2328 0a96 00       	 .byte 0
 2329 0a97 04       	 .uleb128 0x4
 2330 0a98 A1320000 	 .4byte .LASF206
 2331 0a9c 19       	 .byte 0x19
 2332 0a9d 6A       	 .byte 0x6a
 2333 0a9e 03       	 .byte 0x3
 2334 0a9f 750A0000 	 .4byte 0xa75
 2335 0aa3 09       	 .uleb128 0x9
 2336 0aa4 0C       	 .byte 0xc
 2337 0aa5 1A       	 .byte 0x1a
 2338 0aa6 3D       	 .byte 0x3d
 2339 0aa7 09       	 .byte 0x9
 2340 0aa8 C70A0000 	 .4byte 0xac7
 2341 0aac 02       	 .uleb128 0x2
 2342 0aad 40120000 	 .4byte .LASF202
 2343 0ab1 1A       	 .byte 0x1a
 2344 0ab2 3E       	 .byte 0x3e
 2345 0ab3 2B       	 .byte 0x2b
 2346 0ab4 1C0A0000 	 .4byte 0xa1c
 2347 0ab8 00       	 .byte 0
 2348 0ab9 02       	 .uleb128 0x2
 2349 0aba 62440000 	 .4byte .LASF193
 2350 0abe 1A       	 .byte 0x1a
 2351 0abf 3F       	 .byte 0x3f
 2352 0ac0 2B       	 .byte 0x2b
 2353 0ac1 F1080000 	 .4byte 0x8f1
 2354 0ac5 08       	 .byte 0x8
 2355 0ac6 00       	 .byte 0
 2356 0ac7 04       	 .uleb128 0x4
 2357 0ac8 010A0000 	 .4byte .LASF207
 2358 0acc 1A       	 .byte 0x1a
 2359 0acd 40       	 .byte 0x40
 2360 0ace 05       	 .byte 0x5
 2361 0acf A30A0000 	 .4byte 0xaa3
 2362 0ad3 09       	 .uleb128 0x9
 2363 0ad4 38       	 .byte 0x38
 2364 0ad5 1A       	 .byte 0x1a
 2365 0ad6 48       	 .byte 0x48
 2366 0ad7 09       	 .byte 0x9
 2367 0ad8 040B0000 	 .4byte 0xb04
 2368 0adc 02       	 .uleb128 0x2
 2369 0add 40120000 	 .4byte .LASF202
 2370 0ae1 1A       	 .byte 0x1a
 2371 0ae2 49       	 .byte 0x49
 2372 0ae3 22       	 .byte 0x22
 2373 0ae4 1C0A0000 	 .4byte 0xa1c
 2374 0ae8 00       	 .byte 0
 2375 0ae9 02       	 .uleb128 0x2
 2376 0aea 45280000 	 .4byte .LASF208
 2377 0aee 1A       	 .byte 0x1a
 2378 0aef 4A       	 .byte 0x4a
 2379 0af0 22       	 .byte 0x22
 2380 0af1 C70A0000 	 .4byte 0xac7
 2381 0af5 08       	 .byte 0x8
 2382 0af6 02       	 .uleb128 0x2
ARM GAS   			page 47


 2383 0af7 9B290000 	 .4byte .LASF209
 2384 0afb 1A       	 .byte 0x1a
 2385 0afc 4B       	 .byte 0x4b
 2386 0afd 22       	 .byte 0x22
 2387 0afe DD090000 	 .4byte 0x9dd
 2388 0b02 14       	 .byte 0x14
 2389 0b03 00       	 .byte 0
 2390 0b04 04       	 .uleb128 0x4
 2391 0b05 86440000 	 .4byte .LASF210
 2392 0b09 1A       	 .byte 0x1a
 2393 0b0a 4C       	 .byte 0x4c
 2394 0b0b 05       	 .byte 0x5
 2395 0b0c D30A0000 	 .4byte 0xad3
 2396 0b10 06       	 .uleb128 0x6
 2397 0b11 512A0000 	 .4byte .LASF211
 2398 0b15 1A       	 .byte 0x1a
 2399 0b16 53       	 .byte 0x53
 2400 0b17 15       	 .byte 0x15
 2401 0b18 CF000000 	 .4byte 0xcf
 2402 0b1c 0A       	 .uleb128 0xa
 2403 0b1d EA090000 	 .4byte 0x9ea
 2404 0b21 270B0000 	 .4byte 0xb27
 2405 0b25 1C       	 .uleb128 0x1c
 2406 0b26 00       	 .byte 0
 2407 0b27 0B       	 .uleb128 0xb
 2408 0b28 1C0B0000 	 .4byte 0xb1c
 2409 0b2c 06       	 .uleb128 0x6
 2410 0b2d C0060000 	 .4byte .LASF212
 2411 0b31 1A       	 .byte 0x1a
 2412 0b32 5A       	 .byte 0x5a
 2413 0b33 24       	 .byte 0x24
 2414 0b34 270B0000 	 .4byte 0xb27
 2415 0b38 0A       	 .uleb128 0xa
 2416 0b39 C70A0000 	 .4byte 0xac7
 2417 0b3d 430B0000 	 .4byte 0xb43
 2418 0b41 1C       	 .uleb128 0x1c
 2419 0b42 00       	 .byte 0
 2420 0b43 06       	 .uleb128 0x6
 2421 0b44 E7400000 	 .4byte .LASF213
 2422 0b48 1A       	 .byte 0x1a
 2423 0b49 62       	 .byte 0x62
 2424 0b4a 03       	 .byte 0x3
 2425 0b4b 380B0000 	 .4byte 0xb38
 2426 0b4f 06       	 .uleb128 0x6
 2427 0b50 58490000 	 .4byte .LASF214
 2428 0b54 1B       	 .byte 0x1b
 2429 0b55 45       	 .byte 0x45
 2430 0b56 18       	 .byte 0x18
 2431 0b57 CB030000 	 .4byte 0x3cb
 2432 0b5b 04       	 .uleb128 0x4
 2433 0b5c C33D0000 	 .4byte .LASF215
 2434 0b60 1C       	 .byte 0x1c
 2435 0b61 A2       	 .byte 0xa2
 2436 0b62 1B       	 .byte 0x1b
 2437 0b63 87080000 	 .4byte 0x887
 2438 0b67 04       	 .uleb128 0x4
 2439 0b68 55430000 	 .4byte .LASF216
ARM GAS   			page 48


 2440 0b6c 1C       	 .byte 0x1c
 2441 0b6d AF       	 .byte 0xaf
 2442 0b6e 20       	 .byte 0x20
 2443 0b6f 7B080000 	 .4byte 0x87b
 2444 0b73 04       	 .uleb128 0x4
 2445 0b74 553B0000 	 .4byte .LASF217
 2446 0b78 1D       	 .byte 0x1d
 2447 0b79 5A       	 .byte 0x5a
 2448 0b7a 1B       	 .byte 0x1b
 2449 0b7b 68050000 	 .4byte 0x568
 2450 0b7f 04       	 .uleb128 0x4
 2451 0b80 C60C0000 	 .4byte .LASF218
 2452 0b84 1D       	 .byte 0x1d
 2453 0b85 67       	 .byte 0x67
 2454 0b86 12       	 .byte 0x12
 2455 0b87 91030000 	 .4byte 0x391
 2456 0b8b 04       	 .uleb128 0x4
 2457 0b8c D5150000 	 .4byte .LASF219
 2458 0b90 1D       	 .byte 0x1d
 2459 0b91 73       	 .byte 0x73
 2460 0b92 12       	 .byte 0x12
 2461 0b93 91030000 	 .4byte 0x391
 2462 0b97 04       	 .uleb128 0x4
 2463 0b98 6C3D0000 	 .4byte .LASF220
 2464 0b9c 1D       	 .byte 0x1d
 2465 0b9d 7C       	 .byte 0x7c
 2466 0b9e 20       	 .byte 0x20
 2467 0b9f A30B0000 	 .4byte 0xba3
 2468 0ba3 05       	 .uleb128 0x5
 2469 0ba4 A80B0000 	 .4byte 0xba8
 2470 0ba8 0C       	 .uleb128 0xc
 2471 0ba9 730B0000 	 .4byte 0xb73
 2472 0bad C10B0000 	 .4byte 0xbc1
 2473 0bb1 01       	 .uleb128 0x1
 2474 0bb2 7F0B0000 	 .4byte 0xb7f
 2475 0bb6 01       	 .uleb128 0x1
 2476 0bb7 8B0B0000 	 .4byte 0xb8b
 2477 0bbb 01       	 .uleb128 0x1
 2478 0bbc DB000000 	 .4byte 0xdb
 2479 0bc0 00       	 .byte 0
 2480 0bc1 09       	 .uleb128 0x9
 2481 0bc2 18       	 .byte 0x18
 2482 0bc3 1D       	 .byte 0x1d
 2483 0bc4 8C       	 .byte 0x8c
 2484 0bc5 09       	 .byte 0x9
 2485 0bc6 190C0000 	 .4byte 0xc19
 2486 0bca 02       	 .uleb128 0x2
 2487 0bcb 033A0000 	 .4byte .LASF221
 2488 0bcf 1D       	 .byte 0x1d
 2489 0bd0 92       	 .byte 0x92
 2490 0bd1 1D       	 .byte 0x1d
 2491 0bd2 970B0000 	 .4byte 0xb97
 2492 0bd6 00       	 .byte 0
 2493 0bd7 02       	 .uleb128 0x2
 2494 0bd8 ED280000 	 .4byte .LASF222
 2495 0bdc 1D       	 .byte 0x1d
 2496 0bdd 99       	 .byte 0x99
ARM GAS   			page 49


 2497 0bde 1D       	 .byte 0x1d
 2498 0bdf 970B0000 	 .4byte 0xb97
 2499 0be3 04       	 .byte 0x4
 2500 0be4 02       	 .uleb128 0x2
 2501 0be5 27470000 	 .4byte .LASF223
 2502 0be9 1D       	 .byte 0x1d
 2503 0bea A0       	 .byte 0xa0
 2504 0beb 1D       	 .byte 0x1d
 2505 0bec 970B0000 	 .4byte 0xb97
 2506 0bf0 08       	 .byte 0x8
 2507 0bf1 02       	 .uleb128 0x2
 2508 0bf2 D31F0000 	 .4byte .LASF224
 2509 0bf6 1D       	 .byte 0x1d
 2510 0bf7 A7       	 .byte 0xa7
 2511 0bf8 1D       	 .byte 0x1d
 2512 0bf9 970B0000 	 .4byte 0xb97
 2513 0bfd 0C       	 .byte 0xc
 2514 0bfe 02       	 .uleb128 0x2
 2515 0bff 46220000 	 .4byte .LASF225
 2516 0c03 1D       	 .byte 0x1d
 2517 0c04 AE       	 .byte 0xae
 2518 0c05 1D       	 .byte 0x1d
 2519 0c06 970B0000 	 .4byte 0xb97
 2520 0c0a 10       	 .byte 0x10
 2521 0c0b 02       	 .uleb128 0x2
 2522 0c0c C70D0000 	 .4byte .LASF226
 2523 0c10 1D       	 .byte 0x1d
 2524 0c11 B5       	 .byte 0xb5
 2525 0c12 1D       	 .byte 0x1d
 2526 0c13 970B0000 	 .4byte 0xb97
 2527 0c17 14       	 .byte 0x14
 2528 0c18 00       	 .byte 0
 2529 0c19 04       	 .uleb128 0x4
 2530 0c1a 4B020000 	 .4byte .LASF227
 2531 0c1e 1D       	 .byte 0x1d
 2532 0c1f B6       	 .byte 0xb6
 2533 0c20 03       	 .byte 0x3
 2534 0c21 C10B0000 	 .4byte 0xbc1
 2535 0c25 04       	 .uleb128 0x4
 2536 0c26 930A0000 	 .4byte .LASF228
 2537 0c2a 1E       	 .byte 0x1e
 2538 0c2b 29       	 .byte 0x29
 2539 0c2c 17       	 .byte 0x17
 2540 0c2d 80010000 	 .4byte 0x180
 2541 0c31 04       	 .uleb128 0x4
 2542 0c32 F8260000 	 .4byte .LASF229
 2543 0c36 1F       	 .byte 0x1f
 2544 0c37 14       	 .byte 0x14
 2545 0c38 14       	 .byte 0x14
 2546 0c39 250C0000 	 .4byte 0xc25
 2547 0c3d 04       	 .uleb128 0x4
 2548 0c3e 98280000 	 .4byte .LASF230
 2549 0c42 20       	 .byte 0x20
 2550 0c43 61       	 .byte 0x61
 2551 0c44 14       	 .byte 0x14
 2552 0c45 DD000000 	 .4byte 0xdd
 2553 0c49 04       	 .uleb128 0x4
ARM GAS   			page 50


 2554 0c4a 60210000 	 .4byte .LASF231
 2555 0c4e 20       	 .byte 0x20
 2556 0c4f 66       	 .byte 0x66
 2557 0c50 15       	 .byte 0x15
 2558 0c51 E9000000 	 .4byte 0xe9
 2559 0c55 04       	 .uleb128 0x4
 2560 0c56 FD070000 	 .4byte .LASF232
 2561 0c5a 20       	 .byte 0x20
 2562 0c5b 7E       	 .byte 0x7e
 2563 0c5c 16       	 .byte 0x16
 2564 0c5d 25010000 	 .4byte 0x125
 2565 0c61 04       	 .uleb128 0x4
 2566 0c62 9B4A0000 	 .4byte .LASF233
 2567 0c66 20       	 .byte 0x20
 2568 0c67 7F       	 .byte 0x7f
 2569 0c68 16       	 .byte 0x16
 2570 0c69 31010000 	 .4byte 0x131
 2571 0c6d 04       	 .uleb128 0x4
 2572 0c6e E5070000 	 .4byte .LASF234
 2573 0c72 20       	 .byte 0x20
 2574 0c73 89       	 .byte 0x89
 2575 0c74 12       	 .byte 0x12
 2576 0c75 0D010000 	 .4byte 0x10d
 2577 0c79 04       	 .uleb128 0x4
 2578 0c7a 6B410000 	 .4byte .LASF235
 2579 0c7e 20       	 .byte 0x20
 2580 0c7f 9F       	 .byte 0x9f
 2581 0c80 12       	 .byte 0x12
 2582 0c81 F5000000 	 .4byte 0xf5
 2583 0c85 04       	 .uleb128 0x4
 2584 0c86 4E3D0000 	 .4byte .LASF236
 2585 0c8a 20       	 .byte 0x20
 2586 0c8b A3       	 .byte 0xa3
 2587 0c8c 12       	 .byte 0x12
 2588 0c8d 49010000 	 .4byte 0x149
 2589 0c91 04       	 .uleb128 0x4
 2590 0c92 9C010000 	 .4byte .LASF237
 2591 0c96 20       	 .byte 0x20
 2592 0c97 A7       	 .byte 0xa7
 2593 0c98 12       	 .byte 0x12
 2594 0c99 55010000 	 .4byte 0x155
 2595 0c9d 04       	 .uleb128 0x4
 2596 0c9e 113D0000 	 .4byte .LASF238
 2597 0ca2 20       	 .byte 0x20
 2598 0ca3 AC       	 .byte 0xac
 2599 0ca4 12       	 .byte 0x12
 2600 0ca5 3D010000 	 .4byte 0x13d
 2601 0ca9 04       	 .uleb128 0x4
 2602 0caa 533C0000 	 .4byte .LASF239
 2603 0cae 20       	 .byte 0x20
 2604 0caf BB       	 .byte 0xbb
 2605 0cb0 12       	 .byte 0x12
 2606 0cb1 19010000 	 .4byte 0x119
 2607 0cb5 04       	 .uleb128 0x4
 2608 0cb6 F4320000 	 .4byte .LASF240
 2609 0cba 20       	 .byte 0x20
 2610 0cbb C0       	 .byte 0xc0
ARM GAS   			page 51


 2611 0cbc 13       	 .byte 0x13
 2612 0cbd 87010000 	 .4byte 0x187
 2613 0cc1 18       	 .uleb128 0x18
 2614 0cc2 DE270000 	 .4byte .LASF241
 2615 0cc6 48       	 .byte 0x48
 2616 0cc7 21       	 .byte 0x21
 2617 0cc8 5101     	 .2byte 0x151
 2618 0cca 08       	 .byte 0x8
 2619 0ccb 080D0000 	 .4byte 0xd08
 2620 0ccf 03       	 .uleb128 0x3
 2621 0cd0 562B0000 	 .4byte .LASF242
 2622 0cd4 21       	 .byte 0x21
 2623 0cd5 5501     	 .2byte 0x155
 2624 0cd7 16       	 .byte 0x16
 2625 0cd8 7C370000 	 .4byte 0x377c
 2626 0cdc 00       	 .byte 0
 2627 0cdd 03       	 .uleb128 0x3
 2628 0cde 04090000 	 .4byte .LASF243
 2629 0ce2 21       	 .byte 0x21
 2630 0ce3 5A01     	 .2byte 0x15a
 2631 0ce5 18       	 .byte 0x18
 2632 0ce6 45370000 	 .4byte 0x3745
 2633 0cea 04       	 .byte 0x4
 2634 0ceb 03       	 .uleb128 0x3
 2635 0cec 3D040000 	 .4byte .LASF244
 2636 0cf0 21       	 .byte 0x21
 2637 0cf1 6201     	 .2byte 0x162
 2638 0cf3 14       	 .byte 0x14
 2639 0cf4 91270000 	 .4byte 0x2791
 2640 0cf8 38       	 .byte 0x38
 2641 0cf9 03       	 .uleb128 0x3
 2642 0cfa 5B220000 	 .4byte .LASF150
 2643 0cfe 21       	 .byte 0x21
 2644 0cff 6701     	 .2byte 0x167
 2645 0d01 0C       	 .byte 0xc
 2646 0d02 91030000 	 .4byte 0x391
 2647 0d06 40       	 .byte 0x40
 2648 0d07 00       	 .byte 0
 2649 0d08 04       	 .uleb128 0x4
 2650 0d09 6E480000 	 .4byte .LASF245
 2651 0d0d 22       	 .byte 0x22
 2652 0d0e C7       	 .byte 0xc7
 2653 0d0f 14       	 .byte 0x14
 2654 0d10 80000000 	 .4byte 0x80
 2655 0d14 08       	 .uleb128 0x8
 2656 0d15 EF150000 	 .4byte .LASF246
 2657 0d19 23       	 .byte 0x23
 2658 0d1a B401     	 .2byte 0x1b4
 2659 0d1c 12       	 .byte 0x12
 2660 0d1d 91030000 	 .4byte 0x391
 2661 0d21 09       	 .uleb128 0x9
 2662 0d22 04       	 .byte 0x4
 2663 0d23 24       	 .byte 0x24
 2664 0d24 5E       	 .byte 0x5e
 2665 0d25 09       	 .byte 0x9
 2666 0d26 380D0000 	 .4byte 0xd38
 2667 0d2a 02       	 .uleb128 0x2
ARM GAS   			page 52


 2668 0d2b 8F390000 	 .4byte .LASF247
 2669 0d2f 24       	 .byte 0x24
 2670 0d30 62       	 .byte 0x62
 2671 0d31 0D       	 .byte 0xd
 2672 0d32 D4070000 	 .4byte 0x7d4
 2673 0d36 00       	 .byte 0
 2674 0d37 00       	 .byte 0
 2675 0d38 04       	 .uleb128 0x4
 2676 0d39 0F090000 	 .4byte .LASF248
 2677 0d3d 24       	 .byte 0x24
 2678 0d3e 6A       	 .byte 0x6a
 2679 0d3f 03       	 .byte 0x3
 2680 0d40 210D0000 	 .4byte 0xd21
 2681 0d44 09       	 .uleb128 0x9
 2682 0d45 10       	 .byte 0x10
 2683 0d46 25       	 .byte 0x25
 2684 0d47 40       	 .byte 0x40
 2685 0d48 09       	 .byte 0x9
 2686 0d49 820D0000 	 .4byte 0xd82
 2687 0d4d 02       	 .uleb128 0x2
 2688 0d4e 40120000 	 .4byte .LASF202
 2689 0d52 25       	 .byte 0x25
 2690 0d53 45       	 .byte 0x45
 2691 0d54 0E       	 .byte 0xe
 2692 0d55 1C0A0000 	 .4byte 0xa1c
 2693 0d59 00       	 .byte 0
 2694 0d5a 02       	 .uleb128 0x2
 2695 0d5b B3160000 	 .4byte .LASF140
 2696 0d5f 25       	 .byte 0x25
 2697 0d60 48       	 .byte 0x48
 2698 0d61 0A       	 .byte 0xa
 2699 0d62 C3000000 	 .4byte 0xc3
 2700 0d66 08       	 .byte 0x8
 2701 0d67 02       	 .uleb128 0x2
 2702 0d68 43080000 	 .4byte .LASF249
 2703 0d6c 25       	 .byte 0x25
 2704 0d6d 4C       	 .byte 0x4c
 2705 0d6e 07       	 .byte 0x7
 2706 0d6f 74000000 	 .4byte 0x74
 2707 0d73 0C       	 .byte 0xc
 2708 0d74 02       	 .uleb128 0x2
 2709 0d75 50320000 	 .4byte .LASF250
 2710 0d79 25       	 .byte 0x25
 2711 0d7a 58       	 .byte 0x58
 2712 0d7b 0A       	 .byte 0xa
 2713 0d7c 820D0000 	 .4byte 0xd82
 2714 0d80 10       	 .byte 0x10
 2715 0d81 00       	 .byte 0
 2716 0d82 0A       	 .uleb128 0xa
 2717 0d83 C3000000 	 .4byte 0xc3
 2718 0d87 910D0000 	 .4byte 0xd91
 2719 0d8b 2C       	 .uleb128 0x2c
 2720 0d8c 2D000000 	 .4byte 0x2d
 2721 0d90 00       	 .byte 0
 2722 0d91 04       	 .uleb128 0x4
 2723 0d92 D13E0000 	 .4byte .LASF251
 2724 0d96 25       	 .byte 0x25
ARM GAS   			page 53


 2725 0d97 59       	 .byte 0x59
 2726 0d98 03       	 .byte 0x3
 2727 0d99 440D0000 	 .4byte 0xd44
 2728 0d9d 04       	 .uleb128 0x4
 2729 0d9e 4D0E0000 	 .4byte .LASF252
 2730 0da2 26       	 .byte 0x26
 2731 0da3 57       	 .byte 0x57
 2732 0da4 12       	 .byte 0x12
 2733 0da5 91030000 	 .4byte 0x391
 2734 0da9 04       	 .uleb128 0x4
 2735 0daa 44160000 	 .4byte .LASF253
 2736 0dae 26       	 .byte 0x26
 2737 0daf 61       	 .byte 0x61
 2738 0db0 16       	 .byte 0x16
 2739 0db1 B50D0000 	 .4byte 0xdb5
 2740 0db5 05       	 .uleb128 0x5
 2741 0db6 BA0D0000 	 .4byte 0xdba
 2742 0dba 0E       	 .uleb128 0xe
 2743 0dbb C50D0000 	 .4byte 0xdc5
 2744 0dbf 01       	 .uleb128 0x1
 2745 0dc0 9D0D0000 	 .4byte 0xd9d
 2746 0dc4 00       	 .byte 0
 2747 0dc5 1F       	 .uleb128 0x1f
 2748 0dc6 2D000000 	 .4byte 0x2d
 2749 0dca 27       	 .byte 0x27
 2750 0dcb 72       	 .byte 0x72
 2751 0dcc EF0D0000 	 .4byte 0xdef
 2752 0dd0 07       	 .uleb128 0x7
 2753 0dd1 61050000 	 .4byte .LASF254
 2754 0dd5 00       	 .byte 0
 2755 0dd6 07       	 .uleb128 0x7
 2756 0dd7 17080000 	 .4byte .LASF255
 2757 0ddb 04       	 .byte 0x4
 2758 0ddc 07       	 .uleb128 0x7
 2759 0ddd 360E0000 	 .4byte .LASF256
 2760 0de1 06       	 .byte 0x6
 2761 0de2 07       	 .uleb128 0x7
 2762 0de3 A4130000 	 .4byte .LASF257
 2763 0de7 05       	 .byte 0x5
 2764 0de8 07       	 .uleb128 0x7
 2765 0de9 773F0000 	 .4byte .LASF258
 2766 0ded 07       	 .byte 0x7
 2767 0dee 00       	 .byte 0
 2768 0def 04       	 .uleb128 0x4
 2769 0df0 5E3D0000 	 .4byte .LASF259
 2770 0df4 27       	 .byte 0x27
 2771 0df5 93       	 .byte 0x93
 2772 0df6 03       	 .byte 0x3
 2773 0df7 C50D0000 	 .4byte 0xdc5
 2774 0dfb 08       	 .uleb128 0x8
 2775 0dfc E32D0000 	 .4byte .LASF260
 2776 0e00 27       	 .byte 0x27
 2777 0e01 0301     	 .2byte 0x103
 2778 0e03 28       	 .byte 0x28
 2779 0e04 080E0000 	 .4byte 0xe08
 2780 0e08 05       	 .uleb128 0x5
 2781 0e09 0D0E0000 	 .4byte 0xe0d
ARM GAS   			page 54


 2782 0e0d 0E       	 .uleb128 0xe
 2783 0e0e 1D0E0000 	 .4byte 0xe1d
 2784 0e12 01       	 .uleb128 0x1
 2785 0e13 49060000 	 .4byte 0x649
 2786 0e17 01       	 .uleb128 0x1
 2787 0e18 DB000000 	 .4byte 0xdb
 2788 0e1c 00       	 .byte 0
 2789 0e1d 05       	 .uleb128 0x5
 2790 0e1e 56030000 	 .4byte 0x356
 2791 0e22 13       	 .uleb128 0x13
 2792 0e23 3E4A0000 	 .4byte .LASF261
 2793 0e27 68       	 .byte 0x68
 2794 0e28 28       	 .byte 0x28
 2795 0e29 1B       	 .byte 0x1b
 2796 0e2a 08       	 .byte 0x8
 2797 0e2b D90E0000 	 .4byte 0xed9
 2798 0e2f 02       	 .uleb128 0x2
 2799 0e30 1F370000 	 .4byte .LASF262
 2800 0e34 28       	 .byte 0x28
 2801 0e35 1D       	 .byte 0x1d
 2802 0e36 0A       	 .byte 0xa
 2803 0e37 790C0000 	 .4byte 0xc79
 2804 0e3b 00       	 .byte 0
 2805 0e3c 02       	 .uleb128 0x2
 2806 0e3d 521C0000 	 .4byte .LASF263
 2807 0e41 28       	 .byte 0x28
 2808 0e42 1E       	 .byte 0x1e
 2809 0e43 0A       	 .byte 0xa
 2810 0e44 6D0C0000 	 .4byte 0xc6d
 2811 0e48 08       	 .byte 0x8
 2812 0e49 02       	 .uleb128 0x2
 2813 0e4a 821C0000 	 .4byte .LASF264
 2814 0e4e 28       	 .byte 0x28
 2815 0e4f 1F       	 .byte 0x1f
 2816 0e50 0A       	 .byte 0xa
 2817 0e51 A90C0000 	 .4byte 0xca9
 2818 0e55 10       	 .byte 0x10
 2819 0e56 02       	 .uleb128 0x2
 2820 0e57 A1090000 	 .4byte .LASF265
 2821 0e5b 28       	 .byte 0x28
 2822 0e5c 20       	 .byte 0x20
 2823 0e5d 0B       	 .byte 0xb
 2824 0e5e B50C0000 	 .4byte 0xcb5
 2825 0e62 14       	 .byte 0x14
 2826 0e63 02       	 .uleb128 0x2
 2827 0e64 45210000 	 .4byte .LASF266
 2828 0e68 28       	 .byte 0x28
 2829 0e69 21       	 .byte 0x21
 2830 0e6a 0A       	 .byte 0xa
 2831 0e6b 850C0000 	 .4byte 0xc85
 2832 0e6f 16       	 .byte 0x16
 2833 0e70 02       	 .uleb128 0x2
 2834 0e71 4C080000 	 .4byte .LASF267
 2835 0e75 28       	 .byte 0x28
 2836 0e76 22       	 .byte 0x22
 2837 0e77 0A       	 .byte 0xa
 2838 0e78 910C0000 	 .4byte 0xc91
ARM GAS   			page 55


 2839 0e7c 18       	 .byte 0x18
 2840 0e7d 02       	 .uleb128 0x2
 2841 0e7e D8360000 	 .4byte .LASF268
 2842 0e82 28       	 .byte 0x28
 2843 0e83 23       	 .byte 0x23
 2844 0e84 0A       	 .byte 0xa
 2845 0e85 790C0000 	 .4byte 0xc79
 2846 0e89 20       	 .byte 0x20
 2847 0e8a 02       	 .uleb128 0x2
 2848 0e8b 08050000 	 .4byte .LASF269
 2849 0e8f 28       	 .byte 0x28
 2850 0e90 24       	 .byte 0x24
 2851 0e91 0A       	 .byte 0xa
 2852 0e92 5B030000 	 .4byte 0x35b
 2853 0e96 28       	 .byte 0x28
 2854 0e97 02       	 .uleb128 0x2
 2855 0e98 100C0000 	 .4byte .LASF270
 2856 0e9c 28       	 .byte 0x28
 2857 0e9d 2A       	 .byte 0x2a
 2858 0e9e 13       	 .byte 0x13
 2859 0e9f 81050000 	 .4byte 0x581
 2860 0ea3 30       	 .byte 0x30
 2861 0ea4 02       	 .uleb128 0x2
 2862 0ea5 E9480000 	 .4byte .LASF271
 2863 0ea9 28       	 .byte 0x28
 2864 0eaa 2B       	 .byte 0x2b
 2865 0eab 13       	 .byte 0x13
 2866 0eac 81050000 	 .4byte 0x581
 2867 0eb0 40       	 .byte 0x40
 2868 0eb1 02       	 .uleb128 0x2
 2869 0eb2 EF090000 	 .4byte .LASF272
 2870 0eb6 28       	 .byte 0x28
 2871 0eb7 2C       	 .byte 0x2c
 2872 0eb8 13       	 .byte 0x13
 2873 0eb9 81050000 	 .4byte 0x581
 2874 0ebd 50       	 .byte 0x50
 2875 0ebe 02       	 .uleb128 0x2
 2876 0ebf FB060000 	 .4byte .LASF273
 2877 0ec3 28       	 .byte 0x28
 2878 0ec4 2D       	 .byte 0x2d
 2879 0ec5 11       	 .byte 0x11
 2880 0ec6 490C0000 	 .4byte 0xc49
 2881 0eca 60       	 .byte 0x60
 2882 0ecb 02       	 .uleb128 0x2
 2883 0ecc 923D0000 	 .4byte .LASF274
 2884 0ed0 28       	 .byte 0x28
 2885 0ed1 2E       	 .byte 0x2e
 2886 0ed2 0C       	 .byte 0xc
 2887 0ed3 3D0C0000 	 .4byte 0xc3d
 2888 0ed7 64       	 .byte 0x64
 2889 0ed8 00       	 .byte 0
 2890 0ed9 04       	 .uleb128 0x4
 2891 0eda 313F0000 	 .4byte .LASF275
 2892 0ede 29       	 .byte 0x29
 2893 0edf 28       	 .byte 0x28
 2894 0ee0 17       	 .byte 0x17
 2895 0ee1 80010000 	 .4byte 0x180
ARM GAS   			page 56


 2896 0ee5 29       	 .uleb128 0x29
 2897 0ee6 2D000000 	 .4byte 0x2d
 2898 0eea 2A       	 .byte 0x2a
 2899 0eeb 7A03     	 .2byte 0x37a
 2900 0eed FE0E0000 	 .4byte 0xefe
 2901 0ef1 07       	 .uleb128 0x7
 2902 0ef2 CC180000 	 .4byte .LASF276
 2903 0ef6 00       	 .byte 0
 2904 0ef7 07       	 .uleb128 0x7
 2905 0ef8 B2440000 	 .4byte .LASF277
 2906 0efc 01       	 .byte 0x1
 2907 0efd 00       	 .byte 0
 2908 0efe 08       	 .uleb128 0x8
 2909 0eff 43170000 	 .4byte .LASF278
 2910 0f03 2A       	 .byte 0x2a
 2911 0f04 8403     	 .2byte 0x384
 2912 0f06 03       	 .byte 0x3
 2913 0f07 E50E0000 	 .4byte 0xee5
 2914 0f0b 11       	 .uleb128 0x11
 2915 0f0c 10       	 .byte 0x10
 2916 0f0d 2A       	 .byte 0x2a
 2917 0f0e 8C03     	 .2byte 0x38c
 2918 0f10 09       	 .byte 0x9
 2919 0f11 400F0000 	 .4byte 0xf40
 2920 0f15 03       	 .uleb128 0x3
 2921 0f16 620A0000 	 .4byte .LASF279
 2922 0f1a 2A       	 .byte 0x2a
 2923 0f1b 9203     	 .2byte 0x392
 2924 0f1d 0E       	 .byte 0xe
 2925 0f1e 1C0A0000 	 .4byte 0xa1c
 2926 0f22 00       	 .byte 0
 2927 0f23 03       	 .uleb128 0x3
 2928 0f24 33100000 	 .4byte .LASF280
 2929 0f28 2A       	 .byte 0x2a
 2930 0f29 9903     	 .2byte 0x399
 2931 0f2b 1D       	 .byte 0x1d
 2932 0f2c FE0E0000 	 .4byte 0xefe
 2933 0f30 08       	 .byte 0x8
 2934 0f31 03       	 .uleb128 0x3
 2935 0f32 4E2D0000 	 .4byte .LASF281
 2936 0f36 2A       	 .byte 0x2a
 2937 0f37 A303     	 .2byte 0x3a3
 2938 0f39 0F       	 .byte 0xf
 2939 0f3a 4C0A0000 	 .4byte 0xa4c
 2940 0f3e 0C       	 .byte 0xc
 2941 0f3f 00       	 .byte 0
 2942 0f40 08       	 .uleb128 0x8
 2943 0f41 01280000 	 .4byte .LASF282
 2944 0f45 2A       	 .byte 0x2a
 2945 0f46 A403     	 .2byte 0x3a4
 2946 0f48 03       	 .byte 0x3
 2947 0f49 0B0F0000 	 .4byte 0xf0b
 2948 0f4d 04       	 .uleb128 0x4
 2949 0f4e 9D1F0000 	 .4byte .LASF283
 2950 0f52 2B       	 .byte 0x2b
 2951 0f53 3C       	 .byte 0x3c
 2952 0f54 14       	 .byte 0x14
ARM GAS   			page 57


 2953 0f55 1C0A0000 	 .4byte 0xa1c
 2954 0f59 04       	 .uleb128 0x4
 2955 0f5a 9E140000 	 .4byte .LASF284
 2956 0f5e 2B       	 .byte 0x2b
 2957 0f5f 3E       	 .byte 0x3e
 2958 0f60 17       	 .byte 0x17
 2959 0f61 970A0000 	 .4byte 0xa97
 2960 0f65 04       	 .uleb128 0x4
 2961 0f66 7C350000 	 .4byte .LASF285
 2962 0f6a 2C       	 .byte 0x2c
 2963 0f6b 38       	 .byte 0x38
 2964 0f6c 1F       	 .byte 0x1f
 2965 0f6d 710F0000 	 .4byte 0xf71
 2966 0f71 18       	 .uleb128 0x18
 2967 0f72 021C0000 	 .4byte .LASF286
 2968 0f76 30       	 .byte 0x30
 2969 0f77 2D       	 .byte 0x2d
 2970 0f78 3A05     	 .2byte 0x53a
 2971 0f7a 08       	 .byte 0x8
 2972 0f7b C60F0000 	 .4byte 0xfc6
 2973 0f7f 03       	 .uleb128 0x3
 2974 0f80 594A0000 	 .4byte .LASF287
 2975 0f84 2D       	 .byte 0x2d
 2976 0f85 3B05     	 .2byte 0x53b
 2977 0f87 2B       	 .byte 0x2b
 2978 0f88 69140000 	 .4byte 0x1469
 2979 0f8c 00       	 .byte 0
 2980 0f8d 03       	 .uleb128 0x3
 2981 0f8e F13C0000 	 .4byte .LASF288
 2982 0f92 2D       	 .byte 0x2d
 2983 0f93 3C05     	 .2byte 0x53c
 2984 0f95 2B       	 .byte 0x2b
 2985 0f96 5B030000 	 .4byte 0x35b
 2986 0f9a 08       	 .byte 0x8
 2987 0f9b 03       	 .uleb128 0x3
 2988 0f9c E2450000 	 .4byte .LASF289
 2989 0fa0 2D       	 .byte 0x2d
 2990 0fa1 3D05     	 .2byte 0x53d
 2991 0fa3 2B       	 .byte 0x2b
 2992 0fa4 3B130000 	 .4byte 0x133b
 2993 0fa8 10       	 .byte 0x10
 2994 0fa9 03       	 .uleb128 0x3
 2995 0faa 5F380000 	 .4byte .LASF290
 2996 0fae 2D       	 .byte 0x2d
 2997 0faf 3E05     	 .2byte 0x53e
 2998 0fb1 2B       	 .byte 0x2b
 2999 0fb2 91030000 	 .4byte 0x391
 3000 0fb6 28       	 .byte 0x28
 3001 0fb7 03       	 .uleb128 0x3
 3002 0fb8 65380000 	 .4byte .LASF291
 3003 0fbc 2D       	 .byte 0x2d
 3004 0fbd 3F05     	 .2byte 0x53f
 3005 0fbf 2B       	 .byte 0x2b
 3006 0fc0 DB000000 	 .4byte 0xdb
 3007 0fc4 2C       	 .byte 0x2c
 3008 0fc5 00       	 .byte 0
 3009 0fc6 04       	 .uleb128 0x4
ARM GAS   			page 58


 3010 0fc7 7F130000 	 .4byte .LASF292
 3011 0fcb 2C       	 .byte 0x2c
 3012 0fcc 3C       	 .byte 0x3c
 3013 0fcd 05       	 .byte 0x5
 3014 0fce D70F0000 	 .4byte 0xfd7
 3015 0fd2 0B       	 .uleb128 0xb
 3016 0fd3 C60F0000 	 .4byte 0xfc6
 3017 0fd7 18       	 .uleb128 0x18
 3018 0fd8 3B340000 	 .4byte .LASF293
 3019 0fdc 40       	 .byte 0x40
 3020 0fdd 2D       	 .byte 0x2d
 3021 0fde 5606     	 .2byte 0x656
 3022 0fe0 08       	 .byte 0x8
 3023 0fe1 B8100000 	 .4byte 0x10b8
 3024 0fe5 03       	 .uleb128 0x3
 3025 0fe6 342A0000 	 .4byte .LASF294
 3026 0fea 2D       	 .byte 0x2d
 3027 0feb 5706     	 .2byte 0x657
 3028 0fed 2A       	 .byte 0x2a
 3029 0fee 4D0F0000 	 .4byte 0xf4d
 3030 0ff2 00       	 .byte 0
 3031 0ff3 03       	 .uleb128 0x3
 3032 0ff4 1E0F0000 	 .4byte .LASF295
 3033 0ff8 2D       	 .byte 0x2d
 3034 0ff9 5806     	 .2byte 0x658
 3035 0ffb 2A       	 .byte 0x2a
 3036 0ffc DB000000 	 .4byte 0xdb
 3037 1000 08       	 .byte 0x8
 3038 1001 2D       	 .uleb128 0x2d
 3039 1002 6F707300 	 .ascii "ops\000"
 3040 1006 2D       	 .byte 0x2d
 3041 1007 5906     	 .2byte 0x659
 3042 1009 2C       	 .byte 0x2c
 3043 100a 011B0000 	 .4byte 0x1b01
 3044 100e 0C       	 .byte 0xc
 3045 100f 03       	 .uleb128 0x3
 3046 1010 F8120000 	 .4byte .LASF296
 3047 1014 2D       	 .byte 0x2d
 3048 1015 5A06     	 .2byte 0x65a
 3049 1017 2A       	 .byte 0x2a
 3050 1018 73030000 	 .4byte 0x373
 3051 101c 10       	 .byte 0x10
 3052 101d 03       	 .uleb128 0x3
 3053 101e F7360000 	 .4byte .LASF297
 3054 1022 2D       	 .byte 0x2d
 3055 1023 5B06     	 .2byte 0x65b
 3056 1025 2A       	 .byte 0x2a
 3057 1026 590F0000 	 .4byte 0xf59
 3058 102a 14       	 .byte 0x14
 3059 102b 03       	 .uleb128 0x3
 3060 102c E10B0000 	 .4byte .LASF298
 3061 1030 2D       	 .byte 0x2d
 3062 1031 5C06     	 .2byte 0x65c
 3063 1033 2A       	 .byte 0x2a
 3064 1034 21150000 	 .4byte 0x1521
 3065 1038 20       	 .byte 0x20
 3066 1039 03       	 .uleb128 0x3
ARM GAS   			page 59


 3067 103a 2C110000 	 .4byte .LASF299
 3068 103e 2D       	 .byte 0x2d
 3069 103f 5D06     	 .2byte 0x65d
 3070 1041 2A       	 .byte 0x2a
 3071 1042 21150000 	 .4byte 0x1521
 3072 1046 24       	 .byte 0x24
 3073 1047 03       	 .uleb128 0x3
 3074 1048 9E2B0000 	 .4byte .LASF300
 3075 104c 2D       	 .byte 0x2d
 3076 104d 5E06     	 .2byte 0x65e
 3077 104f 2A       	 .byte 0x2a
 3078 1050 F5060000 	 .4byte 0x6f5
 3079 1054 28       	 .byte 0x28
 3080 1055 03       	 .uleb128 0x3
 3081 1056 C5120000 	 .4byte .LASF301
 3082 105a 2D       	 .byte 0x2d
 3083 105b 5F06     	 .2byte 0x65f
 3084 105d 2A       	 .byte 0x2a
 3085 105e F5060000 	 .4byte 0x6f5
 3086 1062 29       	 .byte 0x29
 3087 1063 03       	 .uleb128 0x3
 3088 1064 8D3C0000 	 .4byte .LASF302
 3089 1068 2D       	 .byte 0x2d
 3090 1069 6006     	 .2byte 0x660
 3091 106b 2A       	 .byte 0x2a
 3092 106c F5060000 	 .4byte 0x6f5
 3093 1070 2A       	 .byte 0x2a
 3094 1071 03       	 .uleb128 0x3
 3095 1072 5B3F0000 	 .4byte .LASF303
 3096 1076 2D       	 .byte 0x2d
 3097 1077 6106     	 .2byte 0x661
 3098 1079 30       	 .byte 0x30
 3099 107a 061B0000 	 .4byte 0x1b06
 3100 107e 2C       	 .byte 0x2c
 3101 107f 03       	 .uleb128 0x3
 3102 1080 AD110000 	 .4byte .LASF304
 3103 1084 2D       	 .byte 0x2d
 3104 1085 6606     	 .2byte 0x666
 3105 1087 2A       	 .byte 0x2a
 3106 1088 3F030000 	 .4byte 0x33f
 3107 108c 30       	 .byte 0x30
 3108 108d 03       	 .uleb128 0x3
 3109 108e B10D0000 	 .4byte .LASF305
 3110 1092 2D       	 .byte 0x2d
 3111 1093 6B06     	 .2byte 0x66b
 3112 1095 2A       	 .byte 0x2a
 3113 1096 3F030000 	 .4byte 0x33f
 3114 109a 34       	 .byte 0x34
 3115 109b 2D       	 .uleb128 0x2d
 3116 109c 64657600 	 .ascii "dev\000"
 3117 10a0 2D       	 .byte 0x2d
 3118 10a1 7406     	 .2byte 0x674
 3119 10a3 2A       	 .byte 0x2a
 3120 10a4 56030000 	 .4byte 0x356
 3121 10a8 38       	 .byte 0x38
 3122 10a9 03       	 .uleb128 0x3
 3123 10aa 67140000 	 .4byte .LASF306
ARM GAS   			page 60


 3124 10ae 2D       	 .byte 0x2d
 3125 10af 7C06     	 .2byte 0x67c
 3126 10b1 2A       	 .byte 0x2a
 3127 10b2 49060000 	 .4byte 0x649
 3128 10b6 3C       	 .byte 0x3c
 3129 10b7 00       	 .byte 0
 3130 10b8 04       	 .uleb128 0x4
 3131 10b9 E01D0000 	 .4byte .LASF307
 3132 10bd 2C       	 .byte 0x2c
 3133 10be 3F       	 .byte 0x3f
 3134 10bf 05       	 .byte 0x5
 3135 10c0 C9100000 	 .4byte 0x10c9
 3136 10c4 0B       	 .uleb128 0xb
 3137 10c5 B8100000 	 .4byte 0x10b8
 3138 10c9 18       	 .uleb128 0x18
 3139 10ca 5A330000 	 .4byte .LASF308
 3140 10ce 40       	 .byte 0x40
 3141 10cf 2D       	 .byte 0x2d
 3142 10d0 FD03     	 .2byte 0x3fd
 3143 10d2 08       	 .byte 0x8
 3144 10d3 B8110000 	 .4byte 0x11b8
 3145 10d7 03       	 .uleb128 0x3
 3146 10d8 EF420000 	 .4byte .LASF309
 3147 10dc 2D       	 .byte 0x2d
 3148 10dd FE03     	 .2byte 0x3fe
 3149 10df 1B       	 .byte 0x1b
 3150 10e0 F0170000 	 .4byte 0x17f0
 3151 10e4 00       	 .byte 0
 3152 10e5 03       	 .uleb128 0x3
 3153 10e6 572D0000 	 .4byte .LASF310
 3154 10ea 2D       	 .byte 0x2d
 3155 10eb FF03     	 .2byte 0x3ff
 3156 10ed 1C       	 .byte 0x1c
 3157 10ee 25180000 	 .4byte 0x1825
 3158 10f2 04       	 .byte 0x4
 3159 10f3 03       	 .uleb128 0x3
 3160 10f4 60470000 	 .4byte .LASF311
 3161 10f8 2D       	 .byte 0x2d
 3162 10f9 0004     	 .2byte 0x400
 3163 10fb 1B       	 .byte 0x1b
 3164 10fc 46180000 	 .4byte 0x1846
 3165 1100 08       	 .byte 0x8
 3166 1101 03       	 .uleb128 0x3
 3167 1102 E8330000 	 .4byte .LASF312
 3168 1106 2D       	 .byte 0x2d
 3169 1107 0104     	 .2byte 0x401
 3170 1109 1C       	 .byte 0x1c
 3171 110a A6180000 	 .4byte 0x18a6
 3172 110e 0C       	 .byte 0xc
 3173 110f 03       	 .uleb128 0x3
 3174 1110 EC320000 	 .4byte .LASF313
 3175 1114 2D       	 .byte 0x2d
 3176 1115 0204     	 .2byte 0x402
 3177 1117 1C       	 .byte 0x1c
 3178 1118 DE180000 	 .4byte 0x18de
 3179 111c 10       	 .byte 0x10
 3180 111d 03       	 .uleb128 0x3
ARM GAS   			page 61


 3181 111e 94200000 	 .4byte .LASF314
 3182 1122 2D       	 .byte 0x2d
 3183 1123 0304     	 .2byte 0x403
 3184 1125 1C       	 .byte 0x1c
 3185 1126 09190000 	 .4byte 0x1909
 3186 112a 14       	 .byte 0x14
 3187 112b 03       	 .uleb128 0x3
 3188 112c 8A1C0000 	 .4byte .LASF315
 3189 1130 2D       	 .byte 0x2d
 3190 1131 0404     	 .2byte 0x404
 3191 1133 1C       	 .byte 0x1c
 3192 1134 34190000 	 .4byte 0x1934
 3193 1138 18       	 .byte 0x18
 3194 1139 03       	 .uleb128 0x3
 3195 113a A33A0000 	 .4byte .LASF316
 3196 113e 2D       	 .byte 0x2d
 3197 113f 0504     	 .2byte 0x405
 3198 1141 20       	 .byte 0x20
 3199 1142 5F190000 	 .4byte 0x195f
 3200 1146 1C       	 .byte 0x1c
 3201 1147 03       	 .uleb128 0x3
 3202 1148 4A290000 	 .4byte .LASF317
 3203 114c 2D       	 .byte 0x2d
 3204 114d 0604     	 .2byte 0x406
 3205 114f 1C       	 .byte 0x1c
 3206 1150 85190000 	 .4byte 0x1985
 3207 1154 20       	 .byte 0x20
 3208 1155 03       	 .uleb128 0x3
 3209 1156 6A210000 	 .4byte .LASF318
 3210 115a 2D       	 .byte 0x2d
 3211 115b 0704     	 .2byte 0x407
 3212 115d 20       	 .byte 0x20
 3213 115e 92190000 	 .4byte 0x1992
 3214 1162 24       	 .byte 0x24
 3215 1163 03       	 .uleb128 0x3
 3216 1164 A2470000 	 .4byte .LASF319
 3217 1168 2D       	 .byte 0x2d
 3218 1169 0804     	 .2byte 0x408
 3219 116b 1C       	 .byte 0x1c
 3220 116c 9F190000 	 .4byte 0x199f
 3221 1170 28       	 .byte 0x28
 3222 1171 03       	 .uleb128 0x3
 3223 1172 0D350000 	 .4byte .LASF320
 3224 1176 2D       	 .byte 0x2d
 3225 1177 0904     	 .2byte 0x409
 3226 1179 1B       	 .byte 0x1b
 3227 117a C5190000 	 .4byte 0x19c5
 3228 117e 2C       	 .byte 0x2c
 3229 117f 03       	 .uleb128 0x3
 3230 1180 172F0000 	 .4byte .LASF321
 3231 1184 2D       	 .byte 0x2d
 3232 1185 0A04     	 .2byte 0x40a
 3233 1187 1F       	 .byte 0x1f
 3234 1188 D2190000 	 .4byte 0x19d2
 3235 118c 30       	 .byte 0x30
 3236 118d 03       	 .uleb128 0x3
 3237 118e 4B230000 	 .4byte .LASF322
ARM GAS   			page 62


 3238 1192 2D       	 .byte 0x2d
 3239 1193 0B04     	 .2byte 0x40b
 3240 1195 1C       	 .byte 0x1c
 3241 1196 71180000 	 .4byte 0x1871
 3242 119a 34       	 .byte 0x34
 3243 119b 03       	 .uleb128 0x3
 3244 119c 00450000 	 .4byte .LASF323
 3245 11a0 2D       	 .byte 0x2d
 3246 11a1 0C04     	 .2byte 0x40c
 3247 11a3 1D       	 .byte 0x1d
 3248 11a4 D1180000 	 .4byte 0x18d1
 3249 11a8 38       	 .byte 0x38
 3250 11a9 03       	 .uleb128 0x3
 3251 11aa D53A0000 	 .4byte .LASF324
 3252 11ae 2D       	 .byte 0x2d
 3253 11af 0D04     	 .2byte 0x40d
 3254 11b1 1B       	 .byte 0x1b
 3255 11b2 021A0000 	 .4byte 0x1a02
 3256 11b6 3C       	 .byte 0x3c
 3257 11b7 00       	 .byte 0
 3258 11b8 04       	 .uleb128 0x4
 3259 11b9 1E150000 	 .4byte .LASF325
 3260 11bd 2C       	 .byte 0x2c
 3261 11be 41       	 .byte 0x41
 3262 11bf 05       	 .byte 0x5
 3263 11c0 C9110000 	 .4byte 0x11c9
 3264 11c4 0B       	 .uleb128 0xb
 3265 11c5 B8110000 	 .4byte 0x11b8
 3266 11c9 18       	 .uleb128 0x18
 3267 11ca 55150000 	 .4byte .LASF326
 3268 11ce 4C       	 .byte 0x4c
 3269 11cf 2D       	 .byte 0x2d
 3270 11d0 E901     	 .2byte 0x1e9
 3271 11d2 08       	 .byte 0x8
 3272 11d3 E2120000 	 .4byte 0x12e2
 3273 11d7 03       	 .uleb128 0x3
 3274 11d8 11460000 	 .4byte .LASF327
 3275 11dc 2D       	 .byte 0x2d
 3276 11dd EA01     	 .2byte 0x1ea
 3277 11df 24       	 .byte 0x24
 3278 11e0 75140000 	 .4byte 0x1475
 3279 11e4 00       	 .byte 0
 3280 11e5 03       	 .uleb128 0x3
 3281 11e6 5E1B0000 	 .4byte .LASF328
 3282 11ea 2D       	 .byte 0x2d
 3283 11eb EB01     	 .2byte 0x1eb
 3284 11ed 26       	 .byte 0x26
 3285 11ee 96140000 	 .4byte 0x1496
 3286 11f2 04       	 .byte 0x4
 3287 11f3 03       	 .uleb128 0x3
 3288 11f4 273C0000 	 .4byte .LASF329
 3289 11f8 2D       	 .byte 0x2d
 3290 11f9 EC01     	 .2byte 0x1ec
 3291 11fb 20       	 .byte 0x20
 3292 11fc 32150000 	 .4byte 0x1532
 3293 1200 08       	 .byte 0x8
 3294 1201 03       	 .uleb128 0x3
ARM GAS   			page 63


 3295 1202 27190000 	 .4byte .LASF330
 3296 1206 2D       	 .byte 0x2d
 3297 1207 ED01     	 .2byte 0x1ed
 3298 1209 1B       	 .byte 0x1b
 3299 120a 53150000 	 .4byte 0x1553
 3300 120e 0C       	 .byte 0xc
 3301 120f 03       	 .uleb128 0x3
 3302 1210 11240000 	 .4byte .LASF331
 3303 1214 2D       	 .byte 0x2d
 3304 1215 EE01     	 .2byte 0x1ee
 3305 1217 26       	 .byte 0x26
 3306 1218 89160000 	 .4byte 0x1689
 3307 121c 10       	 .byte 0x10
 3308 121d 03       	 .uleb128 0x3
 3309 121e 71200000 	 .4byte .LASF332
 3310 1222 2D       	 .byte 0x2d
 3311 1223 EF01     	 .2byte 0x1ef
 3312 1225 1C       	 .byte 0x1c
 3313 1226 AF160000 	 .4byte 0x16af
 3314 122a 14       	 .byte 0x14
 3315 122b 03       	 .uleb128 0x3
 3316 122c B4450000 	 .4byte .LASF333
 3317 1230 2D       	 .byte 0x2d
 3318 1231 F001     	 .2byte 0x1f0
 3319 1233 1C       	 .byte 0x1c
 3320 1234 E4160000 	 .4byte 0x16e4
 3321 1238 18       	 .byte 0x18
 3322 1239 03       	 .uleb128 0x3
 3323 123a C5220000 	 .4byte .LASF334
 3324 123e 2D       	 .byte 0x2d
 3325 123f F101     	 .2byte 0x1f1
 3326 1241 1D       	 .byte 0x1d
 3327 1242 87150000 	 .4byte 0x1587
 3328 1246 1C       	 .byte 0x1c
 3329 1247 03       	 .uleb128 0x3
 3330 1248 00050000 	 .4byte .LASF335
 3331 124c 2D       	 .byte 0x2d
 3332 124d F201     	 .2byte 0x1f2
 3333 124f 1C       	 .byte 0x1c
 3334 1250 AC150000 	 .4byte 0x15ac
 3335 1254 20       	 .byte 0x20
 3336 1255 03       	 .uleb128 0x3
 3337 1256 F0330000 	 .4byte .LASF336
 3338 125a 2D       	 .byte 0x2d
 3339 125b F301     	 .2byte 0x1f3
 3340 125d 20       	 .byte 0x20
 3341 125e D6150000 	 .4byte 0x15d6
 3342 1262 24       	 .byte 0x24
 3343 1263 03       	 .uleb128 0x3
 3344 1264 ED470000 	 .4byte .LASF337
 3345 1268 2D       	 .byte 0x2d
 3346 1269 F401     	 .2byte 0x1f4
 3347 126b 1F       	 .byte 0x1f
 3348 126c FB150000 	 .4byte 0x15fb
 3349 1270 28       	 .byte 0x28
 3350 1271 03       	 .uleb128 0x3
 3351 1272 19130000 	 .4byte .LASF338
ARM GAS   			page 64


 3352 1276 2D       	 .byte 0x2d
 3353 1277 F501     	 .2byte 0x1f5
 3354 1279 1C       	 .byte 0x1c
 3355 127a 18160000 	 .4byte 0x1618
 3356 127e 2C       	 .byte 0x2c
 3357 127f 03       	 .uleb128 0x3
 3358 1280 21030000 	 .4byte .LASF339
 3359 1284 2D       	 .byte 0x2d
 3360 1285 F601     	 .2byte 0x1f6
 3361 1287 1E       	 .byte 0x1e
 3362 1288 5F160000 	 .4byte 0x165f
 3363 128c 30       	 .byte 0x30
 3364 128d 03       	 .uleb128 0x3
 3365 128e A4290000 	 .4byte .LASF340
 3366 1292 2D       	 .byte 0x2d
 3367 1293 F701     	 .2byte 0x1f7
 3368 1295 23       	 .byte 0x23
 3369 1296 6C160000 	 .4byte 0x166c
 3370 129a 34       	 .byte 0x34
 3371 129b 03       	 .uleb128 0x3
 3372 129c A2100000 	 .4byte .LASF341
 3373 12a0 2D       	 .byte 0x2d
 3374 12a1 F801     	 .2byte 0x1f8
 3375 12a3 1E       	 .byte 0x1e
 3376 12a4 0A170000 	 .4byte 0x170a
 3377 12a8 38       	 .byte 0x38
 3378 12a9 03       	 .uleb128 0x3
 3379 12aa E6080000 	 .4byte .LASF342
 3380 12ae 2D       	 .byte 0x2d
 3381 12af F901     	 .2byte 0x1f9
 3382 12b1 1E       	 .byte 0x1e
 3383 12b2 35170000 	 .4byte 0x1735
 3384 12b6 3C       	 .byte 0x3c
 3385 12b7 03       	 .uleb128 0x3
 3386 12b8 81370000 	 .4byte .LASF343
 3387 12bc 2D       	 .byte 0x2d
 3388 12bd FA01     	 .2byte 0x1fa
 3389 12bf 1F       	 .byte 0x1f
 3390 12c0 65170000 	 .4byte 0x1765
 3391 12c4 40       	 .byte 0x40
 3392 12c5 03       	 .uleb128 0x3
 3393 12c6 F10F0000 	 .4byte .LASF344
 3394 12ca 2D       	 .byte 0x2d
 3395 12cb FB01     	 .2byte 0x1fb
 3396 12cd 1D       	 .byte 0x1d
 3397 12ce 90170000 	 .4byte 0x1790
 3398 12d2 44       	 .byte 0x44
 3399 12d3 03       	 .uleb128 0x3
 3400 12d4 8C370000 	 .4byte .LASF345
 3401 12d8 2D       	 .byte 0x2d
 3402 12d9 FC01     	 .2byte 0x1fc
 3403 12db 1E       	 .byte 0x1e
 3404 12dc C5170000 	 .4byte 0x17c5
 3405 12e0 48       	 .byte 0x48
 3406 12e1 00       	 .byte 0
 3407 12e2 13       	 .uleb128 0x13
 3408 12e3 6C010000 	 .4byte .LASF346
ARM GAS   			page 65


 3409 12e7 18       	 .byte 0x18
 3410 12e8 2C       	 .byte 0x2c
 3411 12e9 48       	 .byte 0x48
 3412 12ea 10       	 .byte 0x10
 3413 12eb 31130000 	 .4byte 0x1331
 3414 12ef 02       	 .uleb128 0x2
 3415 12f0 F1480000 	 .4byte .LASF347
 3416 12f4 2C       	 .byte 0x2c
 3417 12f5 49       	 .byte 0x49
 3418 12f6 2D       	 .byte 0x2d
 3419 12f7 4D0F0000 	 .4byte 0xf4d
 3420 12fb 00       	 .byte 0
 3421 12fc 02       	 .uleb128 0x2
 3422 12fd E00D0000 	 .4byte .LASF348
 3423 1301 2C       	 .byte 0x2c
 3424 1302 4A       	 .byte 0x4a
 3425 1303 2D       	 .byte 0x2d
 3426 1304 DB000000 	 .4byte 0xdb
 3427 1308 08       	 .byte 0x8
 3428 1309 02       	 .uleb128 0x2
 3429 130a 45120000 	 .4byte .LASF349
 3430 130e 2C       	 .byte 0x2c
 3431 130f 4B       	 .byte 0x4b
 3432 1310 2D       	 .byte 0x2d
 3433 1311 DB000000 	 .4byte 0xdb
 3434 1315 0C       	 .byte 0xc
 3435 1316 02       	 .uleb128 0x2
 3436 1317 B4030000 	 .4byte .LASF350
 3437 131b 2C       	 .byte 0x2c
 3438 131c 4C       	 .byte 0x4c
 3439 131d 2D       	 .byte 0x2d
 3440 131e 31130000 	 .4byte 0x1331
 3441 1322 10       	 .byte 0x10
 3442 1323 02       	 .uleb128 0x2
 3443 1324 E53D0000 	 .4byte .LASF351
 3444 1328 2C       	 .byte 0x2c
 3445 1329 4D       	 .byte 0x4d
 3446 132a 2D       	 .byte 0x2d
 3447 132b 36130000 	 .4byte 0x1336
 3448 132f 14       	 .byte 0x14
 3449 1330 00       	 .byte 0
 3450 1331 05       	 .uleb128 0x5
 3451 1332 C4100000 	 .4byte 0x10c4
 3452 1336 05       	 .uleb128 0x5
 3453 1337 C60F0000 	 .4byte 0xfc6
 3454 133b 04       	 .uleb128 0x4
 3455 133c 71410000 	 .4byte .LASF352
 3456 1340 2C       	 .byte 0x2c
 3457 1341 4E       	 .byte 0x4e
 3458 1342 03       	 .byte 0x3
 3459 1343 E2120000 	 .4byte 0x12e2
 3460 1347 0B       	 .uleb128 0xb
 3461 1348 3B130000 	 .4byte 0x133b
 3462 134c 13       	 .uleb128 0x13
 3463 134d AE230000 	 .4byte .LASF353
 3464 1351 24       	 .byte 0x24
 3465 1352 2C       	 .byte 0x2c
ARM GAS   			page 66


 3466 1353 64       	 .byte 0x64
 3467 1354 10       	 .byte 0x10
 3468 1355 8E130000 	 .4byte 0x138e
 3469 1359 02       	 .uleb128 0x2
 3470 135a 372E0000 	 .4byte .LASF354
 3471 135e 2C       	 .byte 0x2c
 3472 135f 65       	 .byte 0x65
 3473 1360 24       	 .byte 0x24
 3474 1361 3B130000 	 .4byte 0x133b
 3475 1365 00       	 .byte 0
 3476 1366 02       	 .uleb128 0x2
 3477 1367 40150000 	 .4byte .LASF355
 3478 136b 2C       	 .byte 0x2c
 3479 136c 66       	 .byte 0x66
 3480 136d 07       	 .byte 0x7
 3481 136e 74000000 	 .4byte 0x74
 3482 1372 18       	 .byte 0x18
 3483 1373 02       	 .uleb128 0x2
 3484 1374 5F070000 	 .4byte .LASF356
 3485 1378 2C       	 .byte 0x2c
 3486 1379 6D       	 .byte 0x6d
 3487 137a 2E       	 .byte 0x2e
 3488 137b 8E130000 	 .4byte 0x138e
 3489 137f 1C       	 .byte 0x1c
 3490 1380 02       	 .uleb128 0x2
 3491 1381 07360000 	 .4byte .LASF357
 3492 1385 2C       	 .byte 0x2c
 3493 1386 73       	 .byte 0x73
 3494 1387 07       	 .byte 0x7
 3495 1388 74000000 	 .4byte 0x74
 3496 138c 20       	 .byte 0x20
 3497 138d 00       	 .byte 0
 3498 138e 05       	 .uleb128 0x5
 3499 138f 4C130000 	 .4byte 0x134c
 3500 1393 04       	 .uleb128 0x4
 3501 1394 AE230000 	 .4byte .LASF353
 3502 1398 2C       	 .byte 0x2c
 3503 1399 74       	 .byte 0x74
 3504 139a 03       	 .byte 0x3
 3505 139b 4C130000 	 .4byte 0x134c
 3506 139f 13       	 .uleb128 0x13
 3507 13a0 C6070000 	 .4byte .LASF358
 3508 13a4 38       	 .byte 0x38
 3509 13a5 2E       	 .byte 0x2e
 3510 13a6 37       	 .byte 0x37
 3511 13a7 08       	 .byte 0x8
 3512 13a8 3C140000 	 .4byte 0x143c
 3513 13ac 02       	 .uleb128 0x2
 3514 13ad 02220000 	 .4byte .LASF359
 3515 13b1 2E       	 .byte 0x2e
 3516 13b2 39       	 .byte 0x39
 3517 13b3 11       	 .byte 0x11
 3518 13b4 80010000 	 .4byte 0x180
 3519 13b8 00       	 .byte 0
 3520 13b9 02       	 .uleb128 0x2
 3521 13ba 61060000 	 .4byte .LASF360
 3522 13be 2E       	 .byte 0x2e
ARM GAS   			page 67


 3523 13bf 3A       	 .byte 0x3a
 3524 13c0 11       	 .byte 0x11
 3525 13c1 80010000 	 .4byte 0x180
 3526 13c5 04       	 .byte 0x4
 3527 13c6 02       	 .uleb128 0x2
 3528 13c7 282D0000 	 .4byte .LASF361
 3529 13cb 2E       	 .byte 0x2e
 3530 13cc 3B       	 .byte 0x3b
 3531 13cd 11       	 .byte 0x11
 3532 13ce 550C0000 	 .4byte 0xc55
 3533 13d2 08       	 .byte 0x8
 3534 13d3 02       	 .uleb128 0x2
 3535 13d4 25340000 	 .4byte .LASF362
 3536 13d8 2E       	 .byte 0x2e
 3537 13d9 3D       	 .byte 0x3d
 3538 13da 11       	 .byte 0x11
 3539 13db 550C0000 	 .4byte 0xc55
 3540 13df 10       	 .byte 0x10
 3541 13e0 02       	 .uleb128 0x2
 3542 13e1 6A180000 	 .4byte .LASF363
 3543 13e5 2E       	 .byte 0x2e
 3544 13e6 3E       	 .byte 0x3e
 3545 13e7 11       	 .byte 0x11
 3546 13e8 550C0000 	 .4byte 0xc55
 3547 13ec 18       	 .byte 0x18
 3548 13ed 02       	 .uleb128 0x2
 3549 13ee D33F0000 	 .4byte .LASF364
 3550 13f2 2E       	 .byte 0x2e
 3551 13f3 40       	 .byte 0x40
 3552 13f4 11       	 .byte 0x11
 3553 13f5 610C0000 	 .4byte 0xc61
 3554 13f9 20       	 .byte 0x20
 3555 13fa 02       	 .uleb128 0x2
 3556 13fb 2D000000 	 .4byte .LASF365
 3557 13ff 2E       	 .byte 0x2e
 3558 1400 41       	 .byte 0x41
 3559 1401 11       	 .byte 0x11
 3560 1402 610C0000 	 .4byte 0xc61
 3561 1406 24       	 .byte 0x24
 3562 1407 02       	 .uleb128 0x2
 3563 1408 5F0B0000 	 .4byte .LASF366
 3564 140c 2E       	 .byte 0x2e
 3565 140d 42       	 .byte 0x42
 3566 140e 11       	 .byte 0x11
 3567 140f 610C0000 	 .4byte 0xc61
 3568 1413 28       	 .byte 0x28
 3569 1414 02       	 .uleb128 0x2
 3570 1415 73240000 	 .4byte .LASF367
 3571 1419 2E       	 .byte 0x2e
 3572 141a 44       	 .byte 0x44
 3573 141b 11       	 .byte 0x11
 3574 141c 80010000 	 .4byte 0x180
 3575 1420 2C       	 .byte 0x2c
 3576 1421 02       	 .uleb128 0x2
 3577 1422 BC3C0000 	 .4byte .LASF368
 3578 1426 2E       	 .byte 0x2e
 3579 1427 45       	 .byte 0x45
ARM GAS   			page 68


 3580 1428 11       	 .byte 0x11
 3581 1429 80010000 	 .4byte 0x180
 3582 142d 30       	 .byte 0x30
 3583 142e 02       	 .uleb128 0x2
 3584 142f C4480000 	 .4byte .LASF369
 3585 1433 2E       	 .byte 0x2e
 3586 1434 46       	 .byte 0x46
 3587 1435 11       	 .byte 0x11
 3588 1436 80010000 	 .4byte 0x180
 3589 143a 34       	 .byte 0x34
 3590 143b 00       	 .byte 0
 3591 143c 13       	 .uleb128 0x13
 3592 143d 76210000 	 .4byte .LASF370
 3593 1441 08       	 .byte 0x8
 3594 1442 2F       	 .byte 0x2f
 3595 1443 2D       	 .byte 0x2d
 3596 1444 08       	 .byte 0x8
 3597 1445 64140000 	 .4byte 0x1464
 3598 1449 02       	 .uleb128 0x2
 3599 144a D1110000 	 .4byte .LASF371
 3600 144e 2F       	 .byte 0x2f
 3601 144f 2E       	 .byte 0x2e
 3602 1450 08       	 .byte 0x8
 3603 1451 DB000000 	 .4byte 0xdb
 3604 1455 00       	 .byte 0
 3605 1456 02       	 .uleb128 0x2
 3606 1457 202D0000 	 .4byte .LASF372
 3607 145b 2F       	 .byte 0x2f
 3608 145c 2F       	 .byte 0x2f
 3609 145d 0A       	 .byte 0xa
 3610 145e C3000000 	 .4byte 0xc3
 3611 1462 04       	 .byte 0x4
 3612 1463 00       	 .byte 0
 3613 1464 0B       	 .uleb128 0xb
 3614 1465 3C140000 	 .4byte 0x143c
 3615 1469 04       	 .uleb128 0x4
 3616 146a 2B290000 	 .4byte .LASF373
 3617 146e 30       	 .byte 0x30
 3618 146f 8D       	 .byte 0x8d
 3619 1470 16       	 .byte 0x16
 3620 1471 2D000000 	 .4byte 0x2d
 3621 1475 04       	 .uleb128 0x4
 3622 1476 F03F0000 	 .4byte .LASF374
 3623 147a 2D       	 .byte 0x2d
 3624 147b 55       	 .byte 0x55
 3625 147c 10       	 .byte 0x10
 3626 147d 81140000 	 .4byte 0x1481
 3627 1481 05       	 .uleb128 0x5
 3628 1482 86140000 	 .4byte 0x1486
 3629 1486 0E       	 .uleb128 0xe
 3630 1487 91140000 	 .4byte 0x1491
 3631 148b 01       	 .uleb128 0x1
 3632 148c 91140000 	 .4byte 0x1491
 3633 1490 00       	 .byte 0
 3634 1491 05       	 .uleb128 0x5
 3635 1492 D20F0000 	 .4byte 0xfd2
 3636 1496 04       	 .uleb128 0x4
ARM GAS   			page 69


 3637 1497 5E370000 	 .4byte .LASF375
 3638 149b 2D       	 .byte 0x2d
 3639 149c 60       	 .byte 0x60
 3640 149d 10       	 .byte 0x10
 3641 149e 81140000 	 .4byte 0x1481
 3642 14a2 09       	 .uleb128 0x9
 3643 14a3 38       	 .byte 0x38
 3644 14a4 2D       	 .byte 0x2d
 3645 14a5 67       	 .byte 0x67
 3646 14a6 09       	 .byte 0x9
 3647 14a7 21150000 	 .4byte 0x1521
 3648 14ab 02       	 .uleb128 0x2
 3649 14ac D9270000 	 .4byte .LASF376
 3650 14b0 2D       	 .byte 0x2d
 3651 14b1 6B       	 .byte 0x6b
 3652 14b2 0F       	 .byte 0xf
 3653 14b3 3F030000 	 .4byte 0x33f
 3654 14b7 00       	 .byte 0
 3655 14b8 02       	 .uleb128 0x2
 3656 14b9 90140000 	 .4byte .LASF377
 3657 14bd 2D       	 .byte 0x2d
 3658 14be 70       	 .byte 0x70
 3659 14bf 0A       	 .byte 0xa
 3660 14c0 C3000000 	 .4byte 0xc3
 3661 14c4 04       	 .byte 0x4
 3662 14c5 02       	 .uleb128 0x2
 3663 14c6 E00C0000 	 .4byte .LASF378
 3664 14ca 2D       	 .byte 0x2d
 3665 14cb 76       	 .byte 0x76
 3666 14cc 0F       	 .byte 0xf
 3667 14cd 3F030000 	 .4byte 0x33f
 3668 14d1 08       	 .byte 0x8
 3669 14d2 02       	 .uleb128 0x2
 3670 14d3 33480000 	 .4byte .LASF379
 3671 14d7 2D       	 .byte 0x2d
 3672 14d8 7C       	 .byte 0x7c
 3673 14d9 0A       	 .byte 0xa
 3674 14da C3000000 	 .4byte 0xc3
 3675 14de 0C       	 .byte 0xc
 3676 14df 02       	 .uleb128 0x2
 3677 14e0 594A0000 	 .4byte .LASF287
 3678 14e4 2D       	 .byte 0x2d
 3679 14e5 8A       	 .byte 0x8a
 3680 14e6 07       	 .byte 0x7
 3681 14e7 74000000 	 .4byte 0x74
 3682 14eb 10       	 .byte 0x10
 3683 14ec 02       	 .uleb128 0x2
 3684 14ed 40000000 	 .4byte .LASF380
 3685 14f1 2D       	 .byte 0x2d
 3686 14f2 91       	 .byte 0x91
 3687 14f3 07       	 .byte 0x7
 3688 14f4 74000000 	 .4byte 0x74
 3689 14f8 14       	 .byte 0x14
 3690 14f9 02       	 .uleb128 0x2
 3691 14fa 3C480000 	 .4byte .LASF381
 3692 14fe 2D       	 .byte 0x2d
 3693 14ff 9A       	 .byte 0x9a
ARM GAS   			page 70


 3694 1500 24       	 .byte 0x24
 3695 1501 3B130000 	 .4byte 0x133b
 3696 1505 18       	 .byte 0x18
 3697 1506 02       	 .uleb128 0x2
 3698 1507 96060000 	 .4byte .LASF382
 3699 150b 2D       	 .byte 0x2d
 3700 150c A0       	 .byte 0xa0
 3701 150d 27       	 .byte 0x27
 3702 150e 21150000 	 .4byte 0x1521
 3703 1512 30       	 .byte 0x30
 3704 1513 02       	 .uleb128 0x2
 3705 1514 65480000 	 .4byte .LASF383
 3706 1518 2D       	 .byte 0x2d
 3707 1519 A6       	 .byte 0xa6
 3708 151a 27       	 .byte 0x27
 3709 151b 21150000 	 .4byte 0x1521
 3710 151f 34       	 .byte 0x34
 3711 1520 00       	 .byte 0
 3712 1521 05       	 .uleb128 0x5
 3713 1522 93130000 	 .4byte 0x1393
 3714 1526 04       	 .uleb128 0x4
 3715 1527 51360000 	 .4byte .LASF384
 3716 152b 2D       	 .byte 0x2d
 3717 152c A7       	 .byte 0xa7
 3718 152d 03       	 .byte 0x3
 3719 152e A2140000 	 .4byte 0x14a2
 3720 1532 04       	 .uleb128 0x4
 3721 1533 113E0000 	 .4byte .LASF385
 3722 1537 2D       	 .byte 0x2d
 3723 1538 B0       	 .byte 0xb0
 3724 1539 10       	 .byte 0x10
 3725 153a 3E150000 	 .4byte 0x153e
 3726 153e 05       	 .uleb128 0x5
 3727 153f 43150000 	 .4byte 0x1543
 3728 1543 0E       	 .uleb128 0xe
 3729 1544 4E150000 	 .4byte 0x154e
 3730 1548 01       	 .uleb128 0x1
 3731 1549 4E150000 	 .4byte 0x154e
 3732 154d 00       	 .byte 0
 3733 154e 05       	 .uleb128 0x5
 3734 154f 26150000 	 .4byte 0x1526
 3735 1553 04       	 .uleb128 0x4
 3736 1554 04480000 	 .4byte .LASF386
 3737 1558 2D       	 .byte 0x2d
 3738 1559 C1       	 .byte 0xc1
 3739 155a 0F       	 .byte 0xf
 3740 155b 5F150000 	 .4byte 0x155f
 3741 155f 05       	 .uleb128 0x5
 3742 1560 64150000 	 .4byte 0x1564
 3743 1564 0C       	 .uleb128 0xc
 3744 1565 74000000 	 .4byte 0x74
 3745 1569 82150000 	 .4byte 0x1582
 3746 156d 01       	 .uleb128 0x1
 3747 156e 82150000 	 .4byte 0x1582
 3748 1572 01       	 .uleb128 0x1
 3749 1573 82150000 	 .4byte 0x1582
 3750 1577 01       	 .uleb128 0x1
ARM GAS   			page 71


 3751 1578 3F030000 	 .4byte 0x33f
 3752 157c 01       	 .uleb128 0x1
 3753 157d C3000000 	 .4byte 0xc3
 3754 1581 00       	 .byte 0
 3755 1582 05       	 .uleb128 0x5
 3756 1583 47130000 	 .4byte 0x1347
 3757 1587 04       	 .uleb128 0x4
 3758 1588 32460000 	 .4byte .LASF387
 3759 158c 2D       	 .byte 0x2d
 3760 158d D3       	 .byte 0xd3
 3761 158e 0F       	 .byte 0xf
 3762 158f 93150000 	 .4byte 0x1593
 3763 1593 05       	 .uleb128 0x5
 3764 1594 98150000 	 .4byte 0x1598
 3765 1598 0C       	 .uleb128 0xc
 3766 1599 74000000 	 .4byte 0x74
 3767 159d AC150000 	 .4byte 0x15ac
 3768 15a1 01       	 .uleb128 0x1
 3769 15a2 82150000 	 .4byte 0x1582
 3770 15a6 01       	 .uleb128 0x1
 3771 15a7 A90C0000 	 .4byte 0xca9
 3772 15ab 00       	 .byte 0
 3773 15ac 04       	 .uleb128 0x4
 3774 15ad 8F190000 	 .4byte .LASF388
 3775 15b1 2D       	 .byte 0x2d
 3776 15b2 E4       	 .byte 0xe4
 3777 15b3 0F       	 .byte 0xf
 3778 15b4 B8150000 	 .4byte 0x15b8
 3779 15b8 05       	 .uleb128 0x5
 3780 15b9 BD150000 	 .4byte 0x15bd
 3781 15bd 0C       	 .uleb128 0xc
 3782 15be 74000000 	 .4byte 0x74
 3783 15c2 D6150000 	 .4byte 0x15d6
 3784 15c6 01       	 .uleb128 0x1
 3785 15c7 82150000 	 .4byte 0x1582
 3786 15cb 01       	 .uleb128 0x1
 3787 15cc 850C0000 	 .4byte 0xc85
 3788 15d0 01       	 .uleb128 0x1
 3789 15d1 910C0000 	 .4byte 0xc91
 3790 15d5 00       	 .byte 0
 3791 15d6 04       	 .uleb128 0x4
 3792 15d7 F4450000 	 .4byte .LASF389
 3793 15db 2D       	 .byte 0x2d
 3794 15dc F9       	 .byte 0xf9
 3795 15dd 0F       	 .byte 0xf
 3796 15de E2150000 	 .4byte 0x15e2
 3797 15e2 05       	 .uleb128 0x5
 3798 15e3 E7150000 	 .4byte 0x15e7
 3799 15e7 0C       	 .uleb128 0xc
 3800 15e8 74000000 	 .4byte 0x74
 3801 15ec F6150000 	 .4byte 0x15f6
 3802 15f0 01       	 .uleb128 0x1
 3803 15f1 F6150000 	 .4byte 0x15f6
 3804 15f5 00       	 .byte 0
 3805 15f6 05       	 .uleb128 0x5
 3806 15f7 3B130000 	 .4byte 0x133b
 3807 15fb 08       	 .uleb128 0x8
ARM GAS   			page 72


 3808 15fc 8D2A0000 	 .4byte .LASF390
 3809 1600 2D       	 .byte 0x2d
 3810 1601 0401     	 .2byte 0x104
 3811 1603 10       	 .byte 0x10
 3812 1604 08160000 	 .4byte 0x1608
 3813 1608 05       	 .uleb128 0x5
 3814 1609 0D160000 	 .4byte 0x160d
 3815 160d 0E       	 .uleb128 0xe
 3816 160e 18160000 	 .4byte 0x1618
 3817 1612 01       	 .uleb128 0x1
 3818 1613 82150000 	 .4byte 0x1582
 3819 1617 00       	 .byte 0
 3820 1618 08       	 .uleb128 0x8
 3821 1619 981B0000 	 .4byte .LASF391
 3822 161d 2D       	 .byte 0x2d
 3823 161e 1801     	 .2byte 0x118
 3824 1620 0F       	 .byte 0xf
 3825 1621 25160000 	 .4byte 0x1625
 3826 1625 05       	 .uleb128 0x5
 3827 1626 2A160000 	 .4byte 0x162a
 3828 162a 0C       	 .uleb128 0xc
 3829 162b 74000000 	 .4byte 0x74
 3830 162f 39160000 	 .4byte 0x1639
 3831 1633 01       	 .uleb128 0x1
 3832 1634 36130000 	 .4byte 0x1336
 3833 1638 00       	 .byte 0
 3834 1639 08       	 .uleb128 0x8
 3835 163a 6C300000 	 .4byte .LASF392
 3836 163e 2D       	 .byte 0x2d
 3837 163f 2801     	 .2byte 0x128
 3838 1641 0F       	 .byte 0xf
 3839 1642 46160000 	 .4byte 0x1646
 3840 1646 05       	 .uleb128 0x5
 3841 1647 4B160000 	 .4byte 0x164b
 3842 164b 0C       	 .uleb128 0xc
 3843 164c 74000000 	 .4byte 0x74
 3844 1650 5F160000 	 .4byte 0x165f
 3845 1654 01       	 .uleb128 0x1
 3846 1655 36130000 	 .4byte 0x1336
 3847 1659 01       	 .uleb128 0x1
 3848 165a 73030000 	 .4byte 0x373
 3849 165e 00       	 .byte 0
 3850 165f 08       	 .uleb128 0x8
 3851 1660 EC350000 	 .4byte .LASF393
 3852 1664 2D       	 .byte 0x2d
 3853 1665 3B01     	 .2byte 0x13b
 3854 1667 0F       	 .byte 0xf
 3855 1668 25160000 	 .4byte 0x1625
 3856 166c 08       	 .uleb128 0x8
 3857 166d FC1C0000 	 .4byte .LASF394
 3858 1671 2D       	 .byte 0x2d
 3859 1672 4A01     	 .2byte 0x14a
 3860 1674 10       	 .byte 0x10
 3861 1675 79160000 	 .4byte 0x1679
 3862 1679 05       	 .uleb128 0x5
 3863 167a 7E160000 	 .4byte 0x167e
 3864 167e 0E       	 .uleb128 0xe
ARM GAS   			page 73


 3865 167f 89160000 	 .4byte 0x1689
 3866 1683 01       	 .uleb128 0x1
 3867 1684 36130000 	 .4byte 0x1336
 3868 1688 00       	 .byte 0
 3869 1689 08       	 .uleb128 0x8
 3870 168a A3460000 	 .4byte .LASF395
 3871 168e 2D       	 .byte 0x2d
 3872 168f 5C01     	 .2byte 0x15c
 3873 1691 10       	 .byte 0x10
 3874 1692 96160000 	 .4byte 0x1696
 3875 1696 05       	 .uleb128 0x5
 3876 1697 9B160000 	 .4byte 0x169b
 3877 169b 0C       	 .uleb128 0xc
 3878 169c F5060000 	 .4byte 0x6f5
 3879 16a0 AF160000 	 .4byte 0x16af
 3880 16a4 01       	 .uleb128 0x1
 3881 16a5 82150000 	 .4byte 0x1582
 3882 16a9 01       	 .uleb128 0x1
 3883 16aa 82150000 	 .4byte 0x1582
 3884 16ae 00       	 .byte 0
 3885 16af 08       	 .uleb128 0x8
 3886 16b0 C2340000 	 .4byte .LASF396
 3887 16b4 2D       	 .byte 0x2d
 3888 16b5 7101     	 .2byte 0x171
 3889 16b7 0F       	 .byte 0xf
 3890 16b8 BC160000 	 .4byte 0x16bc
 3891 16bc 05       	 .uleb128 0x5
 3892 16bd C1160000 	 .4byte 0x16c1
 3893 16c1 0C       	 .uleb128 0xc
 3894 16c2 74000000 	 .4byte 0x74
 3895 16c6 E4160000 	 .4byte 0x16e4
 3896 16ca 01       	 .uleb128 0x1
 3897 16cb 82150000 	 .4byte 0x1582
 3898 16cf 01       	 .uleb128 0x1
 3899 16d0 3F030000 	 .4byte 0x33f
 3900 16d4 01       	 .uleb128 0x1
 3901 16d5 C3000000 	 .4byte 0xc3
 3902 16d9 01       	 .uleb128 0x1
 3903 16da A90C0000 	 .4byte 0xca9
 3904 16de 01       	 .uleb128 0x1
 3905 16df 790C0000 	 .4byte 0xc79
 3906 16e3 00       	 .byte 0
 3907 16e4 08       	 .uleb128 0x8
 3908 16e5 5F0F0000 	 .4byte .LASF397
 3909 16e9 2D       	 .byte 0x2d
 3910 16ea 8401     	 .2byte 0x184
 3911 16ec 0F       	 .byte 0xf
 3912 16ed F1160000 	 .4byte 0x16f1
 3913 16f1 05       	 .uleb128 0x5
 3914 16f2 F6160000 	 .4byte 0x16f6
 3915 16f6 0C       	 .uleb128 0xc
 3916 16f7 74000000 	 .4byte 0x74
 3917 16fb 0A170000 	 .4byte 0x170a
 3918 16ff 01       	 .uleb128 0x1
 3919 1700 82150000 	 .4byte 0x1582
 3920 1704 01       	 .uleb128 0x1
 3921 1705 82150000 	 .4byte 0x1582
ARM GAS   			page 74


 3922 1709 00       	 .byte 0
 3923 170a 08       	 .uleb128 0x8
 3924 170b CE480000 	 .4byte .LASF398
 3925 170f 2D       	 .byte 0x2d
 3926 1710 9401     	 .2byte 0x194
 3927 1712 0F       	 .byte 0xf
 3928 1713 17170000 	 .4byte 0x1717
 3929 1717 05       	 .uleb128 0x5
 3930 1718 1C170000 	 .4byte 0x171c
 3931 171c 0C       	 .uleb128 0xc
 3932 171d 74000000 	 .4byte 0x74
 3933 1721 30170000 	 .4byte 0x1730
 3934 1725 01       	 .uleb128 0x1
 3935 1726 82150000 	 .4byte 0x1582
 3936 172a 01       	 .uleb128 0x1
 3937 172b 30170000 	 .4byte 0x1730
 3938 172f 00       	 .byte 0
 3939 1730 05       	 .uleb128 0x5
 3940 1731 81050000 	 .4byte 0x581
 3941 1735 08       	 .uleb128 0x8
 3942 1736 271E0000 	 .4byte .LASF399
 3943 173a 2D       	 .byte 0x2d
 3944 173b A701     	 .2byte 0x1a7
 3945 173d 0F       	 .byte 0xf
 3946 173e 42170000 	 .4byte 0x1742
 3947 1742 05       	 .uleb128 0x5
 3948 1743 47170000 	 .4byte 0x1747
 3949 1747 0C       	 .uleb128 0xc
 3950 1748 74000000 	 .4byte 0x74
 3951 174c 65170000 	 .4byte 0x1765
 3952 1750 01       	 .uleb128 0x1
 3953 1751 82150000 	 .4byte 0x1582
 3954 1755 01       	 .uleb128 0x1
 3955 1756 3F030000 	 .4byte 0x33f
 3956 175a 01       	 .uleb128 0x1
 3957 175b C3000000 	 .4byte 0xc3
 3958 175f 01       	 .uleb128 0x1
 3959 1760 3F030000 	 .4byte 0x33f
 3960 1764 00       	 .byte 0
 3961 1765 08       	 .uleb128 0x8
 3962 1766 1E1B0000 	 .4byte .LASF400
 3963 176a 2D       	 .byte 0x2d
 3964 176b BA01     	 .2byte 0x1ba
 3965 176d 13       	 .byte 0x13
 3966 176e 72170000 	 .4byte 0x1772
 3967 1772 05       	 .uleb128 0x5
 3968 1773 77170000 	 .4byte 0x1777
 3969 1777 0C       	 .uleb128 0xc
 3970 1778 67030000 	 .4byte 0x367
 3971 177c 90170000 	 .4byte 0x1790
 3972 1780 01       	 .uleb128 0x1
 3973 1781 82150000 	 .4byte 0x1582
 3974 1785 01       	 .uleb128 0x1
 3975 1786 56030000 	 .4byte 0x356
 3976 178a 01       	 .uleb128 0x1
 3977 178b C3000000 	 .4byte 0xc3
 3978 178f 00       	 .byte 0
ARM GAS   			page 75


 3979 1790 08       	 .uleb128 0x8
 3980 1791 A82E0000 	 .4byte .LASF401
 3981 1795 2D       	 .byte 0x2d
 3982 1796 CE01     	 .2byte 0x1ce
 3983 1798 0F       	 .byte 0xf
 3984 1799 9D170000 	 .4byte 0x179d
 3985 179d 05       	 .uleb128 0x5
 3986 179e A2170000 	 .4byte 0x17a2
 3987 17a2 0C       	 .uleb128 0xc
 3988 17a3 74000000 	 .4byte 0x74
 3989 17a7 C5170000 	 .4byte 0x17c5
 3990 17ab 01       	 .uleb128 0x1
 3991 17ac 82150000 	 .4byte 0x1582
 3992 17b0 01       	 .uleb128 0x1
 3993 17b1 82150000 	 .4byte 0x1582
 3994 17b5 01       	 .uleb128 0x1
 3995 17b6 82150000 	 .4byte 0x1582
 3996 17ba 01       	 .uleb128 0x1
 3997 17bb 3F030000 	 .4byte 0x33f
 3998 17bf 01       	 .uleb128 0x1
 3999 17c0 C3000000 	 .4byte 0xc3
 4000 17c4 00       	 .byte 0
 4001 17c5 08       	 .uleb128 0x8
 4002 17c6 9C220000 	 .4byte .LASF402
 4003 17ca 2D       	 .byte 0x2d
 4004 17cb E101     	 .2byte 0x1e1
 4005 17cd 0F       	 .byte 0xf
 4006 17ce D2170000 	 .4byte 0x17d2
 4007 17d2 05       	 .uleb128 0x5
 4008 17d3 D7170000 	 .4byte 0x17d7
 4009 17d7 0C       	 .uleb128 0xc
 4010 17d8 74000000 	 .4byte 0x74
 4011 17dc EB170000 	 .4byte 0x17eb
 4012 17e0 01       	 .uleb128 0x1
 4013 17e1 82150000 	 .4byte 0x1582
 4014 17e5 01       	 .uleb128 0x1
 4015 17e6 EB170000 	 .4byte 0x17eb
 4016 17ea 00       	 .byte 0
 4017 17eb 05       	 .uleb128 0x5
 4018 17ec 9F130000 	 .4byte 0x139f
 4019 17f0 08       	 .uleb128 0x8
 4020 17f1 7E220000 	 .4byte .LASF403
 4021 17f5 2D       	 .byte 0x2d
 4022 17f6 E502     	 .2byte 0x2e5
 4023 17f8 0F       	 .byte 0xf
 4024 17f9 FD170000 	 .4byte 0x17fd
 4025 17fd 05       	 .uleb128 0x5
 4026 17fe 02180000 	 .4byte 0x1802
 4027 1802 0C       	 .uleb128 0xc
 4028 1803 74000000 	 .4byte 0x74
 4029 1807 20180000 	 .4byte 0x1820
 4030 180b 01       	 .uleb128 0x1
 4031 180c 20180000 	 .4byte 0x1820
 4032 1810 01       	 .uleb128 0x1
 4033 1811 3F030000 	 .4byte 0x33f
 4034 1815 01       	 .uleb128 0x1
 4035 1816 74000000 	 .4byte 0x74
ARM GAS   			page 76


 4036 181a 01       	 .uleb128 0x1
 4037 181b A90C0000 	 .4byte 0xca9
 4038 181f 00       	 .byte 0
 4039 1820 05       	 .uleb128 0x5
 4040 1821 650F0000 	 .4byte 0xf65
 4041 1825 08       	 .uleb128 0x8
 4042 1826 EA460000 	 .4byte .LASF404
 4043 182a 2D       	 .byte 0x2d
 4044 182b F602     	 .2byte 0x2f6
 4045 182d 0F       	 .byte 0xf
 4046 182e 32180000 	 .4byte 0x1832
 4047 1832 05       	 .uleb128 0x5
 4048 1833 37180000 	 .4byte 0x1837
 4049 1837 0C       	 .uleb128 0xc
 4050 1838 74000000 	 .4byte 0x74
 4051 183c 46180000 	 .4byte 0x1846
 4052 1840 01       	 .uleb128 0x1
 4053 1841 20180000 	 .4byte 0x1820
 4054 1845 00       	 .byte 0
 4055 1846 08       	 .uleb128 0x8
 4056 1847 F4250000 	 .4byte .LASF405
 4057 184b 2D       	 .byte 0x2d
 4058 184c 0803     	 .2byte 0x308
 4059 184e 13       	 .byte 0x13
 4060 184f 53180000 	 .4byte 0x1853
 4061 1853 05       	 .uleb128 0x5
 4062 1854 58180000 	 .4byte 0x1858
 4063 1858 0C       	 .uleb128 0xc
 4064 1859 67030000 	 .4byte 0x367
 4065 185d 71180000 	 .4byte 0x1871
 4066 1861 01       	 .uleb128 0x1
 4067 1862 20180000 	 .4byte 0x1820
 4068 1866 01       	 .uleb128 0x1
 4069 1867 DB000000 	 .4byte 0xdb
 4070 186b 01       	 .uleb128 0x1
 4071 186c C3000000 	 .4byte 0xc3
 4072 1870 00       	 .byte 0
 4073 1871 08       	 .uleb128 0x8
 4074 1872 E91B0000 	 .4byte .LASF406
 4075 1876 2D       	 .byte 0x2d
 4076 1877 1E03     	 .2byte 0x31e
 4077 1879 13       	 .byte 0x13
 4078 187a 7E180000 	 .4byte 0x187e
 4079 187e 05       	 .uleb128 0x5
 4080 187f 83180000 	 .4byte 0x1883
 4081 1883 0C       	 .uleb128 0xc
 4082 1884 67030000 	 .4byte 0x367
 4083 1888 A1180000 	 .4byte 0x18a1
 4084 188c 01       	 .uleb128 0x1
 4085 188d 20180000 	 .4byte 0x1820
 4086 1891 01       	 .uleb128 0x1
 4087 1892 A1180000 	 .4byte 0x18a1
 4088 1896 01       	 .uleb128 0x1
 4089 1897 74000000 	 .4byte 0x74
 4090 189b 01       	 .uleb128 0x1
 4091 189c 67030000 	 .4byte 0x367
 4092 18a0 00       	 .byte 0
ARM GAS   			page 77


 4093 18a1 05       	 .uleb128 0x5
 4094 18a2 64140000 	 .4byte 0x1464
 4095 18a6 08       	 .uleb128 0x8
 4096 18a7 FF020000 	 .4byte .LASF407
 4097 18ab 2D       	 .byte 0x2d
 4098 18ac 3303     	 .2byte 0x333
 4099 18ae 13       	 .byte 0x13
 4100 18af B3180000 	 .4byte 0x18b3
 4101 18b3 05       	 .uleb128 0x5
 4102 18b4 B8180000 	 .4byte 0x18b8
 4103 18b8 0C       	 .uleb128 0xc
 4104 18b9 67030000 	 .4byte 0x367
 4105 18bd D1180000 	 .4byte 0x18d1
 4106 18c1 01       	 .uleb128 0x1
 4107 18c2 20180000 	 .4byte 0x1820
 4108 18c6 01       	 .uleb128 0x1
 4109 18c7 73030000 	 .4byte 0x373
 4110 18cb 01       	 .uleb128 0x1
 4111 18cc C3000000 	 .4byte 0xc3
 4112 18d0 00       	 .byte 0
 4113 18d1 08       	 .uleb128 0x8
 4114 18d2 2E190000 	 .4byte .LASF408
 4115 18d6 2D       	 .byte 0x2d
 4116 18d7 4903     	 .2byte 0x349
 4117 18d9 13       	 .byte 0x13
 4118 18da 7E180000 	 .4byte 0x187e
 4119 18de 08       	 .uleb128 0x8
 4120 18df D8010000 	 .4byte .LASF409
 4121 18e3 2D       	 .byte 0x2d
 4122 18e4 5C03     	 .2byte 0x35c
 4123 18e6 0F       	 .byte 0xf
 4124 18e7 EB180000 	 .4byte 0x18eb
 4125 18eb 05       	 .uleb128 0x5
 4126 18ec F0180000 	 .4byte 0x18f0
 4127 18f0 0C       	 .uleb128 0xc
 4128 18f1 74000000 	 .4byte 0x74
 4129 18f5 09190000 	 .4byte 0x1909
 4130 18f9 01       	 .uleb128 0x1
 4131 18fa 20180000 	 .4byte 0x1820
 4132 18fe 01       	 .uleb128 0x1
 4133 18ff D90E0000 	 .4byte 0xed9
 4134 1903 01       	 .uleb128 0x1
 4135 1904 DB000000 	 .4byte 0xdb
 4136 1908 00       	 .byte 0
 4137 1909 08       	 .uleb128 0x8
 4138 190a 152C0000 	 .4byte .LASF410
 4139 190e 2D       	 .byte 0x2d
 4140 190f 7003     	 .2byte 0x370
 4141 1911 11       	 .byte 0x11
 4142 1912 16190000 	 .4byte 0x1916
 4143 1916 05       	 .uleb128 0x5
 4144 1917 1B190000 	 .4byte 0x191b
 4145 191b 0C       	 .uleb128 0xc
 4146 191c 5B030000 	 .4byte 0x35b
 4147 1920 34190000 	 .4byte 0x1934
 4148 1924 01       	 .uleb128 0x1
 4149 1925 20180000 	 .4byte 0x1820
ARM GAS   			page 78


 4150 1929 01       	 .uleb128 0x1
 4151 192a 5B030000 	 .4byte 0x35b
 4152 192e 01       	 .uleb128 0x1
 4153 192f 74000000 	 .4byte 0x74
 4154 1933 00       	 .byte 0
 4155 1934 08       	 .uleb128 0x8
 4156 1935 94300000 	 .4byte .LASF411
 4157 1939 2D       	 .byte 0x2d
 4158 193a 8103     	 .2byte 0x381
 4159 193c 0F       	 .byte 0xf
 4160 193d 41190000 	 .4byte 0x1941
 4161 1941 05       	 .uleb128 0x5
 4162 1942 46190000 	 .4byte 0x1946
 4163 1946 0C       	 .uleb128 0xc
 4164 1947 74000000 	 .4byte 0x74
 4165 194b 5A190000 	 .4byte 0x195a
 4166 194f 01       	 .uleb128 0x1
 4167 1950 82150000 	 .4byte 0x1582
 4168 1954 01       	 .uleb128 0x1
 4169 1955 5A190000 	 .4byte 0x195a
 4170 1959 00       	 .byte 0
 4171 195a 05       	 .uleb128 0x5
 4172 195b 220E0000 	 .4byte 0xe22
 4173 195f 08       	 .uleb128 0x8
 4174 1960 03470000 	 .4byte .LASF412
 4175 1964 2D       	 .byte 0x2d
 4176 1965 9203     	 .2byte 0x392
 4177 1967 0F       	 .byte 0xf
 4178 1968 6C190000 	 .4byte 0x196c
 4179 196c 05       	 .uleb128 0x5
 4180 196d 71190000 	 .4byte 0x1971
 4181 1971 0C       	 .uleb128 0xc
 4182 1972 74000000 	 .4byte 0x74
 4183 1976 85190000 	 .4byte 0x1985
 4184 197a 01       	 .uleb128 0x1
 4185 197b 20180000 	 .4byte 0x1820
 4186 197f 01       	 .uleb128 0x1
 4187 1980 5B030000 	 .4byte 0x35b
 4188 1984 00       	 .byte 0
 4189 1985 08       	 .uleb128 0x8
 4190 1986 38410000 	 .4byte .LASF413
 4191 198a 2D       	 .byte 0x2d
 4192 198b A203     	 .2byte 0x3a2
 4193 198d 0F       	 .byte 0xf
 4194 198e 32180000 	 .4byte 0x1832
 4195 1992 08       	 .uleb128 0x8
 4196 1993 2E230000 	 .4byte .LASF414
 4197 1997 2D       	 .byte 0x2d
 4198 1998 B103     	 .2byte 0x3b1
 4199 199a 0F       	 .byte 0xf
 4200 199b 32180000 	 .4byte 0x1832
 4201 199f 08       	 .uleb128 0x8
 4202 19a0 13110000 	 .4byte .LASF415
 4203 19a4 2D       	 .byte 0x2d
 4204 19a5 C003     	 .2byte 0x3c0
 4205 19a7 0F       	 .byte 0xf
 4206 19a8 AC190000 	 .4byte 0x19ac
ARM GAS   			page 79


 4207 19ac 05       	 .uleb128 0x5
 4208 19ad B1190000 	 .4byte 0x19b1
 4209 19b1 0C       	 .uleb128 0xc
 4210 19b2 74000000 	 .4byte 0x74
 4211 19b6 C5190000 	 .4byte 0x19c5
 4212 19ba 01       	 .uleb128 0x1
 4213 19bb 20180000 	 .4byte 0x1820
 4214 19bf 01       	 .uleb128 0x1
 4215 19c0 74000000 	 .4byte 0x74
 4216 19c4 00       	 .byte 0
 4217 19c5 08       	 .uleb128 0x8
 4218 19c6 52180000 	 .4byte .LASF416
 4219 19ca 2D       	 .byte 0x2d
 4220 19cb CF03     	 .2byte 0x3cf
 4221 19cd 0F       	 .byte 0xf
 4222 19ce AC190000 	 .4byte 0x19ac
 4223 19d2 08       	 .uleb128 0x8
 4224 19d3 7F4A0000 	 .4byte .LASF417
 4225 19d7 2D       	 .byte 0x2d
 4226 19d8 DF03     	 .2byte 0x3df
 4227 19da 0F       	 .byte 0xf
 4228 19db DF190000 	 .4byte 0x19df
 4229 19df 05       	 .uleb128 0x5
 4230 19e0 E4190000 	 .4byte 0x19e4
 4231 19e4 0C       	 .uleb128 0xc
 4232 19e5 74000000 	 .4byte 0x74
 4233 19e9 F8190000 	 .4byte 0x19f8
 4234 19ed 01       	 .uleb128 0x1
 4235 19ee 20180000 	 .4byte 0x1820
 4236 19f2 01       	 .uleb128 0x1
 4237 19f3 F8190000 	 .4byte 0x19f8
 4238 19f7 00       	 .byte 0
 4239 19f8 05       	 .uleb128 0x5
 4240 19f9 FD190000 	 .4byte 0x19fd
 4241 19fd 31       	 .uleb128 0x31
 4242 19fe A4050000 	 .4byte .LASF574
 4243 1a02 08       	 .uleb128 0x8
 4244 1a03 A01D0000 	 .4byte .LASF418
 4245 1a07 2D       	 .byte 0x2d
 4246 1a08 F203     	 .2byte 0x3f2
 4247 1a0a 0F       	 .byte 0xf
 4248 1a0b 0F1A0000 	 .4byte 0x1a0f
 4249 1a0f 05       	 .uleb128 0x5
 4250 1a10 141A0000 	 .4byte 0x1a14
 4251 1a14 0C       	 .uleb128 0xc
 4252 1a15 74000000 	 .4byte 0x74
 4253 1a19 371A0000 	 .4byte 0x1a37
 4254 1a1d 01       	 .uleb128 0x1
 4255 1a1e 20180000 	 .4byte 0x1820
 4256 1a22 01       	 .uleb128 0x1
 4257 1a23 371A0000 	 .4byte 0x1a37
 4258 1a27 01       	 .uleb128 0x1
 4259 1a28 C3000000 	 .4byte 0xc3
 4260 1a2c 01       	 .uleb128 0x1
 4261 1a2d 74000000 	 .4byte 0x74
 4262 1a31 01       	 .uleb128 0x1
 4263 1a32 5B030000 	 .4byte 0x35b
ARM GAS   			page 80


 4264 1a36 00       	 .byte 0
 4265 1a37 05       	 .uleb128 0x5
 4266 1a38 DB000000 	 .4byte 0xdb
 4267 1a3c 11       	 .uleb128 0x11
 4268 1a3d 30       	 .byte 0x30
 4269 1a3e 2D       	 .byte 0x2d
 4270 1a3f 1B05     	 .2byte 0x51b
 4271 1a41 09       	 .byte 0x9
 4272 1a42 EF1A0000 	 .4byte 0x1aef
 4273 1a46 03       	 .uleb128 0x3
 4274 1a47 B5310000 	 .4byte .LASF419
 4275 1a4b 2D       	 .byte 0x2d
 4276 1a4c 1C05     	 .2byte 0x51c
 4277 1a4e 0A       	 .byte 0xa
 4278 1a4f 74000000 	 .4byte 0x74
 4279 1a53 00       	 .byte 0
 4280 1a54 03       	 .uleb128 0x3
 4281 1a55 25200000 	 .4byte .LASF420
 4282 1a59 2D       	 .byte 0x2d
 4283 1a5a 1D05     	 .2byte 0x51d
 4284 1a5c 0A       	 .byte 0xa
 4285 1a5d 74000000 	 .4byte 0x74
 4286 1a61 04       	 .byte 0x4
 4287 1a62 03       	 .uleb128 0x3
 4288 1a63 D2420000 	 .4byte .LASF421
 4289 1a67 2D       	 .byte 0x2d
 4290 1a68 1E05     	 .2byte 0x51e
 4291 1a6a 0A       	 .byte 0xa
 4292 1a6b 74000000 	 .4byte 0x74
 4293 1a6f 08       	 .byte 0x8
 4294 1a70 03       	 .uleb128 0x3
 4295 1a71 EF0B0000 	 .4byte .LASF422
 4296 1a75 2D       	 .byte 0x2d
 4297 1a76 1F05     	 .2byte 0x51f
 4298 1a78 0A       	 .byte 0xa
 4299 1a79 74000000 	 .4byte 0x74
 4300 1a7d 0C       	 .byte 0xc
 4301 1a7e 03       	 .uleb128 0x3
 4302 1a7f EB450000 	 .4byte .LASF423
 4303 1a83 2D       	 .byte 0x2d
 4304 1a84 2005     	 .2byte 0x520
 4305 1a86 0A       	 .byte 0xa
 4306 1a87 74000000 	 .4byte 0x74
 4307 1a8b 10       	 .byte 0x10
 4308 1a8c 03       	 .uleb128 0x3
 4309 1a8d C2010000 	 .4byte .LASF424
 4310 1a91 2D       	 .byte 0x2d
 4311 1a92 2105     	 .2byte 0x521
 4312 1a94 0A       	 .byte 0xa
 4313 1a95 74000000 	 .4byte 0x74
 4314 1a99 14       	 .byte 0x14
 4315 1a9a 03       	 .uleb128 0x3
 4316 1a9b 164A0000 	 .4byte .LASF425
 4317 1a9f 2D       	 .byte 0x2d
 4318 1aa0 2205     	 .2byte 0x522
 4319 1aa2 0A       	 .byte 0xa
 4320 1aa3 74000000 	 .4byte 0x74
ARM GAS   			page 81


 4321 1aa7 18       	 .byte 0x18
 4322 1aa8 03       	 .uleb128 0x3
 4323 1aa9 06370000 	 .4byte .LASF426
 4324 1aad 2D       	 .byte 0x2d
 4325 1aae 2305     	 .2byte 0x523
 4326 1ab0 0A       	 .byte 0xa
 4327 1ab1 74000000 	 .4byte 0x74
 4328 1ab5 1C       	 .byte 0x1c
 4329 1ab6 03       	 .uleb128 0x3
 4330 1ab7 70040000 	 .4byte .LASF427
 4331 1abb 2D       	 .byte 0x2d
 4332 1abc 2405     	 .2byte 0x524
 4333 1abe 0A       	 .byte 0xa
 4334 1abf 74000000 	 .4byte 0x74
 4335 1ac3 20       	 .byte 0x20
 4336 1ac4 03       	 .uleb128 0x3
 4337 1ac5 23320000 	 .4byte .LASF428
 4338 1ac9 2D       	 .byte 0x2d
 4339 1aca 2505     	 .2byte 0x525
 4340 1acc 0A       	 .byte 0xa
 4341 1acd 74000000 	 .4byte 0x74
 4342 1ad1 24       	 .byte 0x24
 4343 1ad2 03       	 .uleb128 0x3
 4344 1ad3 8E010000 	 .4byte .LASF429
 4345 1ad7 2D       	 .byte 0x2d
 4346 1ad8 2605     	 .2byte 0x526
 4347 1ada 0A       	 .byte 0xa
 4348 1adb 74000000 	 .4byte 0x74
 4349 1adf 28       	 .byte 0x28
 4350 1ae0 03       	 .uleb128 0x3
 4351 1ae1 08080000 	 .4byte .LASF430
 4352 1ae5 2D       	 .byte 0x2d
 4353 1ae6 2705     	 .2byte 0x527
 4354 1ae8 0A       	 .byte 0xa
 4355 1ae9 74000000 	 .4byte 0x74
 4356 1aed 2C       	 .byte 0x2c
 4357 1aee 00       	 .byte 0
 4358 1aef 08       	 .uleb128 0x8
 4359 1af0 B10F0000 	 .4byte .LASF431
 4360 1af4 2D       	 .byte 0x2d
 4361 1af5 2805     	 .2byte 0x528
 4362 1af7 03       	 .byte 0x3
 4363 1af8 3C1A0000 	 .4byte 0x1a3c
 4364 1afc 0B       	 .uleb128 0xb
 4365 1afd EF1A0000 	 .4byte 0x1aef
 4366 1b01 05       	 .uleb128 0x5
 4367 1b02 C4110000 	 .4byte 0x11c4
 4368 1b06 05       	 .uleb128 0x5
 4369 1b07 FC1A0000 	 .4byte 0x1afc
 4370 1b0b 29       	 .uleb128 0x29
 4371 1b0c 2D000000 	 .4byte 0x2d
 4372 1b10 2D       	 .byte 0x2d
 4373 1b11 8206     	 .2byte 0x682
 4374 1b13 2A1B0000 	 .4byte 0x1b2a
 4375 1b17 07       	 .uleb128 0x7
 4376 1b18 723C0000 	 .4byte .LASF432
 4377 1b1c 00       	 .byte 0
ARM GAS   			page 82


 4378 1b1d 07       	 .uleb128 0x7
 4379 1b1e 632C0000 	 .4byte .LASF433
 4380 1b22 01       	 .byte 0x1
 4381 1b23 07       	 .uleb128 0x7
 4382 1b24 A72C0000 	 .4byte .LASF434
 4383 1b28 02       	 .byte 0x2
 4384 1b29 00       	 .byte 0
 4385 1b2a 08       	 .uleb128 0x8
 4386 1b2b AA470000 	 .4byte .LASF435
 4387 1b2f 2D       	 .byte 0x2d
 4388 1b30 8606     	 .2byte 0x686
 4389 1b32 03       	 .byte 0x3
 4390 1b33 0B1B0000 	 .4byte 0x1b0b
 4391 1b37 18       	 .uleb128 0x18
 4392 1b38 9C480000 	 .4byte .LASF436
 4393 1b3c 08       	 .byte 0x8
 4394 1b3d 2D       	 .byte 0x2d
 4395 1b3e 8B06     	 .2byte 0x68b
 4396 1b40 10       	 .byte 0x10
 4397 1b41 621B0000 	 .4byte 0x1b62
 4398 1b45 03       	 .uleb128 0x3
 4399 1b46 B10D0000 	 .4byte .LASF305
 4400 1b4a 2D       	 .byte 0x2d
 4401 1b4b 8C06     	 .2byte 0x68c
 4402 1b4d 22       	 .byte 0x22
 4403 1b4e 3F030000 	 .4byte 0x33f
 4404 1b52 00       	 .byte 0
 4405 1b53 03       	 .uleb128 0x3
 4406 1b54 19130000 	 .4byte .LASF338
 4407 1b58 2D       	 .byte 0x2d
 4408 1b59 8D06     	 .2byte 0x68d
 4409 1b5b 22       	 .byte 0x22
 4410 1b5c 39160000 	 .4byte 0x1639
 4411 1b60 04       	 .byte 0x4
 4412 1b61 00       	 .byte 0
 4413 1b62 08       	 .uleb128 0x8
 4414 1b63 9C480000 	 .4byte .LASF436
 4415 1b67 2D       	 .byte 0x2d
 4416 1b68 8E06     	 .2byte 0x68e
 4417 1b6a 03       	 .byte 0x3
 4418 1b6b 371B0000 	 .4byte 0x1b37
 4419 1b6f 0B       	 .uleb128 0xb
 4420 1b70 621B0000 	 .4byte 0x1b62
 4421 1b74 0A       	 .uleb128 0xa
 4422 1b75 6F1B0000 	 .4byte 0x1b6f
 4423 1b79 7F1B0000 	 .4byte 0x1b7f
 4424 1b7d 1C       	 .uleb128 0x1c
 4425 1b7e 00       	 .byte 0
 4426 1b7f 0B       	 .uleb128 0xb
 4427 1b80 741B0000 	 .4byte 0x1b74
 4428 1b84 16       	 .uleb128 0x16
 4429 1b85 AA2F0000 	 .4byte .LASF437
 4430 1b89 2D       	 .byte 0x2d
 4431 1b8a 9506     	 .2byte 0x695
 4432 1b8c 27       	 .byte 0x27
 4433 1b8d 7F1B0000 	 .4byte 0x1b7f
 4434 1b91 11       	 .uleb128 0x11
ARM GAS   			page 83


 4435 1b92 14       	 .byte 0x14
 4436 1b93 2D       	 .byte 0x2d
 4437 1b94 5207     	 .2byte 0x752
 4438 1b96 09       	 .byte 0x9
 4439 1b97 E21B0000 	 .4byte 0x1be2
 4440 1b9b 03       	 .uleb128 0x3
 4441 1b9c F0080000 	 .4byte .LASF438
 4442 1ba0 2D       	 .byte 0x2d
 4443 1ba1 5307     	 .2byte 0x753
 4444 1ba3 0F       	 .byte 0xf
 4445 1ba4 3F030000 	 .4byte 0x33f
 4446 1ba8 00       	 .byte 0
 4447 1ba9 03       	 .uleb128 0x3
 4448 1baa AD110000 	 .4byte .LASF304
 4449 1bae 2D       	 .byte 0x2d
 4450 1baf 5407     	 .2byte 0x754
 4451 1bb1 0F       	 .byte 0xf
 4452 1bb2 3F030000 	 .4byte 0x33f
 4453 1bb6 04       	 .byte 0x4
 4454 1bb7 03       	 .uleb128 0x3
 4455 1bb8 421D0000 	 .4byte .LASF439
 4456 1bbc 2D       	 .byte 0x2d
 4457 1bbd 5507     	 .2byte 0x755
 4458 1bbf 0F       	 .byte 0xf
 4459 1bc0 3F030000 	 .4byte 0x33f
 4460 1bc4 08       	 .byte 0x8
 4461 1bc5 03       	 .uleb128 0x3
 4462 1bc6 F4490000 	 .4byte .LASF440
 4463 1bca 2D       	 .byte 0x2d
 4464 1bcb 5607     	 .2byte 0x756
 4465 1bcd 1E       	 .byte 0x1e
 4466 1bce 2A1B0000 	 .4byte 0x1b2a
 4467 1bd2 0C       	 .byte 0xc
 4468 1bd3 03       	 .uleb128 0x3
 4469 1bd4 A4380000 	 .4byte .LASF441
 4470 1bd8 2D       	 .byte 0x2d
 4471 1bd9 5707     	 .2byte 0x757
 4472 1bdb 0F       	 .byte 0xf
 4473 1bdc 73030000 	 .4byte 0x373
 4474 1be0 10       	 .byte 0x10
 4475 1be1 00       	 .byte 0
 4476 1be2 08       	 .uleb128 0x8
 4477 1be3 2D180000 	 .4byte .LASF442
 4478 1be7 2D       	 .byte 0x2d
 4479 1be8 5807     	 .2byte 0x758
 4480 1bea 03       	 .byte 0x3
 4481 1beb 911B0000 	 .4byte 0x1b91
 4482 1bef 0B       	 .uleb128 0xb
 4483 1bf0 E21B0000 	 .4byte 0x1be2
 4484 1bf4 16       	 .uleb128 0x16
 4485 1bf5 C6460000 	 .4byte .LASF443
 4486 1bf9 2D       	 .byte 0x2d
 4487 1bfa 5B07     	 .2byte 0x75b
 4488 1bfc 03       	 .byte 0x3
 4489 1bfd EF1B0000 	 .4byte 0x1bef
 4490 1c01 04       	 .uleb128 0x4
 4491 1c02 942F0000 	 .4byte .LASF444
ARM GAS   			page 84


 4492 1c06 31       	 .byte 0x31
 4493 1c07 4A       	 .byte 0x4a
 4494 1c08 0F       	 .byte 0xf
 4495 1c09 0D1C0000 	 .4byte 0x1c0d
 4496 1c0d 05       	 .uleb128 0x5
 4497 1c0e 121C0000 	 .4byte 0x1c12
 4498 1c12 0C       	 .uleb128 0xc
 4499 1c13 74000000 	 .4byte 0x74
 4500 1c17 261C0000 	 .4byte 0x1c26
 4501 1c1b 01       	 .uleb128 0x1
 4502 1c1c 74000000 	 .4byte 0x74
 4503 1c20 01       	 .uleb128 0x1
 4504 1c21 1D0E0000 	 .4byte 0xe1d
 4505 1c25 00       	 .byte 0
 4506 1c26 04       	 .uleb128 0x4
 4507 1c27 43140000 	 .4byte .LASF445
 4508 1c2b 31       	 .byte 0x31
 4509 1c2c 4D       	 .byte 0x4d
 4510 1c2d 23       	 .byte 0x23
 4511 1c2e 321C0000 	 .4byte 0x1c32
 4512 1c32 13       	 .uleb128 0x13
 4513 1c33 60220000 	 .4byte .LASF446
 4514 1c37 20       	 .byte 0x20
 4515 1c38 31       	 .byte 0x31
 4516 1c39 4F       	 .byte 0x4f
 4517 1c3a 08       	 .byte 0x8
 4518 1c3b B51C0000 	 .4byte 0x1cb5
 4519 1c3f 02       	 .uleb128 0x2
 4520 1c40 5B220000 	 .4byte .LASF150
 4521 1c44 31       	 .byte 0x31
 4522 1c45 50       	 .byte 0x50
 4523 1c46 1A       	 .byte 0x1a
 4524 1c47 3F030000 	 .4byte 0x33f
 4525 1c4b 00       	 .byte 0
 4526 1c4c 02       	 .uleb128 0x2
 4527 1c4d 96220000 	 .4byte .LASF447
 4528 1c51 31       	 .byte 0x31
 4529 1c52 51       	 .byte 0x51
 4530 1c53 1A       	 .byte 0x1a
 4531 1c54 3F030000 	 .4byte 0x33f
 4532 1c58 04       	 .byte 0x4
 4533 1c59 02       	 .uleb128 0x2
 4534 1c5a A3330000 	 .4byte .LASF448
 4535 1c5e 31       	 .byte 0x31
 4536 1c5f 52       	 .byte 0x52
 4537 1c60 1A       	 .byte 0x1a
 4538 1c61 3F030000 	 .4byte 0x33f
 4539 1c65 08       	 .byte 0x8
 4540 1c66 02       	 .uleb128 0x2
 4541 1c67 161B0000 	 .4byte .LASF449
 4542 1c6b 31       	 .byte 0x31
 4543 1c6c 53       	 .byte 0x53
 4544 1c6d 1A       	 .byte 0x1a
 4545 1c6e 011C0000 	 .4byte 0x1c01
 4546 1c72 0C       	 .byte 0xc
 4547 1c73 02       	 .uleb128 0x2
 4548 1c74 79230000 	 .4byte .LASF450
ARM GAS   			page 85


 4549 1c78 31       	 .byte 0x31
 4550 1c79 54       	 .byte 0x54
 4551 1c7a 1A       	 .byte 0x1a
 4552 1c7b B51C0000 	 .4byte 0x1cb5
 4553 1c7f 10       	 .byte 0x10
 4554 1c80 02       	 .uleb128 0x2
 4555 1c81 7F040000 	 .4byte .LASF200
 4556 1c85 31       	 .byte 0x31
 4557 1c86 55       	 .byte 0x55
 4558 1c87 1A       	 .byte 0x1a
 4559 1c88 B51C0000 	 .4byte 0x1cb5
 4560 1c8c 14       	 .byte 0x14
 4561 1c8d 02       	 .uleb128 0x2
 4562 1c8e 260F0000 	 .4byte .LASF451
 4563 1c92 31       	 .byte 0x31
 4564 1c93 56       	 .byte 0x56
 4565 1c94 1A       	 .byte 0x1a
 4566 1c95 A90C0000 	 .4byte 0xca9
 4567 1c99 18       	 .byte 0x18
 4568 1c9a 22       	 .uleb128 0x22
 4569 1c9b 75696400 	 .ascii "uid\000"
 4570 1c9f 31       	 .byte 0x31
 4571 1ca0 57       	 .byte 0x57
 4572 1ca1 1A       	 .byte 0x1a
 4573 1ca2 850C0000 	 .4byte 0xc85
 4574 1ca6 1C       	 .byte 0x1c
 4575 1ca7 22       	 .uleb128 0x22
 4576 1ca8 67696400 	 .ascii "gid\000"
 4577 1cac 31       	 .byte 0x31
 4578 1cad 58       	 .byte 0x58
 4579 1cae 1A       	 .byte 0x1a
 4580 1caf 910C0000 	 .4byte 0xc91
 4581 1cb3 1E       	 .byte 0x1e
 4582 1cb4 00       	 .byte 0
 4583 1cb5 05       	 .uleb128 0x5
 4584 1cb6 261C0000 	 .4byte 0x1c26
 4585 1cba 0B       	 .uleb128 0xb
 4586 1cbb B51C0000 	 .4byte 0x1cb5
 4587 1cbf 09       	 .uleb128 0x9
 4588 1cc0 08       	 .byte 0x8
 4589 1cc1 31       	 .byte 0x31
 4590 1cc2 5B       	 .byte 0x5b
 4591 1cc3 09       	 .byte 0x9
 4592 1cc4 E31C0000 	 .4byte 0x1ce3
 4593 1cc8 02       	 .uleb128 0x2
 4594 1cc9 5B220000 	 .4byte .LASF150
 4595 1ccd 31       	 .byte 0x31
 4596 1cce 5C       	 .byte 0x5c
 4597 1ccf 0F       	 .byte 0xf
 4598 1cd0 3F030000 	 .4byte 0x33f
 4599 1cd4 00       	 .byte 0
 4600 1cd5 02       	 .uleb128 0x2
 4601 1cd6 79230000 	 .4byte .LASF450
 4602 1cda 31       	 .byte 0x31
 4603 1cdb 5D       	 .byte 0x5d
 4604 1cdc 0F       	 .byte 0xf
 4605 1cdd 3F030000 	 .4byte 0x33f
ARM GAS   			page 86


 4606 1ce1 04       	 .byte 0x4
 4607 1ce2 00       	 .byte 0
 4608 1ce3 04       	 .uleb128 0x4
 4609 1ce4 52270000 	 .4byte .LASF452
 4610 1ce8 31       	 .byte 0x31
 4611 1ce9 5E       	 .byte 0x5e
 4612 1cea 03       	 .byte 0x3
 4613 1ceb BF1C0000 	 .4byte 0x1cbf
 4614 1cef 06       	 .uleb128 0x6
 4615 1cf0 1C380000 	 .4byte .LASF453
 4616 1cf4 32       	 .byte 0x32
 4617 1cf5 19       	 .byte 0x19
 4618 1cf6 1A       	 .byte 0x1a
 4619 1cf7 261C0000 	 .4byte 0x1c26
 4620 1cfb 06       	 .uleb128 0x6
 4621 1cfc C5470000 	 .4byte .LASF454
 4622 1d00 32       	 .byte 0x32
 4623 1d01 1F       	 .byte 0x1f
 4624 1d02 1A       	 .byte 0x1a
 4625 1d03 261C0000 	 .4byte 0x1c26
 4626 1d07 06       	 .uleb128 0x6
 4627 1d08 D0280000 	 .4byte .LASF455
 4628 1d0c 32       	 .byte 0x32
 4629 1d0d 22       	 .byte 0x22
 4630 1d0e 1A       	 .byte 0x1a
 4631 1d0f 261C0000 	 .4byte 0x1c26
 4632 1d13 06       	 .uleb128 0x6
 4633 1d14 680B0000 	 .4byte .LASF456
 4634 1d18 32       	 .byte 0x32
 4635 1d19 26       	 .byte 0x26
 4636 1d1a 1A       	 .byte 0x1a
 4637 1d1b 261C0000 	 .4byte 0x1c26
 4638 1d1f 06       	 .uleb128 0x6
 4639 1d20 5D310000 	 .4byte .LASF457
 4640 1d24 32       	 .byte 0x32
 4641 1d25 28       	 .byte 0x28
 4642 1d26 1A       	 .byte 0x1a
 4643 1d27 261C0000 	 .4byte 0x1c26
 4644 1d2b 06       	 .uleb128 0x6
 4645 1d2c 99260000 	 .4byte .LASF458
 4646 1d30 32       	 .byte 0x32
 4647 1d31 2C       	 .byte 0x2c
 4648 1d32 1A       	 .byte 0x1a
 4649 1d33 261C0000 	 .4byte 0x1c26
 4650 1d37 06       	 .uleb128 0x6
 4651 1d38 AC100000 	 .4byte .LASF459
 4652 1d3c 32       	 .byte 0x32
 4653 1d3d 2E       	 .byte 0x2e
 4654 1d3e 1A       	 .byte 0x1a
 4655 1d3f 261C0000 	 .4byte 0x1c26
 4656 1d43 06       	 .uleb128 0x6
 4657 1d44 D1320000 	 .4byte .LASF460
 4658 1d48 32       	 .byte 0x32
 4659 1d49 34       	 .byte 0x34
 4660 1d4a 1A       	 .byte 0x1a
 4661 1d4b 261C0000 	 .4byte 0x1c26
 4662 1d4f 06       	 .uleb128 0x6
ARM GAS   			page 87


 4663 1d50 B4090000 	 .4byte .LASF461
 4664 1d54 32       	 .byte 0x32
 4665 1d55 36       	 .byte 0x36
 4666 1d56 1A       	 .byte 0x1a
 4667 1d57 261C0000 	 .4byte 0x1c26
 4668 1d5b 06       	 .uleb128 0x6
 4669 1d5c 913F0000 	 .4byte .LASF462
 4670 1d60 33       	 .byte 0x33
 4671 1d61 3F       	 .byte 0x3f
 4672 1d62 22       	 .byte 0x22
 4673 1d63 321C0000 	 .4byte 0x1c32
 4674 1d67 0A       	 .uleb128 0xa
 4675 1d68 44030000 	 .4byte 0x344
 4676 1d6c 771D0000 	 .4byte 0x1d77
 4677 1d70 0D       	 .uleb128 0xd
 4678 1d71 2D000000 	 .4byte 0x2d
 4679 1d75 0F       	 .byte 0xf
 4680 1d76 00       	 .byte 0
 4681 1d77 0A       	 .uleb128 0xa
 4682 1d78 910C0000 	 .4byte 0xc91
 4683 1d7c 871D0000 	 .4byte 0x1d87
 4684 1d80 0D       	 .uleb128 0xd
 4685 1d81 2D000000 	 .4byte 0x2d
 4686 1d85 0F       	 .byte 0xf
 4687 1d86 00       	 .byte 0
 4688 1d87 06       	 .uleb128 0x6
 4689 1d88 A02D0000 	 .4byte .LASF463
 4690 1d8c 34       	 .byte 0x34
 4691 1d8d 2B       	 .byte 0x2b
 4692 1d8e 1A       	 .byte 0x1a
 4693 1d8f 261C0000 	 .4byte 0x1c26
 4694 1d93 06       	 .uleb128 0x6
 4695 1d94 FC110000 	 .4byte .LASF464
 4696 1d98 34       	 .byte 0x34
 4697 1d99 2C       	 .byte 0x2c
 4698 1d9a 1A       	 .byte 0x1a
 4699 1d9b 261C0000 	 .4byte 0x1c26
 4700 1d9f 06       	 .uleb128 0x6
 4701 1da0 3F1F0000 	 .4byte .LASF465
 4702 1da4 34       	 .byte 0x34
 4703 1da5 2D       	 .byte 0x2d
 4704 1da6 1A       	 .byte 0x1a
 4705 1da7 261C0000 	 .4byte 0x1c26
 4706 1dab 06       	 .uleb128 0x6
 4707 1dac 94230000 	 .4byte .LASF466
 4708 1db0 34       	 .byte 0x34
 4709 1db1 2E       	 .byte 0x2e
 4710 1db2 1A       	 .byte 0x1a
 4711 1db3 261C0000 	 .4byte 0x1c26
 4712 1db7 06       	 .uleb128 0x6
 4713 1db8 F0340000 	 .4byte .LASF467
 4714 1dbc 34       	 .byte 0x34
 4715 1dbd 2F       	 .byte 0x2f
 4716 1dbe 1A       	 .byte 0x1a
 4717 1dbf 261C0000 	 .4byte 0x1c26
 4718 1dc3 06       	 .uleb128 0x6
 4719 1dc4 AD1C0000 	 .4byte .LASF468
ARM GAS   			page 88


 4720 1dc8 34       	 .byte 0x34
 4721 1dc9 30       	 .byte 0x30
 4722 1dca 1A       	 .byte 0x1a
 4723 1dcb 261C0000 	 .4byte 0x1c26
 4724 1dcf 06       	 .uleb128 0x6
 4725 1dd0 621D0000 	 .4byte .LASF469
 4726 1dd4 34       	 .byte 0x34
 4727 1dd5 31       	 .byte 0x31
 4728 1dd6 1A       	 .byte 0x1a
 4729 1dd7 261C0000 	 .4byte 0x1c26
 4730 1ddb 06       	 .uleb128 0x6
 4731 1ddc 78460000 	 .4byte .LASF470
 4732 1de0 34       	 .byte 0x34
 4733 1de1 32       	 .byte 0x32
 4734 1de2 1A       	 .byte 0x1a
 4735 1de3 261C0000 	 .4byte 0x1c26
 4736 1de7 06       	 .uleb128 0x6
 4737 1de8 B83B0000 	 .4byte .LASF471
 4738 1dec 34       	 .byte 0x34
 4739 1ded 33       	 .byte 0x33
 4740 1dee 1A       	 .byte 0x1a
 4741 1def 261C0000 	 .4byte 0x1c26
 4742 1df3 06       	 .uleb128 0x6
 4743 1df4 16160000 	 .4byte .LASF472
 4744 1df8 34       	 .byte 0x34
 4745 1df9 34       	 .byte 0x34
 4746 1dfa 1A       	 .byte 0x1a
 4747 1dfb 261C0000 	 .4byte 0x1c26
 4748 1dff 06       	 .uleb128 0x6
 4749 1e00 16440000 	 .4byte .LASF473
 4750 1e04 34       	 .byte 0x34
 4751 1e05 36       	 .byte 0x36
 4752 1e06 1A       	 .byte 0x1a
 4753 1e07 261C0000 	 .4byte 0x1c26
 4754 1e0b 06       	 .uleb128 0x6
 4755 1e0c 06070000 	 .4byte .LASF474
 4756 1e10 34       	 .byte 0x34
 4757 1e11 37       	 .byte 0x37
 4758 1e12 1A       	 .byte 0x1a
 4759 1e13 261C0000 	 .4byte 0x1c26
 4760 1e17 06       	 .uleb128 0x6
 4761 1e18 E72F0000 	 .4byte .LASF475
 4762 1e1c 34       	 .byte 0x34
 4763 1e1d 38       	 .byte 0x38
 4764 1e1e 1A       	 .byte 0x1a
 4765 1e1f 261C0000 	 .4byte 0x1c26
 4766 1e23 06       	 .uleb128 0x6
 4767 1e24 21130000 	 .4byte .LASF476
 4768 1e28 34       	 .byte 0x34
 4769 1e29 39       	 .byte 0x39
 4770 1e2a 1A       	 .byte 0x1a
 4771 1e2b 261C0000 	 .4byte 0x1c26
 4772 1e2f 06       	 .uleb128 0x6
 4773 1e30 380F0000 	 .4byte .LASF477
 4774 1e34 34       	 .byte 0x34
 4775 1e35 3A       	 .byte 0x3a
 4776 1e36 1A       	 .byte 0x1a
ARM GAS   			page 89


 4777 1e37 261C0000 	 .4byte 0x1c26
 4778 1e3b 06       	 .uleb128 0x6
 4779 1e3c F12B0000 	 .4byte .LASF478
 4780 1e40 34       	 .byte 0x34
 4781 1e41 3B       	 .byte 0x3b
 4782 1e42 1A       	 .byte 0x1a
 4783 1e43 261C0000 	 .4byte 0x1c26
 4784 1e47 06       	 .uleb128 0x6
 4785 1e48 4C2E0000 	 .4byte .LASF479
 4786 1e4c 34       	 .byte 0x34
 4787 1e4d 3D       	 .byte 0x3d
 4788 1e4e 1A       	 .byte 0x1a
 4789 1e4f 261C0000 	 .4byte 0x1c26
 4790 1e53 06       	 .uleb128 0x6
 4791 1e54 38360000 	 .4byte .LASF480
 4792 1e58 34       	 .byte 0x34
 4793 1e59 3E       	 .byte 0x3e
 4794 1e5a 1A       	 .byte 0x1a
 4795 1e5b 261C0000 	 .4byte 0x1c26
 4796 1e5f 06       	 .uleb128 0x6
 4797 1e60 FC320000 	 .4byte .LASF481
 4798 1e64 34       	 .byte 0x34
 4799 1e65 3F       	 .byte 0x3f
 4800 1e66 1A       	 .byte 0x1a
 4801 1e67 261C0000 	 .4byte 0x1c26
 4802 1e6b 06       	 .uleb128 0x6
 4803 1e6c 76390000 	 .4byte .LASF482
 4804 1e70 34       	 .byte 0x34
 4805 1e71 40       	 .byte 0x40
 4806 1e72 1A       	 .byte 0x1a
 4807 1e73 261C0000 	 .4byte 0x1c26
 4808 1e77 06       	 .uleb128 0x6
 4809 1e78 7E280000 	 .4byte .LASF483
 4810 1e7c 34       	 .byte 0x34
 4811 1e7d 41       	 .byte 0x41
 4812 1e7e 1A       	 .byte 0x1a
 4813 1e7f 261C0000 	 .4byte 0x1c26
 4814 1e83 06       	 .uleb128 0x6
 4815 1e84 820B0000 	 .4byte .LASF484
 4816 1e88 34       	 .byte 0x34
 4817 1e89 42       	 .byte 0x42
 4818 1e8a 1A       	 .byte 0x1a
 4819 1e8b 261C0000 	 .4byte 0x1c26
 4820 1e8f 06       	 .uleb128 0x6
 4821 1e90 F80B0000 	 .4byte .LASF485
 4822 1e94 34       	 .byte 0x34
 4823 1e95 43       	 .byte 0x43
 4824 1e96 1A       	 .byte 0x1a
 4825 1e97 261C0000 	 .4byte 0x1c26
 4826 1e9b 06       	 .uleb128 0x6
 4827 1e9c 382C0000 	 .4byte .LASF486
 4828 1ea0 34       	 .byte 0x34
 4829 1ea1 44       	 .byte 0x44
 4830 1ea2 1A       	 .byte 0x1a
 4831 1ea3 261C0000 	 .4byte 0x1c26
 4832 1ea7 06       	 .uleb128 0x6
 4833 1ea8 C33C0000 	 .4byte .LASF487
ARM GAS   			page 90


 4834 1eac 34       	 .byte 0x34
 4835 1ead 46       	 .byte 0x46
 4836 1eae 1A       	 .byte 0x1a
 4837 1eaf 261C0000 	 .4byte 0x1c26
 4838 1eb3 06       	 .uleb128 0x6
 4839 1eb4 0A020000 	 .4byte .LASF488
 4840 1eb8 34       	 .byte 0x34
 4841 1eb9 47       	 .byte 0x47
 4842 1eba 1A       	 .byte 0x1a
 4843 1ebb 261C0000 	 .4byte 0x1c26
 4844 1ebf 06       	 .uleb128 0x6
 4845 1ec0 07150000 	 .4byte .LASF489
 4846 1ec4 34       	 .byte 0x34
 4847 1ec5 48       	 .byte 0x48
 4848 1ec6 1A       	 .byte 0x1a
 4849 1ec7 261C0000 	 .4byte 0x1c26
 4850 1ecb 06       	 .uleb128 0x6
 4851 1ecc 1F250000 	 .4byte .LASF490
 4852 1ed0 34       	 .byte 0x34
 4853 1ed1 49       	 .byte 0x49
 4854 1ed2 1A       	 .byte 0x1a
 4855 1ed3 261C0000 	 .4byte 0x1c26
 4856 1ed7 06       	 .uleb128 0x6
 4857 1ed8 BD030000 	 .4byte .LASF491
 4858 1edc 34       	 .byte 0x34
 4859 1edd 4A       	 .byte 0x4a
 4860 1ede 1A       	 .byte 0x1a
 4861 1edf 261C0000 	 .4byte 0x1c26
 4862 1ee3 06       	 .uleb128 0x6
 4863 1ee4 C61D0000 	 .4byte .LASF492
 4864 1ee8 34       	 .byte 0x34
 4865 1ee9 4B       	 .byte 0x4b
 4866 1eea 1A       	 .byte 0x1a
 4867 1eeb 261C0000 	 .4byte 0x1c26
 4868 1eef 06       	 .uleb128 0x6
 4869 1ef0 8C2C0000 	 .4byte .LASF493
 4870 1ef4 34       	 .byte 0x34
 4871 1ef5 4C       	 .byte 0x4c
 4872 1ef6 1A       	 .byte 0x1a
 4873 1ef7 261C0000 	 .4byte 0x1c26
 4874 1efb 06       	 .uleb128 0x6
 4875 1efc 413F0000 	 .4byte .LASF494
 4876 1f00 34       	 .byte 0x34
 4877 1f01 4D       	 .byte 0x4d
 4878 1f02 1A       	 .byte 0x1a
 4879 1f03 261C0000 	 .4byte 0x1c26
 4880 1f07 06       	 .uleb128 0x6
 4881 1f08 EA210000 	 .4byte .LASF495
 4882 1f0c 34       	 .byte 0x34
 4883 1f0d 4E       	 .byte 0x4e
 4884 1f0e 1A       	 .byte 0x1a
 4885 1f0f 261C0000 	 .4byte 0x1c26
 4886 1f13 06       	 .uleb128 0x6
 4887 1f14 10410000 	 .4byte .LASF496
 4888 1f18 34       	 .byte 0x34
 4889 1f19 4F       	 .byte 0x4f
 4890 1f1a 1A       	 .byte 0x1a
ARM GAS   			page 91


 4891 1f1b 261C0000 	 .4byte 0x1c26
 4892 1f1f 06       	 .uleb128 0x6
 4893 1f20 B6260000 	 .4byte .LASF497
 4894 1f24 34       	 .byte 0x34
 4895 1f25 50       	 .byte 0x50
 4896 1f26 1A       	 .byte 0x1a
 4897 1f27 261C0000 	 .4byte 0x1c26
 4898 1f2b 06       	 .uleb128 0x6
 4899 1f2c 83000000 	 .4byte .LASF498
 4900 1f30 34       	 .byte 0x34
 4901 1f31 51       	 .byte 0x51
 4902 1f32 1A       	 .byte 0x1a
 4903 1f33 261C0000 	 .4byte 0x1c26
 4904 1f37 06       	 .uleb128 0x6
 4905 1f38 07230000 	 .4byte .LASF499
 4906 1f3c 34       	 .byte 0x34
 4907 1f3d 52       	 .byte 0x52
 4908 1f3e 1A       	 .byte 0x1a
 4909 1f3f 261C0000 	 .4byte 0x1c26
 4910 1f43 06       	 .uleb128 0x6
 4911 1f44 761A0000 	 .4byte .LASF500
 4912 1f48 34       	 .byte 0x34
 4913 1f49 53       	 .byte 0x53
 4914 1f4a 1A       	 .byte 0x1a
 4915 1f4b 261C0000 	 .4byte 0x1c26
 4916 1f4f 06       	 .uleb128 0x6
 4917 1f50 10140000 	 .4byte .LASF501
 4918 1f54 34       	 .byte 0x34
 4919 1f55 54       	 .byte 0x54
 4920 1f56 1A       	 .byte 0x1a
 4921 1f57 261C0000 	 .4byte 0x1c26
 4922 1f5b 06       	 .uleb128 0x6
 4923 1f5c 963B0000 	 .4byte .LASF502
 4924 1f60 34       	 .byte 0x34
 4925 1f61 55       	 .byte 0x55
 4926 1f62 1A       	 .byte 0x1a
 4927 1f63 261C0000 	 .4byte 0x1c26
 4928 1f67 06       	 .uleb128 0x6
 4929 1f68 E60C0000 	 .4byte .LASF503
 4930 1f6c 34       	 .byte 0x34
 4931 1f6d 56       	 .byte 0x56
 4932 1f6e 1A       	 .byte 0x1a
 4933 1f6f 261C0000 	 .4byte 0x1c26
 4934 1f73 06       	 .uleb128 0x6
 4935 1f74 1F360000 	 .4byte .LASF504
 4936 1f78 34       	 .byte 0x34
 4937 1f79 57       	 .byte 0x57
 4938 1f7a 1A       	 .byte 0x1a
 4939 1f7b 261C0000 	 .4byte 0x1c26
 4940 1f7f 06       	 .uleb128 0x6
 4941 1f80 ED140000 	 .4byte .LASF505
 4942 1f84 34       	 .byte 0x34
 4943 1f85 58       	 .byte 0x58
 4944 1f86 1A       	 .byte 0x1a
 4945 1f87 261C0000 	 .4byte 0x1c26
 4946 1f8b 06       	 .uleb128 0x6
 4947 1f8c 23240000 	 .4byte .LASF506
ARM GAS   			page 92


 4948 1f90 34       	 .byte 0x34
 4949 1f91 59       	 .byte 0x59
 4950 1f92 1A       	 .byte 0x1a
 4951 1f93 261C0000 	 .4byte 0x1c26
 4952 1f97 06       	 .uleb128 0x6
 4953 1f98 C9390000 	 .4byte .LASF507
 4954 1f9c 34       	 .byte 0x34
 4955 1f9d 5A       	 .byte 0x5a
 4956 1f9e 1A       	 .byte 0x1a
 4957 1f9f 261C0000 	 .4byte 0x1c26
 4958 1fa3 06       	 .uleb128 0x6
 4959 1fa4 37090000 	 .4byte .LASF508
 4960 1fa8 34       	 .byte 0x34
 4961 1fa9 5B       	 .byte 0x5b
 4962 1faa 1A       	 .byte 0x1a
 4963 1fab 261C0000 	 .4byte 0x1c26
 4964 1faf 06       	 .uleb128 0x6
 4965 1fb0 A6060000 	 .4byte .LASF509
 4966 1fb4 34       	 .byte 0x34
 4967 1fb5 5C       	 .byte 0x5c
 4968 1fb6 1A       	 .byte 0x1a
 4969 1fb7 261C0000 	 .4byte 0x1c26
 4970 1fbb 06       	 .uleb128 0x6
 4971 1fbc 53120000 	 .4byte .LASF510
 4972 1fc0 34       	 .byte 0x34
 4973 1fc1 5D       	 .byte 0x5d
 4974 1fc2 1A       	 .byte 0x1a
 4975 1fc3 261C0000 	 .4byte 0x1c26
 4976 1fc7 06       	 .uleb128 0x6
 4977 1fc8 F7100000 	 .4byte .LASF511
 4978 1fcc 34       	 .byte 0x34
 4979 1fcd 5E       	 .byte 0x5e
 4980 1fce 1A       	 .byte 0x1a
 4981 1fcf 261C0000 	 .4byte 0x1c26
 4982 1fd3 06       	 .uleb128 0x6
 4983 1fd4 9E490000 	 .4byte .LASF512
 4984 1fd8 34       	 .byte 0x34
 4985 1fd9 5F       	 .byte 0x5f
 4986 1fda 1A       	 .byte 0x1a
 4987 1fdb 261C0000 	 .4byte 0x1c26
 4988 1fdf 06       	 .uleb128 0x6
 4989 1fe0 D8120000 	 .4byte .LASF513
 4990 1fe4 34       	 .byte 0x34
 4991 1fe5 60       	 .byte 0x60
 4992 1fe6 1A       	 .byte 0x1a
 4993 1fe7 261C0000 	 .4byte 0x1c26
 4994 1feb 06       	 .uleb128 0x6
 4995 1fec DB2E0000 	 .4byte .LASF514
 4996 1ff0 34       	 .byte 0x34
 4997 1ff1 61       	 .byte 0x61
 4998 1ff2 1A       	 .byte 0x1a
 4999 1ff3 261C0000 	 .4byte 0x1c26
 5000 1ff7 06       	 .uleb128 0x6
 5001 1ff8 5E390000 	 .4byte .LASF515
 5002 1ffc 34       	 .byte 0x34
 5003 1ffd 63       	 .byte 0x63
 5004 1ffe 1A       	 .byte 0x1a
ARM GAS   			page 93


 5005 1fff 261C0000 	 .4byte 0x1c26
 5006 2003 06       	 .uleb128 0x6
 5007 2004 40490000 	 .4byte .LASF516
 5008 2008 34       	 .byte 0x34
 5009 2009 64       	 .byte 0x64
 5010 200a 1A       	 .byte 0x1a
 5011 200b 261C0000 	 .4byte 0x1c26
 5012 200f 06       	 .uleb128 0x6
 5013 2010 7F0C0000 	 .4byte .LASF517
 5014 2014 34       	 .byte 0x34
 5015 2015 65       	 .byte 0x65
 5016 2016 1A       	 .byte 0x1a
 5017 2017 261C0000 	 .4byte 0x1c26
 5018 201b 06       	 .uleb128 0x6
 5019 201c 6C250000 	 .4byte .LASF518
 5020 2020 34       	 .byte 0x34
 5021 2021 66       	 .byte 0x66
 5022 2022 1A       	 .byte 0x1a
 5023 2023 261C0000 	 .4byte 0x1c26
 5024 2027 06       	 .uleb128 0x6
 5025 2028 10050000 	 .4byte .LASF519
 5026 202c 34       	 .byte 0x34
 5027 202d 67       	 .byte 0x67
 5028 202e 1A       	 .byte 0x1a
 5029 202f 261C0000 	 .4byte 0x1c26
 5030 2033 06       	 .uleb128 0x6
 5031 2034 20300000 	 .4byte .LASF520
 5032 2038 34       	 .byte 0x34
 5033 2039 68       	 .byte 0x68
 5034 203a 1A       	 .byte 0x1a
 5035 203b 261C0000 	 .4byte 0x1c26
 5036 203f 06       	 .uleb128 0x6
 5037 2040 96430000 	 .4byte .LASF521
 5038 2044 34       	 .byte 0x34
 5039 2045 6A       	 .byte 0x6a
 5040 2046 1A       	 .byte 0x1a
 5041 2047 261C0000 	 .4byte 0x1c26
 5042 204b 06       	 .uleb128 0x6
 5043 204c D0000000 	 .4byte .LASF522
 5044 2050 34       	 .byte 0x34
 5045 2051 6B       	 .byte 0x6b
 5046 2052 1A       	 .byte 0x1a
 5047 2053 261C0000 	 .4byte 0x1c26
 5048 2057 06       	 .uleb128 0x6
 5049 2058 73180000 	 .4byte .LASF523
 5050 205c 34       	 .byte 0x34
 5051 205d 6C       	 .byte 0x6c
 5052 205e 1A       	 .byte 0x1a
 5053 205f 261C0000 	 .4byte 0x1c26
 5054 2063 06       	 .uleb128 0x6
 5055 2064 60110000 	 .4byte .LASF524
 5056 2068 34       	 .byte 0x34
 5057 2069 6D       	 .byte 0x6d
 5058 206a 1A       	 .byte 0x1a
 5059 206b 261C0000 	 .4byte 0x1c26
 5060 206f 06       	 .uleb128 0x6
 5061 2070 312D0000 	 .4byte .LASF525
ARM GAS   			page 94


 5062 2074 34       	 .byte 0x34
 5063 2075 6E       	 .byte 0x6e
 5064 2076 1A       	 .byte 0x1a
 5065 2077 261C0000 	 .4byte 0x1c26
 5066 207b 06       	 .uleb128 0x6
 5067 207c 47480000 	 .4byte .LASF526
 5068 2080 34       	 .byte 0x34
 5069 2081 6F       	 .byte 0x6f
 5070 2082 1A       	 .byte 0x1a
 5071 2083 261C0000 	 .4byte 0x1c26
 5072 2087 06       	 .uleb128 0x6
 5073 2088 A6250000 	 .4byte .LASF527
 5074 208c 34       	 .byte 0x34
 5075 208d 70       	 .byte 0x70
 5076 208e 1A       	 .byte 0x1a
 5077 208f 261C0000 	 .4byte 0x1c26
 5078 2093 06       	 .uleb128 0x6
 5079 2094 9E0A0000 	 .4byte .LASF528
 5080 2098 34       	 .byte 0x34
 5081 2099 71       	 .byte 0x71
 5082 209a 1A       	 .byte 0x1a
 5083 209b 261C0000 	 .4byte 0x1c26
 5084 209f 06       	 .uleb128 0x6
 5085 20a0 9B080000 	 .4byte .LASF529
 5086 20a4 34       	 .byte 0x34
 5087 20a5 72       	 .byte 0x72
 5088 20a6 1A       	 .byte 0x1a
 5089 20a7 261C0000 	 .4byte 0x1c26
 5090 20ab 06       	 .uleb128 0x6
 5091 20ac CF090000 	 .4byte .LASF530
 5092 20b0 34       	 .byte 0x34
 5093 20b1 73       	 .byte 0x73
 5094 20b2 1A       	 .byte 0x1a
 5095 20b3 261C0000 	 .4byte 0x1c26
 5096 20b7 06       	 .uleb128 0x6
 5097 20b8 B2140000 	 .4byte .LASF531
 5098 20bc 34       	 .byte 0x34
 5099 20bd 74       	 .byte 0x74
 5100 20be 1A       	 .byte 0x1a
 5101 20bf 261C0000 	 .4byte 0x1c26
 5102 20c3 0A       	 .uleb128 0xa
 5103 20c4 BA1C0000 	 .4byte 0x1cba
 5104 20c8 CE200000 	 .4byte 0x20ce
 5105 20cc 1C       	 .uleb128 0x1c
 5106 20cd 00       	 .byte 0
 5107 20ce 0B       	 .uleb128 0xb
 5108 20cf C3200000 	 .4byte 0x20c3
 5109 20d3 06       	 .uleb128 0x6
 5110 20d4 68490000 	 .4byte .LASF532
 5111 20d8 34       	 .byte 0x34
 5112 20d9 82       	 .byte 0x82
 5113 20da 22       	 .byte 0x22
 5114 20db CE200000 	 .4byte 0x20ce
 5115 20df 06       	 .uleb128 0x6
 5116 20e0 70440000 	 .4byte .LASF533
 5117 20e4 34       	 .byte 0x34
 5118 20e5 87       	 .byte 0x87
ARM GAS   			page 95


 5119 20e6 1C       	 .byte 0x1c
 5120 20e7 E31C0000 	 .4byte 0x1ce3
 5121 20eb 06       	 .uleb128 0x6
 5122 20ec F21F0000 	 .4byte .LASF534
 5123 20f0 34       	 .byte 0x34
 5124 20f1 88       	 .byte 0x88
 5125 20f2 1C       	 .byte 0x1c
 5126 20f3 E31C0000 	 .4byte 0x1ce3
 5127 20f7 06       	 .uleb128 0x6
 5128 20f8 E4060000 	 .4byte .LASF535
 5129 20fc 34       	 .byte 0x34
 5130 20fd 89       	 .byte 0x89
 5131 20fe 1C       	 .byte 0x1c
 5132 20ff E31C0000 	 .4byte 0x1ce3
 5133 2103 0A       	 .uleb128 0xa
 5134 2104 18210000 	 .4byte 0x2118
 5135 2108 0E210000 	 .4byte 0x210e
 5136 210c 1C       	 .uleb128 0x1c
 5137 210d 00       	 .byte 0
 5138 210e 0B       	 .uleb128 0xb
 5139 210f 03210000 	 .4byte 0x2103
 5140 2113 05       	 .uleb128 0x5
 5141 2114 E31C0000 	 .4byte 0x1ce3
 5142 2118 0B       	 .uleb128 0xb
 5143 2119 13210000 	 .4byte 0x2113
 5144 211d 06       	 .uleb128 0x6
 5145 211e AA350000 	 .4byte .LASF536
 5146 2122 34       	 .byte 0x34
 5147 2123 8B       	 .byte 0x8b
 5148 2124 24       	 .byte 0x24
 5149 2125 0E210000 	 .4byte 0x210e
 5150 2129 0A       	 .uleb128 0xa
 5151 212a 18210000 	 .4byte 0x2118
 5152 212e 39210000 	 .4byte 0x2139
 5153 2132 0D       	 .uleb128 0xd
 5154 2133 2D000000 	 .4byte 0x2d
 5155 2137 03       	 .byte 0x3
 5156 2138 00       	 .byte 0
 5157 2139 0B       	 .uleb128 0xb
 5158 213a 29210000 	 .4byte 0x2129
 5159 213e 32       	 .uleb128 0x32
 5160 213f 1D210000 	 .4byte 0x211d
 5161 2143 A4       	 .byte 0xa4
 5162 2144 1F       	 .byte 0x1f
 5163 2145 39210000 	 .4byte 0x2139
 5164 2149 05       	 .uleb128 0x5
 5165 214a 03       	 .byte 0x3
 5166 214b 00000000 	 .4byte rtems_shell_Initial_aliases
 5167 214f 0A       	 .uleb128 0xa
 5168 2150 BA1C0000 	 .4byte 0x1cba
 5169 2154 5F210000 	 .4byte 0x215f
 5170 2158 0D       	 .uleb128 0xd
 5171 2159 2D000000 	 .4byte 0x2d
 5172 215d 4F       	 .byte 0x4f
 5173 215e 00       	 .byte 0
 5174 215f 0B       	 .uleb128 0xb
 5175 2160 4F210000 	 .4byte 0x214f
ARM GAS   			page 96


 5176 2164 32       	 .uleb128 0x32
 5177 2165 D3200000 	 .4byte 0x20d3
 5178 2169 BE       	 .byte 0xbe
 5179 216a 1D       	 .byte 0x1d
 5180 216b 5F210000 	 .4byte 0x215f
 5181 216f 05       	 .uleb128 0x5
 5182 2170 03       	 .byte 0x3
 5183 2171 00000000 	 .4byte rtems_shell_Initial_commands
 5184 2175 04       	 .uleb128 0x4
 5185 2176 BE280000 	 .4byte .LASF537
 5186 217a 35       	 .byte 0x35
 5187 217b 4C       	 .byte 0x4c
 5188 217c 11       	 .byte 0x11
 5189 217d A7030000 	 .4byte 0x3a7
 5190 2181 09       	 .uleb128 0x9
 5191 2182 10       	 .byte 0x10
 5192 2183 36       	 .byte 0x36
 5193 2184 4A       	 .byte 0x4a
 5194 2185 03       	 .byte 0x3
 5195 2186 BF210000 	 .4byte 0x21bf
 5196 218a 02       	 .uleb128 0x2
 5197 218b 011E0000 	 .4byte .LASF538
 5198 218f 36       	 .byte 0x36
 5199 2190 4A       	 .byte 0x4a
 5200 2191 03       	 .byte 0x3
 5201 2192 DA210000 	 .4byte 0x21da
 5202 2196 00       	 .byte 0
 5203 2197 02       	 .uleb128 0x2
 5204 2198 F7090000 	 .4byte .LASF539
 5205 219c 36       	 .byte 0x36
 5206 219d 4A       	 .byte 0x4a
 5207 219e 03       	 .byte 0x3
 5208 219f DA210000 	 .4byte 0x21da
 5209 21a3 04       	 .byte 0x4
 5210 21a4 02       	 .uleb128 0x2
 5211 21a5 A64A0000 	 .4byte .LASF540
 5212 21a9 36       	 .byte 0x36
 5213 21aa 4A       	 .byte 0x4a
 5214 21ab 03       	 .byte 0x3
 5215 21ac DA210000 	 .4byte 0x21da
 5216 21b0 08       	 .byte 0x8
 5217 21b1 02       	 .uleb128 0x2
 5218 21b2 EE3D0000 	 .4byte .LASF541
 5219 21b6 36       	 .byte 0x36
 5220 21b7 4A       	 .byte 0x4a
 5221 21b8 03       	 .byte 0x3
 5222 21b9 74000000 	 .4byte 0x74
 5223 21bd 0C       	 .byte 0xc
 5224 21be 00       	 .byte 0
 5225 21bf 13       	 .uleb128 0x13
 5226 21c0 402E0000 	 .4byte .LASF542
 5227 21c4 10       	 .byte 0x10
 5228 21c5 36       	 .byte 0x36
 5229 21c6 49       	 .byte 0x49
 5230 21c7 10       	 .byte 0x10
 5231 21c8 DA210000 	 .4byte 0x21da
 5232 21cc 02       	 .uleb128 0x2
ARM GAS   			page 97


 5233 21cd 40120000 	 .4byte .LASF202
 5234 21d1 36       	 .byte 0x36
 5235 21d2 4A       	 .byte 0x4a
 5236 21d3 1F       	 .byte 0x1f
 5237 21d4 81210000 	 .4byte 0x2181
 5238 21d8 00       	 .byte 0
 5239 21d9 00       	 .byte 0
 5240 21da 05       	 .uleb128 0x5
 5241 21db BF210000 	 .4byte 0x21bf
 5242 21df 04       	 .uleb128 0x4
 5243 21e0 402E0000 	 .4byte .LASF542
 5244 21e4 36       	 .byte 0x36
 5245 21e5 4B       	 .byte 0x4b
 5246 21e6 03       	 .byte 0x3
 5247 21e7 BF210000 	 .4byte 0x21bf
 5248 21eb 13       	 .uleb128 0x13
 5249 21ec DE470000 	 .4byte .LASF543
 5250 21f0 04       	 .byte 0x4
 5251 21f1 36       	 .byte 0x36
 5252 21f2 53       	 .byte 0x53
 5253 21f3 09       	 .byte 0x9
 5254 21f4 06220000 	 .4byte 0x2206
 5255 21f8 02       	 .uleb128 0x2
 5256 21f9 693B0000 	 .4byte .LASF544
 5257 21fd 36       	 .byte 0x36
 5258 21fe 53       	 .byte 0x53
 5259 21ff 09       	 .byte 0x9
 5260 2200 DA210000 	 .4byte 0x21da
 5261 2204 00       	 .byte 0
 5262 2205 00       	 .byte 0
 5263 2206 04       	 .uleb128 0x4
 5264 2207 DE470000 	 .4byte .LASF543
 5265 220b 36       	 .byte 0x36
 5266 220c 53       	 .byte 0x53
 5267 220d 34       	 .byte 0x34
 5268 220e EB210000 	 .4byte 0x21eb
 5269 2212 04       	 .uleb128 0x4
 5270 2213 C8100000 	 .4byte .LASF545
 5271 2217 37       	 .byte 0x37
 5272 2218 46       	 .byte 0x46
 5273 2219 21       	 .byte 0x21
 5274 221a 1E220000 	 .4byte 0x221e
 5275 221e 13       	 .uleb128 0x13
 5276 221f C8100000 	 .4byte .LASF545
 5277 2223 20       	 .byte 0x20
 5278 2224 37       	 .byte 0x37
 5279 2225 6D       	 .byte 0x6d
 5280 2226 08       	 .byte 0x8
 5281 2227 53220000 	 .4byte 0x2253
 5282 222b 02       	 .uleb128 0x2
 5283 222c 40120000 	 .4byte .LASF202
 5284 2230 37       	 .byte 0x37
 5285 2231 7D       	 .byte 0x7d
 5286 2232 05       	 .byte 0x5
 5287 2233 A9220000 	 .4byte 0x22a9
 5288 2237 00       	 .byte 0
 5289 2238 02       	 .uleb128 0x2
ARM GAS   			page 98


 5290 2239 9E060000 	 .4byte .LASF546
 5291 223d 37       	 .byte 0x37
 5292 223e 85       	 .byte 0x85
 5293 223f 22       	 .byte 0x22
 5294 2240 53220000 	 .4byte 0x2253
 5295 2244 10       	 .byte 0x10
 5296 2245 02       	 .uleb128 0x2
 5297 2246 D8190000 	 .4byte .LASF547
 5298 224a 37       	 .byte 0x37
 5299 224b 88       	 .byte 0x88
 5300 224c 0C       	 .byte 0xc
 5301 224d B3030000 	 .4byte 0x3b3
 5302 2251 18       	 .byte 0x18
 5303 2252 00       	 .byte 0
 5304 2253 04       	 .uleb128 0x4
 5305 2254 C42B0000 	 .4byte .LASF548
 5306 2258 37       	 .byte 0x37
 5307 2259 55       	 .byte 0x55
 5308 225a 06       	 .byte 0x6
 5309 225b 5F220000 	 .4byte 0x225f
 5310 225f 05       	 .uleb128 0x5
 5311 2260 64220000 	 .4byte 0x2264
 5312 2264 0E       	 .uleb128 0xe
 5313 2265 6F220000 	 .4byte 0x226f
 5314 2269 01       	 .uleb128 0x1
 5315 226a 6F220000 	 .4byte 0x226f
 5316 226e 00       	 .byte 0
 5317 226f 05       	 .uleb128 0x5
 5318 2270 12220000 	 .4byte 0x2212
 5319 2274 09       	 .uleb128 0x9
 5320 2275 08       	 .byte 0x8
 5321 2276 37       	 .byte 0x37
 5322 2277 5A       	 .byte 0x5a
 5323 2278 09       	 .byte 0x9
 5324 2279 98220000 	 .4byte 0x2298
 5325 227d 02       	 .uleb128 0x2
 5326 227e 4B430000 	 .4byte .LASF549
 5327 2282 37       	 .byte 0x37
 5328 2283 5E       	 .byte 0x5e
 5329 2284 12       	 .byte 0x12
 5330 2285 06220000 	 .4byte 0x2206
 5331 2289 00       	 .byte 0
 5332 228a 02       	 .uleb128 0x2
 5333 228b 101B0000 	 .4byte .LASF550
 5334 228f 37       	 .byte 0x37
 5335 2290 64       	 .byte 0x64
 5336 2291 10       	 .byte 0x10
 5337 2292 98220000 	 .4byte 0x2298
 5338 2296 04       	 .byte 0x4
 5339 2297 00       	 .byte 0
 5340 2298 05       	 .uleb128 0x5
 5341 2299 DF210000 	 .4byte 0x21df
 5342 229d 04       	 .uleb128 0x4
 5343 229e 54090000 	 .4byte .LASF551
 5344 22a2 37       	 .byte 0x37
 5345 22a3 65       	 .byte 0x65
 5346 22a4 03       	 .byte 0x3
ARM GAS   			page 99


 5347 22a5 74220000 	 .4byte 0x2274
 5348 22a9 20       	 .uleb128 0x20
 5349 22aa 10       	 .byte 0x10
 5350 22ab 37       	 .byte 0x37
 5351 22ac 71       	 .byte 0x71
 5352 22ad 03       	 .byte 0x3
 5353 22ae CB220000 	 .4byte 0x22cb
 5354 22b2 15       	 .uleb128 0x15
 5355 22b3 CA110000 	 .4byte .LASF552
 5356 22b7 37       	 .byte 0x37
 5357 22b8 76       	 .byte 0x76
 5358 22b9 11       	 .byte 0x11
 5359 22ba DF210000 	 .4byte 0x21df
 5360 22be 15       	 .uleb128 0x15
 5361 22bf 95080000 	 .4byte .LASF553
 5362 22c3 37       	 .byte 0x37
 5363 22c4 7C       	 .byte 0x7c
 5364 22c5 10       	 .byte 0x10
 5365 22c6 1C0A0000 	 .4byte 0xa1c
 5366 22ca 00       	 .byte 0
 5367 22cb 3D       	 .uleb128 0x3d
 5368 22cc 00       	 .byte 0
 5369 22cd 38       	 .byte 0x38
 5370 22ce 1001     	 .2byte 0x110
 5371 22d0 09       	 .byte 0x9
 5372 22d1 08       	 .uleb128 0x8
 5373 22d2 E4260000 	 .4byte .LASF554
 5374 22d6 38       	 .byte 0x38
 5375 22d7 5301     	 .2byte 0x153
 5376 22d9 03       	 .byte 0x3
 5377 22da CB220000 	 .4byte 0x22cb
 5378 22de 29       	 .uleb128 0x29
 5379 22df 2D000000 	 .4byte 0x2d
 5380 22e3 38       	 .byte 0x38
 5381 22e4 5901     	 .2byte 0x159
 5382 22e6 03230000 	 .4byte 0x2303
 5383 22ea 07       	 .uleb128 0x7
 5384 22eb 1C480000 	 .4byte .LASF555
 5385 22ef 00       	 .byte 0
 5386 22f0 07       	 .uleb128 0x7
 5387 22f1 51410000 	 .4byte .LASF556
 5388 22f5 01       	 .byte 0x1
 5389 22f6 07       	 .uleb128 0x7
 5390 22f7 68000000 	 .4byte .LASF557
 5391 22fb 02       	 .byte 0x2
 5392 22fc 07       	 .uleb128 0x7
 5393 22fd FF150000 	 .4byte .LASF558
 5394 2301 03       	 .byte 0x3
 5395 2302 00       	 .byte 0
 5396 2303 11       	 .uleb128 0x11
 5397 2304 20       	 .byte 0x20
 5398 2305 38       	 .byte 0x38
 5399 2306 EE01     	 .2byte 0x1ee
 5400 2308 03       	 .byte 0x3
 5401 2309 2A230000 	 .4byte 0x232a
 5402 230d 03       	 .uleb128 0x3
 5403 230e 0F2B0000 	 .4byte .LASF559
ARM GAS   			page 100


 5404 2312 38       	 .byte 0x38
 5405 2313 FA01     	 .2byte 0x1fa
 5406 2315 0E       	 .byte 0xe
 5407 2316 B3030000 	 .4byte 0x3b3
 5408 231a 00       	 .byte 0
 5409 231b 03       	 .uleb128 0x3
 5410 231c 30350000 	 .4byte .LASF560
 5411 2320 38       	 .byte 0x38
 5412 2321 0102     	 .2byte 0x201
 5413 2323 15       	 .byte 0x15
 5414 2324 2A230000 	 .4byte 0x232a
 5415 2328 08       	 .byte 0x8
 5416 2329 00       	 .byte 0
 5417 232a 0A       	 .uleb128 0xa
 5418 232b 9D220000 	 .4byte 0x229d
 5419 232f 3A230000 	 .4byte 0x233a
 5420 2333 0D       	 .uleb128 0xd
 5421 2334 2D000000 	 .4byte 0x2d
 5422 2338 02       	 .byte 0x2
 5423 2339 00       	 .byte 0
 5424 233a 18       	 .uleb128 0x18
 5425 233b 173D0000 	 .4byte .LASF561
 5426 233f 50       	 .byte 0x50
 5427 2340 38       	 .byte 0x38
 5428 2341 8001     	 .2byte 0x180
 5429 2343 10       	 .byte 0x10
 5430 2344 FF230000 	 .4byte 0x23ff
 5431 2348 03       	 .uleb128 0x3
 5432 2349 0C040000 	 .4byte .LASF562
 5433 234d 38       	 .byte 0x38
 5434 234e 8B01     	 .2byte 0x18b
 5435 2350 09       	 .byte 0x9
 5436 2351 DB000000 	 .4byte 0xdb
 5437 2355 00       	 .byte 0
 5438 2356 03       	 .uleb128 0x3
 5439 2357 4B110000 	 .4byte .LASF563
 5440 235b 38       	 .byte 0x38
 5441 235c 9001     	 .2byte 0x190
 5442 235e 09       	 .byte 0x9
 5443 235f DB000000 	 .4byte 0xdb
 5444 2363 04       	 .byte 0x4
 5445 2364 03       	 .uleb128 0x3
 5446 2365 D71A0000 	 .4byte .LASF564
 5447 2369 38       	 .byte 0x38
 5448 236a 9601     	 .2byte 0x196
 5449 236c 0C       	 .byte 0xc
 5450 236d 91030000 	 .4byte 0x391
 5451 2371 08       	 .byte 0x8
 5452 2372 03       	 .uleb128 0x3
 5453 2373 BF370000 	 .4byte .LASF83
 5454 2377 38       	 .byte 0x38
 5455 2378 A001     	 .2byte 0x1a0
 5456 237a 0C       	 .byte 0xc
 5457 237b 91030000 	 .4byte 0x391
 5458 237f 0C       	 .byte 0xc
 5459 2380 03       	 .uleb128 0x3
 5460 2381 C91E0000 	 .4byte .LASF565
ARM GAS   			page 101


 5461 2385 38       	 .byte 0x38
 5462 2386 A601     	 .2byte 0x1a6
 5463 2388 15       	 .byte 0x15
 5464 2389 A2030000 	 .4byte 0x3a2
 5465 238d 10       	 .byte 0x10
 5466 238e 03       	 .uleb128 0x3
 5467 238f E6220000 	 .4byte .LASF566
 5468 2393 38       	 .byte 0x38
 5469 2394 B501     	 .2byte 0x1b5
 5470 2396 11       	 .byte 0x11
 5471 2397 FC060000 	 .4byte 0x6fc
 5472 239b 14       	 .byte 0x14
 5473 239c 03       	 .uleb128 0x3
 5474 239d 3E380000 	 .4byte .LASF567
 5475 23a1 38       	 .byte 0x38
 5476 23a2 BC01     	 .2byte 0x1bc
 5477 23a4 08       	 .byte 0x8
 5478 23a5 FF230000 	 .4byte 0x23ff
 5479 23a9 15       	 .byte 0x15
 5480 23aa 03       	 .uleb128 0x3
 5481 23ab 2F200000 	 .4byte .LASF568
 5482 23af 38       	 .byte 0x38
 5483 23b0 C901     	 .2byte 0x1c9
 5484 23b2 1B       	 .byte 0x1b
 5485 23b3 3A030000 	 .4byte 0x33a
 5486 23b7 18       	 .byte 0x18
 5487 23b8 03       	 .uleb128 0x3
 5488 23b9 39450000 	 .4byte .LASF569
 5489 23bd 38       	 .byte 0x38
 5490 23be D901     	 .2byte 0x1d9
 5491 23c0 1B       	 .byte 0x1b
 5492 23c1 3A030000 	 .4byte 0x33a
 5493 23c5 1C       	 .byte 0x1c
 5494 23c6 03       	 .uleb128 0x3
 5495 23c7 DE1F0000 	 .4byte .LASF570
 5496 23cb 38       	 .byte 0x38
 5497 23cc E901     	 .2byte 0x1e9
 5498 23ce 15       	 .byte 0x15
 5499 23cf 75210000 	 .4byte 0x2175
 5500 23d3 20       	 .byte 0x20
 5501 23d4 03       	 .uleb128 0x3
 5502 23d5 BD0C0000 	 .4byte .LASF571
 5503 23d9 38       	 .byte 0x38
 5504 23da 0202     	 .2byte 0x202
 5505 23dc 05       	 .byte 0x5
 5506 23dd 03230000 	 .4byte 0x2303
 5507 23e1 28       	 .byte 0x28
 5508 23e2 03       	 .uleb128 0x3
 5509 23e3 78130000 	 .4byte .LASF572
 5510 23e7 38       	 .byte 0x38
 5511 23e8 7E02     	 .2byte 0x27e
 5512 23ea 1A       	 .byte 0x1a
 5513 23eb 14240000 	 .4byte 0x2414
 5514 23ef 48       	 .byte 0x48
 5515 23f0 03       	 .uleb128 0x3
 5516 23f1 59070000 	 .4byte .LASF573
 5517 23f5 38       	 .byte 0x38
ARM GAS   			page 102


 5518 23f6 8002     	 .2byte 0x280
 5519 23f8 11       	 .byte 0x11
 5520 23f9 D1220000 	 .4byte 0x22d1
 5521 23fd 4C       	 .byte 0x4c
 5522 23fe 00       	 .byte 0
 5523 23ff 0A       	 .uleb128 0xa
 5524 2400 F5060000 	 .4byte 0x6f5
 5525 2404 0F240000 	 .4byte 0x240f
 5526 2408 0D       	 .uleb128 0xd
 5527 2409 2D000000 	 .4byte 0x2d
 5528 240d 02       	 .byte 0x2
 5529 240e 00       	 .byte 0
 5530 240f 31       	 .uleb128 0x31
 5531 2410 73100000 	 .4byte .LASF575
 5532 2414 05       	 .uleb128 0x5
 5533 2415 0F240000 	 .4byte 0x240f
 5534 2419 0A       	 .uleb128 0xa
 5535 241a 44030000 	 .4byte 0x344
 5536 241e 2A240000 	 .4byte 0x242a
 5537 2422 2E       	 .uleb128 0x2e
 5538 2423 2D000000 	 .4byte 0x2d
 5539 2427 FF0F     	 .2byte 0xfff
 5540 2429 00       	 .byte 0
 5541 242a 21       	 .uleb128 0x21
 5542 242b E0070000 	 .4byte 0x7e0
 5543 242f 3A       	 .byte 0x3a
 5544 2430 65       	 .byte 0x65
 5545 2431 06       	 .byte 0x6
 5546 2432 19240000 	 .4byte 0x2419
 5547 2436 05       	 .uleb128 0x5
 5548 2437 03       	 .byte 0x3
 5549 2438 00000000 	 .4byte _ISR_Stack_area_begin
 5550 243c 0F       	 .uleb128 0xf
 5551 243d EC070000 	 .4byte 0x7ec
 5552 2441 3A       	 .byte 0x3a
 5553 2442 89       	 .byte 0x89
 5554 2443 0E       	 .byte 0xe
 5555 2444 05       	 .uleb128 0x5
 5556 2445 03       	 .byte 0x3
 5557 2446 00000000 	 .4byte _Thread_Idle_stack_size
 5558 244a 18       	 .uleb128 0x18
 5559 244b 65130000 	 .4byte .LASF576
 5560 244f 30       	 .byte 0x30
 5561 2450 39       	 .byte 0x39
 5562 2451 6901     	 .2byte 0x169
 5563 2453 10       	 .byte 0x10
 5564 2454 01250000 	 .4byte 0x2501
 5565 2458 03       	 .uleb128 0x3
 5566 2459 E6110000 	 .4byte .LASF577
 5567 245d 39       	 .byte 0x39
 5568 245e 6A01     	 .2byte 0x16a
 5569 2460 17       	 .byte 0x17
 5570 2461 91030000 	 .4byte 0x391
 5571 2465 00       	 .byte 0
 5572 2466 03       	 .uleb128 0x3
 5573 2467 443B0000 	 .4byte .LASF578
 5574 246b 39       	 .byte 0x39
ARM GAS   			page 103


 5575 246c 6C01     	 .2byte 0x16c
 5576 246e 17       	 .byte 0x17
 5577 246f 91030000 	 .4byte 0x391
 5578 2473 04       	 .byte 0x4
 5579 2474 03       	 .uleb128 0x3
 5580 2475 FC3E0000 	 .4byte .LASF579
 5581 2479 39       	 .byte 0x39
 5582 247a 6E01     	 .2byte 0x16e
 5583 247c 17       	 .byte 0x17
 5584 247d 61060000 	 .4byte 0x661
 5585 2481 08       	 .byte 0x8
 5586 2482 03       	 .uleb128 0x3
 5587 2483 192A0000 	 .4byte .LASF580
 5588 2487 39       	 .byte 0x39
 5589 2488 7001     	 .2byte 0x170
 5590 248a 17       	 .byte 0x17
 5591 248b 91030000 	 .4byte 0x391
 5592 248f 0C       	 .byte 0xc
 5593 2490 03       	 .uleb128 0x3
 5594 2491 8C050000 	 .4byte .LASF581
 5595 2495 39       	 .byte 0x39
 5596 2496 7201     	 .2byte 0x172
 5597 2498 17       	 .byte 0x17
 5598 2499 91030000 	 .4byte 0x391
 5599 249d 10       	 .byte 0x10
 5600 249e 03       	 .uleb128 0x3
 5601 249f C1320000 	 .4byte .LASF582
 5602 24a3 39       	 .byte 0x39
 5603 24a4 7301     	 .2byte 0x173
 5604 24a6 17       	 .byte 0x17
 5605 24a7 C3000000 	 .4byte 0xc3
 5606 24ab 14       	 .byte 0x14
 5607 24ac 03       	 .uleb128 0x3
 5608 24ad F4030000 	 .4byte .LASF583
 5609 24b1 39       	 .byte 0x39
 5610 24b2 7601     	 .2byte 0x176
 5611 24b4 17       	 .byte 0x17
 5612 24b5 61060000 	 .4byte 0x661
 5613 24b9 18       	 .byte 0x18
 5614 24ba 03       	 .uleb128 0x3
 5615 24bb 5C170000 	 .4byte .LASF584
 5616 24bf 39       	 .byte 0x39
 5617 24c0 7801     	 .2byte 0x178
 5618 24c2 17       	 .byte 0x17
 5619 24c3 C3000000 	 .4byte 0xc3
 5620 24c7 1C       	 .byte 0x1c
 5621 24c8 03       	 .uleb128 0x3
 5622 24c9 B3160000 	 .4byte .LASF140
 5623 24cd 39       	 .byte 0x39
 5624 24ce 7A01     	 .2byte 0x17a
 5625 24d0 17       	 .byte 0x17
 5626 24d1 C3000000 	 .4byte 0xc3
 5627 24d5 20       	 .byte 0x20
 5628 24d6 03       	 .uleb128 0x3
 5629 24d7 CA3A0000 	 .4byte .LASF585
 5630 24db 39       	 .byte 0x39
 5631 24dc 7C01     	 .2byte 0x17c
ARM GAS   			page 104


 5632 24de 17       	 .byte 0x17
 5633 24df 91030000 	 .4byte 0x391
 5634 24e3 24       	 .byte 0x24
 5635 24e4 03       	 .uleb128 0x3
 5636 24e5 DC2F0000 	 .4byte .LASF586
 5637 24e9 39       	 .byte 0x39
 5638 24ea 7D01     	 .2byte 0x17d
 5639 24ec 17       	 .byte 0x17
 5640 24ed 91030000 	 .4byte 0x391
 5641 24f1 28       	 .byte 0x28
 5642 24f2 03       	 .uleb128 0x3
 5643 24f3 9D040000 	 .4byte .LASF587
 5644 24f7 39       	 .byte 0x39
 5645 24f8 8001     	 .2byte 0x180
 5646 24fa 17       	 .byte 0x17
 5647 24fb 61060000 	 .4byte 0x661
 5648 24ff 2C       	 .byte 0x2c
 5649 2500 00       	 .byte 0
 5650 2501 08       	 .uleb128 0x8
 5651 2502 65130000 	 .4byte .LASF576
 5652 2506 39       	 .byte 0x39
 5653 2507 8201     	 .2byte 0x182
 5654 2509 03       	 .byte 0x3
 5655 250a 4A240000 	 .4byte 0x244a
 5656 250e 0B       	 .uleb128 0xb
 5657 250f 01250000 	 .4byte 0x2501
 5658 2513 16       	 .uleb128 0x16
 5659 2514 36050000 	 .4byte .LASF588
 5660 2518 39       	 .byte 0x39
 5661 2519 8901     	 .2byte 0x189
 5662 251b 21       	 .byte 0x21
 5663 251c 0E250000 	 .4byte 0x250e
 5664 2520 0F       	 .uleb128 0xf
 5665 2521 13250000 	 .4byte 0x2513
 5666 2525 3B       	 .byte 0x3b
 5667 2526 85       	 .byte 0x85
 5668 2527 1A       	 .byte 0x1a
 5669 2528 05       	 .uleb128 0x5
 5670 2529 03       	 .byte 0x3
 5671 252a 00000000 	 .4byte rtems_bdbuf_configuration
 5672 252e 04       	 .uleb128 0x4
 5673 252f 74140000 	 .4byte .LASF589
 5674 2533 3C       	 .byte 0x3c
 5675 2534 BA       	 .byte 0xba
 5676 2535 11       	 .byte 0x11
 5677 2536 50030000 	 .4byte 0x350
 5678 253a 09       	 .uleb128 0x9
 5679 253b 04       	 .byte 0x4
 5680 253c 3C       	 .byte 0x3c
 5681 253d BC       	 .byte 0xbc
 5682 253e 09       	 .byte 0x9
 5683 253f 51250000 	 .4byte 0x2551
 5684 2543 02       	 .uleb128 0x2
 5685 2544 47390000 	 .4byte .LASF590
 5686 2548 3C       	 .byte 0x3c
 5687 2549 BD       	 .byte 0xbd
 5688 254a 19       	 .byte 0x19
ARM GAS   			page 105


 5689 254b 2E250000 	 .4byte 0x252e
 5690 254f 00       	 .byte 0
 5691 2550 00       	 .byte 0
 5692 2551 04       	 .uleb128 0x4
 5693 2552 812B0000 	 .4byte .LASF591
 5694 2556 3C       	 .byte 0x3c
 5695 2557 BE       	 .byte 0xbe
 5696 2558 03       	 .byte 0x3
 5697 2559 3A250000 	 .4byte 0x253a
 5698 255d 0B       	 .uleb128 0xb
 5699 255e 51250000 	 .4byte 0x2551
 5700 2562 25       	 .uleb128 0x25
 5701 2563 92150000 	 .4byte .LASF773
 5702 2567 3D       	 .byte 0x3d
 5703 2568 57       	 .byte 0x57
 5704 2569 03       	 .byte 0x3
 5705 256a 5D250000 	 .4byte 0x255d
 5706 256e 05       	 .uleb128 0x5
 5707 256f 03       	 .byte 0x3
 5708 2570 00000000 	 .4byte _Linker_set__Sysinit__Clock_Initialize
 5709 2574 0F       	 .uleb128 0xf
 5710 2575 25060000 	 .4byte 0x625
 5711 2579 3D       	 .byte 0x3d
 5712 257a 5E       	 .byte 0x5e
 5713 257b 10       	 .byte 0x10
 5714 257c 05       	 .uleb128 0x5
 5715 257d 03       	 .byte 0x3
 5716 257e 00000000 	 .4byte _Watchdog_Microseconds_per_tick
 5717 2582 0F       	 .uleb128 0xf
 5718 2583 31060000 	 .4byte 0x631
 5719 2587 3D       	 .byte 0x3d
 5720 2588 61       	 .byte 0x61
 5721 2589 10       	 .byte 0x10
 5722 258a 05       	 .uleb128 0x5
 5723 258b 03       	 .byte 0x3
 5724 258c 00000000 	 .4byte _Watchdog_Nanoseconds_per_tick
 5725 2590 3E       	 .uleb128 0x3e
 5726 2591 3D060000 	 .4byte 0x63d
 5727 2595 3D       	 .byte 0x3d
 5728 2596 10       	 .byte 0x10
 5729 2597 05       	 .uleb128 0x5
 5730 2598 03       	 .byte 0x3
 5731 2599 00000000 	 .4byte _Watchdog_Ticks_per_second
 5732 259d 09       	 .uleb128 0x9
 5733 259e 0C       	 .byte 0xc
 5734 259f 3E       	 .byte 0x3e
 5735 25a0 40       	 .byte 0x40
 5736 25a1 09       	 .byte 0x9
 5737 25a2 B4250000 	 .4byte 0x25b4
 5738 25a6 02       	 .uleb128 0x2
 5739 25a7 DC420000 	 .4byte .LASF592
 5740 25ab 3E       	 .byte 0x3e
 5741 25ac 44       	 .byte 0x44
 5742 25ad 11       	 .byte 0x11
 5743 25ae 970A0000 	 .4byte 0xa97
 5744 25b2 00       	 .byte 0
 5745 25b3 00       	 .byte 0
ARM GAS   			page 106


 5746 25b4 04       	 .uleb128 0x4
 5747 25b5 782E0000 	 .4byte .LASF593
 5748 25b9 3E       	 .byte 0x3e
 5749 25ba 45       	 .byte 0x45
 5750 25bb 03       	 .byte 0x3
 5751 25bc 9D250000 	 .4byte 0x259d
 5752 25c0 09       	 .uleb128 0x9
 5753 25c1 10       	 .byte 0x10
 5754 25c2 3F       	 .byte 0x3f
 5755 25c3 3D       	 .byte 0x3d
 5756 25c4 09       	 .byte 0x9
 5757 25c5 F0250000 	 .4byte 0x25f0
 5758 25c9 02       	 .uleb128 0x2
 5759 25ca 40120000 	 .4byte .LASF202
 5760 25ce 3F       	 .byte 0x3f
 5761 25cf 3F       	 .byte 0x3f
 5762 25d0 12       	 .byte 0x12
 5763 25d1 1C0A0000 	 .4byte 0xa1c
 5764 25d5 00       	 .byte 0
 5765 25d6 22       	 .uleb128 0x22
 5766 25d7 696400   	 .ascii "id\000"
 5767 25da 3F       	 .byte 0x3f
 5768 25db 41       	 .byte 0x41
 5769 25dc 12       	 .byte 0x12
 5770 25dd D7050000 	 .4byte 0x5d7
 5771 25e1 08       	 .byte 0x8
 5772 25e2 02       	 .uleb128 0x2
 5773 25e3 5B220000 	 .4byte .LASF150
 5774 25e7 3F       	 .byte 0x3f
 5775 25e8 43       	 .byte 0x43
 5776 25e9 12       	 .byte 0x12
 5777 25ea CB050000 	 .4byte 0x5cb
 5778 25ee 0C       	 .byte 0xc
 5779 25ef 00       	 .byte 0
 5780 25f0 04       	 .uleb128 0x4
 5781 25f1 79200000 	 .4byte .LASF594
 5782 25f5 3F       	 .byte 0x3f
 5783 25f6 44       	 .byte 0x44
 5784 25f7 03       	 .byte 0x3
 5785 25f8 C0250000 	 .4byte 0x25c0
 5786 25fc 1F       	 .uleb128 0x1f
 5787 25fd 2D000000 	 .4byte 0x2d
 5788 2601 3F       	 .byte 0x3f
 5789 2602 4A       	 .byte 0x4a
 5790 2603 14260000 	 .4byte 0x2614
 5791 2607 07       	 .uleb128 0x7
 5792 2608 B5080000 	 .4byte .LASF595
 5793 260c 00       	 .byte 0
 5794 260d 07       	 .uleb128 0x7
 5795 260e C22E0000 	 .4byte .LASF596
 5796 2612 01       	 .byte 0x1
 5797 2613 00       	 .byte 0
 5798 2614 1F       	 .uleb128 0x1f
 5799 2615 2D000000 	 .4byte 0x2d
 5800 2619 3F       	 .byte 0x3f
 5801 261a 55       	 .byte 0x55
 5802 261b 62260000 	 .4byte 0x2662
ARM GAS   			page 107


 5803 261f 07       	 .uleb128 0x7
 5804 2620 BF210000 	 .4byte .LASF597
 5805 2624 00       	 .byte 0
 5806 2625 07       	 .uleb128 0x7
 5807 2626 84450000 	 .4byte .LASF598
 5808 262a 01       	 .byte 0x1
 5809 262b 07       	 .uleb128 0x7
 5810 262c 121E0000 	 .4byte .LASF599
 5811 2630 02       	 .byte 0x2
 5812 2631 07       	 .uleb128 0x7
 5813 2632 7D270000 	 .4byte .LASF600
 5814 2636 03       	 .byte 0x3
 5815 2637 07       	 .uleb128 0x7
 5816 2638 E8160000 	 .4byte .LASF601
 5817 263c 04       	 .byte 0x4
 5818 263d 07       	 .uleb128 0x7
 5819 263e 01270000 	 .4byte .LASF602
 5820 2642 05       	 .byte 0x5
 5821 2643 07       	 .uleb128 0x7
 5822 2644 B0070000 	 .4byte .LASF603
 5823 2648 06       	 .byte 0x6
 5824 2649 07       	 .uleb128 0x7
 5825 264a CE450000 	 .4byte .LASF604
 5826 264e 07       	 .byte 0x7
 5827 264f 07       	 .uleb128 0x7
 5828 2650 09490000 	 .4byte .LASF605
 5829 2654 08       	 .byte 0x8
 5830 2655 07       	 .uleb128 0x7
 5831 2656 254A0000 	 .4byte .LASF606
 5832 265a 09       	 .byte 0x9
 5833 265b 07       	 .uleb128 0x7
 5834 265c D1230000 	 .4byte .LASF607
 5835 2660 0A       	 .byte 0xa
 5836 2661 00       	 .byte 0
 5837 2662 1F       	 .uleb128 0x1f
 5838 2663 2D000000 	 .4byte 0x2d
 5839 2667 3F       	 .byte 0x3f
 5840 2668 6A       	 .byte 0x6a
 5841 2669 98260000 	 .4byte 0x2698
 5842 266d 07       	 .uleb128 0x7
 5843 266e B6130000 	 .4byte .LASF608
 5844 2672 00       	 .byte 0
 5845 2673 07       	 .uleb128 0x7
 5846 2674 200A0000 	 .4byte .LASF609
 5847 2678 01       	 .byte 0x1
 5848 2679 07       	 .uleb128 0x7
 5849 267a 6B340000 	 .4byte .LASF610
 5850 267e 02       	 .byte 0x2
 5851 267f 07       	 .uleb128 0x7
 5852 2680 BF0A0000 	 .4byte .LASF611
 5853 2684 03       	 .byte 0x3
 5854 2685 07       	 .uleb128 0x7
 5855 2686 F83D0000 	 .4byte .LASF612
 5856 268a 04       	 .byte 0x4
 5857 268b 07       	 .uleb128 0x7
 5858 268c 7D1D0000 	 .4byte .LASF613
 5859 2690 05       	 .byte 0x5
ARM GAS   			page 108


 5860 2691 07       	 .uleb128 0x7
 5861 2692 10320000 	 .4byte .LASF614
 5862 2696 06       	 .byte 0x6
 5863 2697 00       	 .byte 0
 5864 2698 04       	 .uleb128 0x4
 5865 2699 1C1D0000 	 .4byte .LASF615
 5866 269d 3F       	 .byte 0x3f
 5867 269e BB       	 .byte 0xbb
 5868 269f 24       	 .byte 0x24
 5869 26a0 A4260000 	 .4byte 0x26a4
 5870 26a4 13       	 .uleb128 0x13
 5871 26a5 1C1D0000 	 .4byte .LASF615
 5872 26a9 30       	 .byte 0x30
 5873 26aa 3F       	 .byte 0x3f
 5874 26ab C6       	 .byte 0xc6
 5875 26ac 08       	 .byte 0x8
 5876 26ad 54270000 	 .4byte 0x2754
 5877 26b1 02       	 .uleb128 0x2
 5878 26b2 E5340000 	 .4byte .LASF616
 5879 26b6 3F       	 .byte 0x3f
 5880 26b7 CF       	 .byte 0xcf
 5881 26b8 0E       	 .byte 0xe
 5882 26b9 D7050000 	 .4byte 0x5d7
 5883 26bd 00       	 .byte 0
 5884 26be 02       	 .uleb128 0x2
 5885 26bf 60250000 	 .4byte .LASF617
 5886 26c3 3F       	 .byte 0x3f
 5887 26c4 D9       	 .byte 0xd9
 5888 26c5 15       	 .byte 0x15
 5889 26c6 54270000 	 .4byte 0x2754
 5890 26ca 04       	 .byte 0x4
 5891 26cb 02       	 .uleb128 0x2
 5892 26cc 63010000 	 .4byte .LASF618
 5893 26d0 3F       	 .byte 0x3f
 5894 26d1 E1       	 .byte 0xe1
 5895 26d2 17       	 .byte 0x17
 5896 26d3 72270000 	 .4byte 0x2772
 5897 26d7 08       	 .byte 0x8
 5898 26d8 02       	 .uleb128 0x2
 5899 26d9 56050000 	 .4byte .LASF619
 5900 26dd 3F       	 .byte 0x3f
 5901 26de EB       	 .byte 0xeb
 5902 26df 0B       	 .byte 0xb
 5903 26e0 87270000 	 .4byte 0x2787
 5904 26e4 0C       	 .byte 0xc
 5905 26e5 02       	 .uleb128 0x2
 5906 26e6 57320000 	 .4byte .LASF620
 5907 26ea 3F       	 .byte 0x3f
 5908 26eb F4       	 .byte 0xf4
 5909 26ec 13       	 .byte 0x13
 5910 26ed E3050000 	 .4byte 0x5e3
 5911 26f1 10       	 .byte 0x10
 5912 26f2 02       	 .uleb128 0x2
 5913 26f3 FB0A0000 	 .4byte .LASF621
 5914 26f7 3F       	 .byte 0x3f
 5915 26f8 FD       	 .byte 0xfd
 5916 26f9 13       	 .byte 0x13
ARM GAS   			page 109


 5917 26fa E3050000 	 .4byte 0x5e3
 5918 26fe 12       	 .byte 0x12
 5919 26ff 03       	 .uleb128 0x3
 5920 2700 A8180000 	 .4byte .LASF622
 5921 2704 3F       	 .byte 0x3f
 5922 2705 0401     	 .2byte 0x104
 5923 2707 0C       	 .byte 0xc
 5924 2708 85030000 	 .4byte 0x385
 5925 270c 14       	 .byte 0x14
 5926 270d 03       	 .uleb128 0x3
 5927 270e 9D310000 	 .4byte .LASF623
 5928 2712 3F       	 .byte 0x3f
 5929 2713 0D01     	 .2byte 0x10d
 5930 2715 0C       	 .byte 0xc
 5931 2716 85030000 	 .4byte 0x385
 5932 271a 16       	 .byte 0x16
 5933 271b 03       	 .uleb128 0x3
 5934 271c D9100000 	 .4byte .LASF624
 5935 2720 3F       	 .byte 0x3f
 5936 2721 1601     	 .2byte 0x116
 5937 2723 11       	 .byte 0x11
 5938 2724 970A0000 	 .4byte 0xa97
 5939 2728 18       	 .byte 0x18
 5940 2729 03       	 .uleb128 0x3
 5941 272a CC290000 	 .4byte .LASF625
 5942 272e 3F       	 .byte 0x3f
 5943 272f 1E01     	 .2byte 0x11e
 5944 2731 14       	 .byte 0x14
 5945 2732 8C270000 	 .4byte 0x278c
 5946 2736 24       	 .byte 0x24
 5947 2737 03       	 .uleb128 0x3
 5948 2738 D5380000 	 .4byte .LASF626
 5949 273c 3F       	 .byte 0x3f
 5950 273d 2601     	 .2byte 0x126
 5951 273f 15       	 .byte 0x15
 5952 2740 54270000 	 .4byte 0x2754
 5953 2744 28       	 .byte 0x28
 5954 2745 03       	 .uleb128 0x3
 5955 2746 23260000 	 .4byte .LASF627
 5956 274a 3F       	 .byte 0x3f
 5957 274b 3001     	 .2byte 0x130
 5958 274d 14       	 .byte 0x14
 5959 274e 59270000 	 .4byte 0x2759
 5960 2752 2C       	 .byte 0x2c
 5961 2753 00       	 .byte 0
 5962 2754 05       	 .uleb128 0x5
 5963 2755 59270000 	 .4byte 0x2759
 5964 2759 05       	 .uleb128 0x5
 5965 275a F0250000 	 .4byte 0x25f0
 5966 275e 0C       	 .uleb128 0xc
 5967 275f 59270000 	 .4byte 0x2759
 5968 2763 6D270000 	 .4byte 0x276d
 5969 2767 01       	 .uleb128 0x1
 5970 2768 6D270000 	 .4byte 0x276d
 5971 276c 00       	 .byte 0
 5972 276d 05       	 .uleb128 0x5
 5973 276e 98260000 	 .4byte 0x2698
ARM GAS   			page 110


 5974 2772 05       	 .uleb128 0x5
 5975 2773 5E270000 	 .4byte 0x275e
 5976 2777 0E       	 .uleb128 0xe
 5977 2778 87270000 	 .4byte 0x2787
 5978 277c 01       	 .uleb128 0x1
 5979 277d 6D270000 	 .4byte 0x276d
 5980 2781 01       	 .uleb128 0x1
 5981 2782 59270000 	 .4byte 0x2759
 5982 2786 00       	 .byte 0
 5983 2787 05       	 .uleb128 0x5
 5984 2788 77270000 	 .4byte 0x2777
 5985 278c 05       	 .uleb128 0x5
 5986 278d E3050000 	 .4byte 0x5e3
 5987 2791 04       	 .uleb128 0x4
 5988 2792 B60D0000 	 .4byte .LASF628
 5989 2796 40       	 .byte 0x40
 5990 2797 5B       	 .byte 0x5b
 5991 2798 12       	 .byte 0x12
 5992 2799 B3030000 	 .4byte 0x3b3
 5993 279d 20       	 .uleb128 0x20
 5994 279e 10       	 .byte 0x10
 5995 279f 40       	 .byte 0x40
 5996 27a0 74       	 .byte 0x74
 5997 27a1 03       	 .byte 0x3
 5998 27a2 BF270000 	 .4byte 0x27bf
 5999 27a6 15       	 .uleb128 0x15
 6000 27a7 95080000 	 .4byte .LASF553
 6001 27ab 40       	 .byte 0x40
 6002 27ac 75       	 .byte 0x75
 6003 27ad 10       	 .byte 0x10
 6004 27ae 1C0A0000 	 .4byte 0xa1c
 6005 27b2 15       	 .uleb128 0x15
 6006 27b3 CA110000 	 .4byte .LASF552
 6007 27b7 40       	 .byte 0x40
 6008 27b8 76       	 .byte 0x76
 6009 27b9 11       	 .byte 0x11
 6010 27ba DF210000 	 .4byte 0x21df
 6011 27be 00       	 .byte 0
 6012 27bf 09       	 .uleb128 0x9
 6013 27c0 18       	 .byte 0x18
 6014 27c1 40       	 .byte 0x40
 6015 27c2 70       	 .byte 0x70
 6016 27c3 09       	 .byte 0x9
 6017 27c4 E3270000 	 .4byte 0x27e3
 6018 27c8 02       	 .uleb128 0x2
 6019 27c9 40120000 	 .4byte .LASF202
 6020 27cd 40       	 .byte 0x40
 6021 27ce 77       	 .byte 0x77
 6022 27cf 05       	 .byte 0x5
 6023 27d0 9D270000 	 .4byte 0x279d
 6024 27d4 00       	 .byte 0
 6025 27d5 02       	 .uleb128 0x2
 6026 27d6 43080000 	 .4byte .LASF249
 6027 27da 40       	 .byte 0x40
 6028 27db 7C       	 .byte 0x7c
 6029 27dc 14       	 .byte 0x14
 6030 27dd 91270000 	 .4byte 0x2791
ARM GAS   			page 111


 6031 27e1 10       	 .byte 0x10
 6032 27e2 00       	 .byte 0
 6033 27e3 04       	 .uleb128 0x4
 6034 27e4 F8290000 	 .4byte .LASF629
 6035 27e8 40       	 .byte 0x40
 6036 27e9 7D       	 .byte 0x7d
 6037 27ea 03       	 .byte 0x3
 6038 27eb BF270000 	 .4byte 0x27bf
 6039 27ef 1F       	 .uleb128 0x1f
 6040 27f0 2D000000 	 .4byte 0x2d
 6041 27f4 40       	 .byte 0x40
 6042 27f5 82       	 .byte 0x82
 6043 27f6 13280000 	 .4byte 0x2813
 6044 27fa 07       	 .uleb128 0x7
 6045 27fb BD1B0000 	 .4byte .LASF630
 6046 27ff 00       	 .byte 0
 6047 2800 07       	 .uleb128 0x7
 6048 2801 6D450000 	 .4byte .LASF631
 6049 2805 01       	 .byte 0x1
 6050 2806 07       	 .uleb128 0x7
 6051 2807 C0050000 	 .4byte .LASF632
 6052 280b 02       	 .byte 0x2
 6053 280c 07       	 .uleb128 0x7
 6054 280d CD140000 	 .4byte .LASF633
 6055 2811 03       	 .byte 0x3
 6056 2812 00       	 .byte 0
 6057 2813 04       	 .uleb128 0x4
 6058 2814 A9330000 	 .4byte .LASF634
 6059 2818 40       	 .byte 0x40
 6060 2819 87       	 .byte 0x87
 6061 281a 03       	 .byte 0x3
 6062 281b EF270000 	 .4byte 0x27ef
 6063 281f 04       	 .uleb128 0x4
 6064 2820 E3380000 	 .4byte .LASF635
 6065 2824 40       	 .byte 0x40
 6066 2825 89       	 .byte 0x89
 6067 2826 25       	 .byte 0x25
 6068 2827 2B280000 	 .4byte 0x282b
 6069 282b 13       	 .uleb128 0x13
 6070 282c E3380000 	 .4byte .LASF635
 6071 2830 28       	 .byte 0x28
 6072 2831 40       	 .byte 0x40
 6073 2832 93       	 .byte 0x93
 6074 2833 08       	 .byte 0x8
 6075 2834 60280000 	 .4byte 0x2860
 6076 2838 02       	 .uleb128 0x2
 6077 2839 40120000 	 .4byte .LASF202
 6078 283d 40       	 .byte 0x40
 6079 283e A1       	 .byte 0xa1
 6080 283f 11       	 .byte 0x11
 6081 2840 E3270000 	 .4byte 0x27e3
 6082 2844 00       	 .byte 0
 6083 2845 02       	 .uleb128 0x2
 6084 2846 39200000 	 .4byte .LASF636
 6085 284a 40       	 .byte 0x40
 6086 284b A7       	 .byte 0xa7
 6087 284c 12       	 .byte 0x12
ARM GAS   			page 112


 6088 284d 06220000 	 .4byte 0x2206
 6089 2851 18       	 .byte 0x18
 6090 2852 02       	 .uleb128 0x2
 6091 2853 20470000 	 .4byte .LASF637
 6092 2857 40       	 .byte 0x40
 6093 2858 C5       	 .byte 0xc5
 6094 2859 05       	 .byte 0x5
 6095 285a 60280000 	 .4byte 0x2860
 6096 285e 1C       	 .byte 0x1c
 6097 285f 00       	 .byte 0
 6098 2860 09       	 .uleb128 0x9
 6099 2861 08       	 .byte 0x8
 6100 2862 40       	 .byte 0x40
 6101 2863 B4       	 .byte 0xb4
 6102 2864 03       	 .byte 0x3
 6103 2865 84280000 	 .4byte 0x2884
 6104 2869 02       	 .uleb128 0x2
 6105 286a 98310000 	 .4byte .LASF638
 6106 286e 40       	 .byte 0x40
 6107 286f BF       	 .byte 0xbf
 6108 2870 14       	 .byte 0x14
 6109 2871 84280000 	 .4byte 0x2884
 6110 2875 00       	 .byte 0
 6111 2876 02       	 .uleb128 0x2
 6112 2877 B10D0000 	 .4byte .LASF305
 6113 287b 40       	 .byte 0x40
 6114 287c C4       	 .byte 0xc4
 6115 287d 1A       	 .byte 0x1a
 6116 287e 13280000 	 .4byte 0x2813
 6117 2882 04       	 .byte 0x4
 6118 2883 00       	 .byte 0
 6119 2884 05       	 .uleb128 0x5
 6120 2885 E3270000 	 .4byte 0x27e3
 6121 2889 09       	 .uleb128 0x9
 6122 288a 04       	 .byte 0x4
 6123 288b 40       	 .byte 0x40
 6124 288c CF       	 .byte 0xcf
 6125 288d 09       	 .byte 0x9
 6126 288e A0280000 	 .4byte 0x28a0
 6127 2892 02       	 .uleb128 0x2
 6128 2893 B0000000 	 .4byte .LASF639
 6129 2897 40       	 .byte 0x40
 6130 2898 D3       	 .byte 0xd3
 6131 2899 19       	 .byte 0x19
 6132 289a A0280000 	 .4byte 0x28a0
 6133 289e 00       	 .byte 0
 6134 289f 00       	 .byte 0
 6135 28a0 05       	 .uleb128 0x5
 6136 28a1 1F280000 	 .4byte 0x281f
 6137 28a5 04       	 .uleb128 0x4
 6138 28a6 A4200000 	 .4byte .LASF640
 6139 28aa 40       	 .byte 0x40
 6140 28ab D4       	 .byte 0xd4
 6141 28ac 03       	 .byte 0x3
 6142 28ad 89280000 	 .4byte 0x2889
 6143 28b1 04       	 .uleb128 0x4
 6144 28b2 191A0000 	 .4byte .LASF641
ARM GAS   			page 113


 6145 28b6 41       	 .byte 0x41
 6146 28b7 59       	 .byte 0x59
 6147 28b8 1F       	 .byte 0x1f
 6148 28b9 BD280000 	 .4byte 0x28bd
 6149 28bd 13       	 .uleb128 0x13
 6150 28be 191A0000 	 .4byte .LASF641
 6151 28c2 38       	 .byte 0x38
 6152 28c3 41       	 .byte 0x41
 6153 28c4 5E       	 .byte 0x5e
 6154 28c5 08       	 .byte 0x8
 6155 28c6 F2280000 	 .4byte 0x28f2
 6156 28ca 02       	 .uleb128 0x2
 6157 28cb 88170000 	 .4byte .LASF642
 6158 28cf 41       	 .byte 0x41
 6159 28d0 8A       	 .byte 0x8a
 6160 28d1 1B       	 .byte 0x1b
 6161 28d2 3A030000 	 .4byte 0x33a
 6162 28d6 00       	 .byte 0
 6163 28d7 02       	 .uleb128 0x2
 6164 28d8 8E170000 	 .4byte .LASF43
 6165 28dc 41       	 .byte 0x41
 6166 28dd BC       	 .byte 0xbc
 6167 28de 05       	 .byte 0x5
 6168 28df F2280000 	 .4byte 0x28f2
 6169 28e3 08       	 .byte 0x8
 6170 28e4 02       	 .uleb128 0x2
 6171 28e5 5F2D0000 	 .4byte .LASF643
 6172 28e9 41       	 .byte 0x41
 6173 28ea E4       	 .byte 0xe4
 6174 28eb 05       	 .byte 0x5
 6175 28ec 09290000 	 .4byte 0x2909
 6176 28f0 30       	 .byte 0x30
 6177 28f1 00       	 .byte 0
 6178 28f2 09       	 .uleb128 0x9
 6179 28f3 28       	 .byte 0x28
 6180 28f4 41       	 .byte 0x41
 6181 28f5 BA       	 .byte 0xba
 6182 28f6 03       	 .byte 0x3
 6183 28f7 09290000 	 .4byte 0x2909
 6184 28fb 02       	 .uleb128 0x2
 6185 28fc 5F2D0000 	 .4byte .LASF643
 6186 2900 41       	 .byte 0x41
 6187 2901 BB       	 .byte 0xbb
 6188 2902 1A       	 .byte 0x1a
 6189 2903 1F280000 	 .4byte 0x281f
 6190 2907 00       	 .byte 0
 6191 2908 00       	 .byte 0
 6192 2909 09       	 .uleb128 0x9
 6193 290a 08       	 .byte 0x8
 6194 290b 41       	 .byte 0x41
 6195 290c C9       	 .byte 0xc9
 6196 290d 03       	 .byte 0x3
 6197 290e 20290000 	 .4byte 0x2920
 6198 2912 02       	 .uleb128 0x2
 6199 2913 98140000 	 .4byte .LASF644
 6200 2917 41       	 .byte 0x41
 6201 2918 DB       	 .byte 0xdb
ARM GAS   			page 114


 6202 2919 16       	 .byte 0x16
 6203 291a 91270000 	 .4byte 0x2791
 6204 291e 00       	 .byte 0
 6205 291f 00       	 .byte 0
 6206 2920 04       	 .uleb128 0x4
 6207 2921 FE0E0000 	 .4byte .LASF645
 6208 2925 42       	 .byte 0x42
 6209 2926 41       	 .byte 0x41
 6210 2927 14       	 .byte 0x14
 6211 2928 91030000 	 .4byte 0x391
 6212 292c 04       	 .uleb128 0x4
 6213 292d 52290000 	 .4byte .LASF646
 6214 2931 06       	 .byte 0x6
 6215 2932 48       	 .byte 0x48
 6216 2933 20       	 .byte 0x20
 6217 2934 CC010000 	 .4byte 0x1cc
 6218 2938 04       	 .uleb128 0x4
 6219 2939 63460000 	 .4byte .LASF647
 6220 293d 06       	 .byte 0x6
 6221 293e 4A       	 .byte 0x4a
 6222 293f 25       	 .byte 0x25
 6223 2940 44290000 	 .4byte 0x2944
 6224 2944 13       	 .uleb128 0x13
 6225 2945 63460000 	 .4byte .LASF647
 6226 2949 28       	 .byte 0x28
 6227 294a 06       	 .byte 0x6
 6228 294b D8       	 .byte 0xd8
 6229 294c 08       	 .byte 0x8
 6230 294d B1290000 	 .4byte 0x29b1
 6231 2951 02       	 .uleb128 0x2
 6232 2952 8A350000 	 .4byte .LASF648
 6233 2956 06       	 .byte 0x6
 6234 2957 DD       	 .byte 0xdd
 6235 2958 1D       	 .byte 0x1d
 6236 2959 CE2A0000 	 .4byte 0x2ace
 6237 295d 00       	 .byte 0
 6238 295e 02       	 .uleb128 0x2
 6239 295f C5420000 	 .4byte .LASF649
 6240 2963 06       	 .byte 0x6
 6241 2964 E2       	 .byte 0xe2
 6242 2965 12       	 .byte 0x12
 6243 2966 20290000 	 .4byte 0x2920
 6244 296a 04       	 .byte 0x4
 6245 296b 02       	 .uleb128 0x2
 6246 296c 731F0000 	 .4byte .LASF650
 6247 2970 06       	 .byte 0x6
 6248 2971 F0       	 .byte 0xf0
 6249 2972 20       	 .byte 0x20
 6250 2973 5C2A0000 	 .4byte 0x2a5c
 6251 2977 08       	 .byte 0x8
 6252 2978 03       	 .uleb128 0x3
 6253 2979 2C280000 	 .4byte .LASF651
 6254 297d 06       	 .byte 0x6
 6255 297e 0101     	 .2byte 0x101
 6256 2980 05       	 .byte 0x5
 6257 2981 DA2A0000 	 .4byte 0x2ada
 6258 2985 0C       	 .byte 0xc
ARM GAS   			page 115


 6259 2986 03       	 .uleb128 0x3
 6260 2987 C61A0000 	 .4byte .LASF652
 6261 298b 06       	 .byte 0x6
 6262 298c 0701     	 .2byte 0x107
 6263 298e 08       	 .byte 0x8
 6264 298f F5060000 	 .4byte 0x6f5
 6265 2993 10       	 .byte 0x10
 6266 2994 03       	 .uleb128 0x3
 6267 2995 5F2D0000 	 .4byte .LASF643
 6268 2999 06       	 .byte 0x6
 6269 299a 3F01     	 .2byte 0x13f
 6270 299c 05       	 .byte 0x5
 6271 299d FD2A0000 	 .4byte 0x2afd
 6272 29a1 14       	 .byte 0x14
 6273 29a2 03       	 .uleb128 0x3
 6274 29a3 A92A0000 	 .4byte .LASF653
 6275 29a7 06       	 .byte 0x6
 6276 29a8 4901     	 .2byte 0x149
 6277 29aa 21       	 .byte 0x21
 6278 29ab 9B2A0000 	 .4byte 0x2a9b
 6279 29af 24       	 .byte 0x24
 6280 29b0 00       	 .byte 0
 6281 29b1 04       	 .uleb128 0x4
 6282 29b2 F1370000 	 .4byte .LASF654
 6283 29b6 06       	 .byte 0x6
 6284 29b7 4C       	 .byte 0x4c
 6285 29b8 23       	 .byte 0x23
 6286 29b9 BD290000 	 .4byte 0x29bd
 6287 29bd 18       	 .uleb128 0x18
 6288 29be F1370000 	 .4byte .LASF654
 6289 29c2 0C       	 .byte 0xc
 6290 29c3 06       	 .byte 0x6
 6291 29c4 AB01     	 .2byte 0x1ab
 6292 29c6 08       	 .byte 0x8
 6293 29c7 F6290000 	 .4byte 0x29f6
 6294 29cb 03       	 .uleb128 0x3
 6295 29cc B70C0000 	 .4byte .LASF655
 6296 29d0 06       	 .byte 0x6
 6297 29d1 C301     	 .2byte 0x1c3
 6298 29d3 17       	 .byte 0x17
 6299 29d4 B22B0000 	 .4byte 0x2bb2
 6300 29d8 00       	 .byte 0
 6301 29d9 03       	 .uleb128 0x3
 6302 29da 88170000 	 .4byte .LASF642
 6303 29de 06       	 .byte 0x6
 6304 29df C801     	 .2byte 0x1c8
 6305 29e1 13       	 .byte 0x13
 6306 29e2 8C2A0000 	 .4byte 0x2a8c
 6307 29e6 04       	 .byte 0x4
 6308 29e7 03       	 .uleb128 0x3
 6309 29e8 5B220000 	 .4byte .LASF150
 6310 29ec 06       	 .byte 0x6
 6311 29ed CD01     	 .2byte 0x1cd
 6312 29ef 0F       	 .byte 0xf
 6313 29f0 3F030000 	 .4byte 0x33f
 6314 29f4 08       	 .byte 0x8
 6315 29f5 00       	 .byte 0
ARM GAS   			page 116


 6316 29f6 04       	 .uleb128 0x4
 6317 29f7 CE220000 	 .4byte .LASF656
 6318 29fb 06       	 .byte 0x6
 6319 29fc 4E       	 .byte 0x4e
 6320 29fd 28       	 .byte 0x28
 6321 29fe 072A0000 	 .4byte 0x2a07
 6322 2a02 0B       	 .uleb128 0xb
 6323 2a03 F6290000 	 .4byte 0x29f6
 6324 2a07 18       	 .uleb128 0x18
 6325 2a08 CE220000 	 .4byte .LASF656
 6326 2a0c 14       	 .byte 0x14
 6327 2a0d 06       	 .byte 0x6
 6328 2a0e 2A02     	 .2byte 0x22a
 6329 2a10 08       	 .byte 0x8
 6330 2a11 5C2A0000 	 .4byte 0x2a5c
 6331 2a15 03       	 .uleb128 0x3
 6332 2a16 651A0000 	 .4byte .LASF657
 6333 2a1a 06       	 .byte 0x6
 6334 2a1b 3102     	 .2byte 0x231
 6335 2a1d 2B       	 .byte 0x2b
 6336 2a1e B72B0000 	 .4byte 0x2bb7
 6337 2a22 00       	 .byte 0
 6338 2a23 03       	 .uleb128 0x3
 6339 2a24 831F0000 	 .4byte .LASF658
 6340 2a28 06       	 .byte 0x6
 6341 2a29 3802     	 .2byte 0x238
 6342 2a2b 22       	 .byte 0x22
 6343 2a2c DE2B0000 	 .4byte 0x2bde
 6344 2a30 04       	 .byte 0x4
 6345 2a31 03       	 .uleb128 0x3
 6346 2a32 0A1E0000 	 .4byte .LASF659
 6347 2a36 06       	 .byte 0x6
 6348 2a37 4402     	 .2byte 0x244
 6349 2a39 22       	 .byte 0x22
 6350 2a3a 052C0000 	 .4byte 0x2c05
 6351 2a3e 08       	 .byte 0x8
 6352 2a3f 03       	 .uleb128 0x3
 6353 2a40 772B0000 	 .4byte .LASF660
 6354 2a44 06       	 .byte 0x6
 6355 2a45 5102     	 .2byte 0x251
 6356 2a47 24       	 .byte 0x24
 6357 2a48 122C0000 	 .4byte 0x2c12
 6358 2a4c 0C       	 .byte 0xc
 6359 2a4d 03       	 .uleb128 0x3
 6360 2a4e 101B0000 	 .4byte .LASF550
 6361 2a52 06       	 .byte 0x6
 6362 2a53 5A02     	 .2byte 0x25a
 6363 2a55 20       	 .byte 0x20
 6364 2a56 422C0000 	 .4byte 0x2c42
 6365 2a5a 10       	 .byte 0x10
 6366 2a5b 00       	 .byte 0
 6367 2a5c 04       	 .uleb128 0x4
 6368 2a5d 960E0000 	 .4byte .LASF661
 6369 2a61 06       	 .byte 0x6
 6370 2a62 5A       	 .byte 0x5a
 6371 2a63 11       	 .byte 0x11
 6372 2a64 682A0000 	 .4byte 0x2a68
ARM GAS   			page 117


 6373 2a68 05       	 .uleb128 0x5
 6374 2a69 6D2A0000 	 .4byte 0x2a6d
 6375 2a6d 0E       	 .uleb128 0xe
 6376 2a6e 872A0000 	 .4byte 0x2a87
 6377 2a72 01       	 .uleb128 0x1
 6378 2a73 872A0000 	 .4byte 0x2a87
 6379 2a77 01       	 .uleb128 0x1
 6380 2a78 8C2A0000 	 .4byte 0x2a8c
 6381 2a7c 01       	 .uleb128 0x1
 6382 2a7d 912A0000 	 .4byte 0x2a91
 6383 2a81 01       	 .uleb128 0x1
 6384 2a82 962A0000 	 .4byte 0x2a96
 6385 2a86 00       	 .byte 0
 6386 2a87 05       	 .uleb128 0x5
 6387 2a88 B1290000 	 .4byte 0x29b1
 6388 2a8c 05       	 .uleb128 0x5
 6389 2a8d 2C290000 	 .4byte 0x292c
 6390 2a91 05       	 .uleb128 0x5
 6391 2a92 3A230000 	 .4byte 0x233a
 6392 2a96 05       	 .uleb128 0x5
 6393 2a97 38290000 	 .4byte 0x2938
 6394 2a9b 04       	 .uleb128 0x4
 6395 2a9c C8490000 	 .4byte .LASF662
 6396 2aa0 06       	 .byte 0x6
 6397 2aa1 68       	 .byte 0x68
 6398 2aa2 11       	 .byte 0x11
 6399 2aa3 A72A0000 	 .4byte 0x2aa7
 6400 2aa7 05       	 .uleb128 0x5
 6401 2aa8 AC2A0000 	 .4byte 0x2aac
 6402 2aac 0E       	 .uleb128 0xe
 6403 2aad B72A0000 	 .4byte 0x2ab7
 6404 2ab1 01       	 .uleb128 0x1
 6405 2ab2 8C2A0000 	 .4byte 0x2a8c
 6406 2ab6 00       	 .byte 0
 6407 2ab7 09       	 .uleb128 0x9
 6408 2ab8 04       	 .byte 0x4
 6409 2ab9 06       	 .byte 0x6
 6410 2aba 8F       	 .byte 0x8f
 6411 2abb 09       	 .byte 0x9
 6412 2abc CE2A0000 	 .4byte 0x2ace
 6413 2ac0 02       	 .uleb128 0x2
 6414 2ac1 8A350000 	 .4byte .LASF648
 6415 2ac5 06       	 .byte 0x6
 6416 2ac6 94       	 .byte 0x94
 6417 2ac7 14       	 .byte 0x14
 6418 2ac8 380D0000 	 .4byte 0xd38
 6419 2acc 00       	 .byte 0
 6420 2acd 00       	 .byte 0
 6421 2ace 04       	 .uleb128 0x4
 6422 2acf 18460000 	 .4byte .LASF663
 6423 2ad3 06       	 .byte 0x6
 6424 2ad4 A8       	 .byte 0xa8
 6425 2ad5 03       	 .byte 0x3
 6426 2ad6 B72A0000 	 .4byte 0x2ab7
 6427 2ada 20       	 .uleb128 0x20
 6428 2adb 04       	 .byte 0x4
 6429 2adc 06       	 .byte 0x6
ARM GAS   			page 118


 6430 2add F7       	 .byte 0xf7
 6431 2ade 03       	 .byte 0x3
 6432 2adf FD2A0000 	 .4byte 0x2afd
 6433 2ae3 15       	 .uleb128 0x15
 6434 2ae4 0F2B0000 	 .4byte .LASF559
 6435 2ae8 06       	 .byte 0x6
 6436 2ae9 FB       	 .byte 0xfb
 6437 2aea 17       	 .byte 0x17
 6438 2aeb 19060000 	 .4byte 0x619
 6439 2aef 3F       	 .uleb128 0x3f
 6440 2af0 61726700 	 .ascii "arg\000"
 6441 2af4 06       	 .byte 0x6
 6442 2af5 0001     	 .2byte 0x100
 6443 2af7 11       	 .byte 0x11
 6444 2af8 73030000 	 .4byte 0x373
 6445 2afc 00       	 .byte 0
 6446 2afd 11       	 .uleb128 0x11
 6447 2afe 10       	 .byte 0x10
 6448 2aff 06       	 .byte 0x6
 6449 2b00 2B01     	 .2byte 0x12b
 6450 2b02 03       	 .byte 0x3
 6451 2b03 322B0000 	 .4byte 0x2b32
 6452 2b07 03       	 .uleb128 0x3
 6453 2b08 E5140000 	 .4byte .LASF664
 6454 2b0c 06       	 .byte 0x6
 6455 2b0d 2F01     	 .2byte 0x12f
 6456 2b0f 16       	 .byte 0x16
 6457 2b10 A5280000 	 .4byte 0x28a5
 6458 2b14 00       	 .byte 0
 6459 2b15 03       	 .uleb128 0x3
 6460 2b16 7F2C0000 	 .4byte .LASF665
 6461 2b1a 06       	 .byte 0x6
 6462 2b1b 3501     	 .2byte 0x135
 6463 2b1d 0C       	 .byte 0xc
 6464 2b1e C3000000 	 .4byte 0xc3
 6465 2b22 04       	 .byte 0x4
 6466 2b23 03       	 .uleb128 0x3
 6467 2b24 86340000 	 .4byte .LASF666
 6468 2b28 06       	 .byte 0x6
 6469 2b29 3E01     	 .2byte 0x13e
 6470 2b2b 15       	 .byte 0x15
 6471 2b2c 322B0000 	 .4byte 0x2b32
 6472 2b30 08       	 .byte 0x8
 6473 2b31 00       	 .byte 0
 6474 2b32 0A       	 .uleb128 0xa
 6475 2b33 8C2A0000 	 .4byte 0x2a8c
 6476 2b37 422B0000 	 .4byte 0x2b42
 6477 2b3b 0D       	 .uleb128 0xd
 6478 2b3c 2D000000 	 .4byte 0x2d
 6479 2b40 01       	 .byte 0x1
 6480 2b41 00       	 .byte 0
 6481 2b42 11       	 .uleb128 0x11
 6482 2b43 30       	 .byte 0x30
 6483 2b44 06       	 .byte 0x6
 6484 2b45 5D01     	 .2byte 0x15d
 6485 2b47 09       	 .byte 0x9
 6486 2b48 692B0000 	 .4byte 0x2b69
ARM GAS   			page 119


 6487 2b4c 03       	 .uleb128 0x3
 6488 2b4d 89190000 	 .4byte .LASF667
 6489 2b51 06       	 .byte 0x6
 6490 2b52 6B01     	 .2byte 0x16b
 6491 2b54 18       	 .byte 0x18
 6492 2b55 1F280000 	 .4byte 0x281f
 6493 2b59 00       	 .byte 0
 6494 2b5a 03       	 .uleb128 0x3
 6495 2b5b 0A130000 	 .4byte .LASF668
 6496 2b5f 06       	 .byte 0x6
 6497 2b60 7101     	 .2byte 0x171
 6498 2b62 1A       	 .byte 0x1a
 6499 2b63 692B0000 	 .4byte 0x2b69
 6500 2b67 28       	 .byte 0x28
 6501 2b68 00       	 .byte 0
 6502 2b69 05       	 .uleb128 0x5
 6503 2b6a BD280000 	 .4byte 0x28bd
 6504 2b6e 08       	 .uleb128 0x8
 6505 2b6f AB360000 	 .4byte .LASF669
 6506 2b73 06       	 .byte 0x6
 6507 2b74 7201     	 .2byte 0x172
 6508 2b76 03       	 .byte 0x3
 6509 2b77 422B0000 	 .4byte 0x2b42
 6510 2b7b 2F       	 .uleb128 0x2f
 6511 2b7c 30       	 .byte 0x30
 6512 2b7d 06       	 .byte 0x6
 6513 2b7e 8501     	 .2byte 0x185
 6514 2b80 03       	 .byte 0x3
 6515 2b81 A02B0000 	 .4byte 0x2ba0
 6516 2b85 23       	 .uleb128 0x23
 6517 2b86 6B230000 	 .4byte .LASF670
 6518 2b8a 06       	 .byte 0x6
 6519 2b8b 8D01     	 .2byte 0x18d
 6520 2b8d 13       	 .byte 0x13
 6521 2b8e 970A0000 	 .4byte 0xa97
 6522 2b92 23       	 .uleb128 0x23
 6523 2b93 5F2D0000 	 .4byte .LASF643
 6524 2b97 06       	 .byte 0x6
 6525 2b98 9301     	 .2byte 0x193
 6526 2b9a 21       	 .byte 0x21
 6527 2b9b 6E2B0000 	 .4byte 0x2b6e
 6528 2b9f 00       	 .byte 0
 6529 2ba0 08       	 .uleb128 0x8
 6530 2ba1 D11B0000 	 .4byte .LASF671
 6531 2ba5 06       	 .byte 0x6
 6532 2ba6 A901     	 .2byte 0x1a9
 6533 2ba8 03       	 .byte 0x3
 6534 2ba9 93010000 	 .4byte 0x193
 6535 2bad 0B       	 .uleb128 0xb
 6536 2bae A02B0000 	 .4byte 0x2ba0
 6537 2bb2 05       	 .uleb128 0x5
 6538 2bb3 A02B0000 	 .4byte 0x2ba0
 6539 2bb7 08       	 .uleb128 0x8
 6540 2bb8 7B3A0000 	 .4byte .LASF672
 6541 2bbc 06       	 .byte 0x6
 6542 2bbd D901     	 .2byte 0x1d9
 6543 2bbf 11       	 .byte 0x11
ARM GAS   			page 120


 6544 2bc0 C42B0000 	 .4byte 0x2bc4
 6545 2bc4 05       	 .uleb128 0x5
 6546 2bc5 C92B0000 	 .4byte 0x2bc9
 6547 2bc9 0E       	 .uleb128 0xe
 6548 2bca D92B0000 	 .4byte 0x2bd9
 6549 2bce 01       	 .uleb128 0x1
 6550 2bcf 872A0000 	 .4byte 0x2a87
 6551 2bd3 01       	 .uleb128 0x1
 6552 2bd4 D92B0000 	 .4byte 0x2bd9
 6553 2bd8 00       	 .byte 0
 6554 2bd9 05       	 .uleb128 0x5
 6555 2bda A5280000 	 .4byte 0x28a5
 6556 2bde 08       	 .uleb128 0x8
 6557 2bdf BB430000 	 .4byte .LASF673
 6558 2be3 06       	 .byte 0x6
 6559 2be4 E801     	 .2byte 0x1e8
 6560 2be6 11       	 .byte 0x11
 6561 2be7 EB2B0000 	 .4byte 0x2beb
 6562 2beb 05       	 .uleb128 0x5
 6563 2bec F02B0000 	 .4byte 0x2bf0
 6564 2bf0 0E       	 .uleb128 0xe
 6565 2bf1 052C0000 	 .4byte 0x2c05
 6566 2bf5 01       	 .uleb128 0x1
 6567 2bf6 872A0000 	 .4byte 0x2a87
 6568 2bfa 01       	 .uleb128 0x1
 6569 2bfb 8C2A0000 	 .4byte 0x2a8c
 6570 2bff 01       	 .uleb128 0x1
 6571 2c00 962A0000 	 .4byte 0x2a96
 6572 2c04 00       	 .byte 0
 6573 2c05 08       	 .uleb128 0x8
 6574 2c06 01300000 	 .4byte .LASF674
 6575 2c0a 06       	 .byte 0x6
 6576 2c0b F401     	 .2byte 0x1f4
 6577 2c0d 11       	 .byte 0x11
 6578 2c0e EB2B0000 	 .4byte 0x2beb
 6579 2c12 08       	 .uleb128 0x8
 6580 2c13 C6170000 	 .4byte .LASF675
 6581 2c17 06       	 .byte 0x6
 6582 2c18 0502     	 .2byte 0x205
 6583 2c1a 1C       	 .byte 0x1c
 6584 2c1b 1F2C0000 	 .4byte 0x2c1f
 6585 2c1f 05       	 .uleb128 0x5
 6586 2c20 242C0000 	 .4byte 0x2c24
 6587 2c24 0C       	 .uleb128 0xc
 6588 2c25 8C2A0000 	 .4byte 0x2a8c
 6589 2c29 422C0000 	 .4byte 0x2c42
 6590 2c2d 01       	 .uleb128 0x1
 6591 2c2e 872A0000 	 .4byte 0x2a87
 6592 2c32 01       	 .uleb128 0x1
 6593 2c33 B22B0000 	 .4byte 0x2bb2
 6594 2c37 01       	 .uleb128 0x1
 6595 2c38 8C2A0000 	 .4byte 0x2a8c
 6596 2c3c 01       	 .uleb128 0x1
 6597 2c3d 962A0000 	 .4byte 0x2a96
 6598 2c41 00       	 .byte 0
 6599 2c42 08       	 .uleb128 0x8
 6600 2c43 D4370000 	 .4byte .LASF676
ARM GAS   			page 121


 6601 2c47 06       	 .byte 0x6
 6602 2c48 1602     	 .2byte 0x216
 6603 2c4a 1C       	 .byte 0x1c
 6604 2c4b 4F2C0000 	 .4byte 0x2c4f
 6605 2c4f 05       	 .uleb128 0x5
 6606 2c50 542C0000 	 .4byte 0x2c54
 6607 2c54 0C       	 .uleb128 0xc
 6608 2c55 8C2A0000 	 .4byte 0x2a8c
 6609 2c59 632C0000 	 .4byte 0x2c63
 6610 2c5d 01       	 .uleb128 0x1
 6611 2c5e 632C0000 	 .4byte 0x2c63
 6612 2c62 00       	 .byte 0
 6613 2c63 05       	 .uleb128 0x5
 6614 2c64 AD2B0000 	 .4byte 0x2bad
 6615 2c68 11       	 .uleb128 0x11
 6616 2c69 0C       	 .byte 0xc
 6617 2c6a 06       	 .byte 0x6
 6618 2c6b 6102     	 .2byte 0x261
 6619 2c6d 09       	 .byte 0x9
 6620 2c6e 812C0000 	 .4byte 0x2c81
 6621 2c72 03       	 .uleb128 0x3
 6622 2c73 89190000 	 .4byte .LASF667
 6623 2c77 06       	 .byte 0x6
 6624 2c78 8002     	 .2byte 0x280
 6625 2c7a 16       	 .byte 0x16
 6626 2c7b B1290000 	 .4byte 0x29b1
 6627 2c7f 00       	 .byte 0
 6628 2c80 00       	 .byte 0
 6629 2c81 08       	 .uleb128 0x8
 6630 2c82 33260000 	 .4byte .LASF677
 6631 2c86 06       	 .byte 0x6
 6632 2c87 8102     	 .2byte 0x281
 6633 2c89 03       	 .byte 0x3
 6634 2c8a 682C0000 	 .4byte 0x2c68
 6635 2c8e 04       	 .uleb128 0x4
 6636 2c8f 743E0000 	 .4byte .LASF678
 6637 2c93 07       	 .byte 0x7
 6638 2c94 6F       	 .byte 0x6f
 6639 2c95 17       	 .byte 0x17
 6640 2c96 8F040000 	 .4byte 0x48f
 6641 2c9a 09       	 .uleb128 0x9
 6642 2c9b 04       	 .byte 0x4
 6643 2c9c 07       	 .byte 0x7
 6644 2c9d 74       	 .byte 0x74
 6645 2c9e 09       	 .byte 0x9
 6646 2c9f B12C0000 	 .4byte 0x2cb1
 6647 2ca3 02       	 .uleb128 0x2
 6648 2ca4 052E0000 	 .4byte .LASF679
 6649 2ca8 07       	 .byte 0x7
 6650 2ca9 75       	 .byte 0x75
 6651 2caa 0C       	 .byte 0xc
 6652 2cab F8070000 	 .4byte 0x7f8
 6653 2caf 00       	 .byte 0
 6654 2cb0 00       	 .byte 0
 6655 2cb1 04       	 .uleb128 0x4
 6656 2cb2 CB400000 	 .4byte .LASF680
 6657 2cb6 07       	 .byte 0x7
ARM GAS   			page 122


 6658 2cb7 76       	 .byte 0x76
 6659 2cb8 03       	 .byte 0x3
 6660 2cb9 9A2C0000 	 .4byte 0x2c9a
 6661 2cbd 09       	 .uleb128 0x9
 6662 2cbe 08       	 .byte 0x8
 6663 2cbf 07       	 .byte 0x7
 6664 2cc0 7B       	 .byte 0x7b
 6665 2cc1 09       	 .byte 0x9
 6666 2cc2 E12C0000 	 .4byte 0x2ce1
 6667 2cc6 02       	 .uleb128 0x2
 6668 2cc7 052E0000 	 .4byte .LASF679
 6669 2ccb 07       	 .byte 0x7
 6670 2ccc 7C       	 .byte 0x7c
 6671 2ccd 0B       	 .byte 0xb
 6672 2cce EC2C0000 	 .4byte 0x2cec
 6673 2cd2 00       	 .byte 0
 6674 2cd3 02       	 .uleb128 0x2
 6675 2cd4 E7440000 	 .4byte .LASF156
 6676 2cd8 07       	 .byte 0x7
 6677 2cd9 7D       	 .byte 0x7d
 6678 2cda 1D       	 .byte 0x1d
 6679 2cdb 8E2C0000 	 .4byte 0x2c8e
 6680 2cdf 04       	 .byte 0x4
 6681 2ce0 00       	 .byte 0
 6682 2ce1 0E       	 .uleb128 0xe
 6683 2ce2 EC2C0000 	 .4byte 0x2cec
 6684 2ce6 01       	 .uleb128 0x1
 6685 2ce7 8E2C0000 	 .4byte 0x2c8e
 6686 2ceb 00       	 .byte 0
 6687 2cec 05       	 .uleb128 0x5
 6688 2ced E12C0000 	 .4byte 0x2ce1
 6689 2cf1 04       	 .uleb128 0x4
 6690 2cf2 273D0000 	 .4byte .LASF681
 6691 2cf6 07       	 .byte 0x7
 6692 2cf7 7E       	 .byte 0x7e
 6693 2cf8 03       	 .byte 0x3
 6694 2cf9 BD2C0000 	 .4byte 0x2cbd
 6695 2cfd 09       	 .uleb128 0x9
 6696 2cfe 08       	 .byte 0x8
 6697 2cff 07       	 .byte 0x7
 6698 2d00 84       	 .byte 0x84
 6699 2d01 09       	 .byte 0x9
 6700 2d02 212D0000 	 .4byte 0x2d21
 6701 2d06 02       	 .uleb128 0x2
 6702 2d07 052E0000 	 .4byte .LASF679
 6703 2d0b 07       	 .byte 0x7
 6704 2d0c 85       	 .byte 0x85
 6705 2d0d 0C       	 .byte 0xc
 6706 2d0e 302D0000 	 .4byte 0x2d30
 6707 2d12 00       	 .byte 0
 6708 2d13 02       	 .uleb128 0x2
 6709 2d14 E7440000 	 .4byte .LASF156
 6710 2d18 07       	 .byte 0x7
 6711 2d19 86       	 .byte 0x86
 6712 2d1a 09       	 .byte 0x9
 6713 2d1b DB000000 	 .4byte 0xdb
 6714 2d1f 04       	 .byte 0x4
ARM GAS   			page 123


 6715 2d20 00       	 .byte 0
 6716 2d21 0C       	 .uleb128 0xc
 6717 2d22 DB000000 	 .4byte 0xdb
 6718 2d26 302D0000 	 .4byte 0x2d30
 6719 2d2a 01       	 .uleb128 0x1
 6720 2d2b DB000000 	 .4byte 0xdb
 6721 2d2f 00       	 .byte 0
 6722 2d30 05       	 .uleb128 0x5
 6723 2d31 212D0000 	 .4byte 0x2d21
 6724 2d35 04       	 .uleb128 0x4
 6725 2d36 AD300000 	 .4byte .LASF682
 6726 2d3a 07       	 .byte 0x7
 6727 2d3b 87       	 .byte 0x87
 6728 2d3c 03       	 .byte 0x3
 6729 2d3d FD2C0000 	 .4byte 0x2cfd
 6730 2d41 20       	 .uleb128 0x20
 6731 2d42 08       	 .byte 0x8
 6732 2d43 07       	 .byte 0x7
 6733 2d44 9A       	 .byte 0x9a
 6734 2d45 03       	 .byte 0x3
 6735 2d46 6F2D0000 	 .4byte 0x2d6f
 6736 2d4a 15       	 .uleb128 0x15
 6737 2d4b 14450000 	 .4byte .LASF683
 6738 2d4f 07       	 .byte 0x7
 6739 2d50 9B       	 .byte 0x9b
 6740 2d51 17       	 .byte 0x17
 6741 2d52 B12C0000 	 .4byte 0x2cb1
 6742 2d56 15       	 .uleb128 0x15
 6743 2d57 7C480000 	 .4byte .LASF684
 6744 2d5b 07       	 .byte 0x7
 6745 2d5c 9C       	 .byte 0x9c
 6746 2d5d 1A       	 .byte 0x1a
 6747 2d5e F12C0000 	 .4byte 0x2cf1
 6748 2d62 15       	 .uleb128 0x15
 6749 2d63 B03B0000 	 .4byte .LASF685
 6750 2d67 07       	 .byte 0x7
 6751 2d68 9D       	 .byte 0x9d
 6752 2d69 1A       	 .byte 0x1a
 6753 2d6a 352D0000 	 .4byte 0x2d35
 6754 2d6e 00       	 .byte 0
 6755 2d6f 09       	 .uleb128 0x9
 6756 2d70 0C       	 .byte 0xc
 6757 2d71 07       	 .byte 0x7
 6758 2d72 8C       	 .byte 0x8c
 6759 2d73 09       	 .byte 0x9
 6760 2d74 932D0000 	 .4byte 0x2d93
 6761 2d78 02       	 .uleb128 0x2
 6762 2d79 5A440000 	 .4byte .LASF686
 6763 2d7d 07       	 .byte 0x7
 6764 2d7e 94       	 .byte 0x94
 6765 2d7f 0B       	 .byte 0xb
 6766 2d80 A72A0000 	 .4byte 0x2aa7
 6767 2d84 00       	 .byte 0
 6768 2d85 02       	 .uleb128 0x2
 6769 2d86 E0130000 	 .4byte .LASF687
 6770 2d8a 07       	 .byte 0x7
 6771 2d8b 9E       	 .byte 0x9e
ARM GAS   			page 124


 6772 2d8c 05       	 .byte 0x5
 6773 2d8d 412D0000 	 .4byte 0x2d41
 6774 2d91 04       	 .byte 0x4
 6775 2d92 00       	 .byte 0
 6776 2d93 04       	 .uleb128 0x4
 6777 2d94 AD1A0000 	 .4byte .LASF688
 6778 2d98 07       	 .byte 0x7
 6779 2d99 9F       	 .byte 0x9f
 6780 2d9a 03       	 .byte 0x3
 6781 2d9b 6F2D0000 	 .4byte 0x2d6f
 6782 2d9f 09       	 .uleb128 0x9
 6783 2da0 0C       	 .byte 0xc
 6784 2da1 07       	 .byte 0x7
 6785 2da2 A5       	 .byte 0xa5
 6786 2da3 09       	 .byte 0x9
 6787 2da4 D02D0000 	 .4byte 0x2dd0
 6788 2da8 02       	 .uleb128 0x2
 6789 2da9 DA430000 	 .4byte .LASF689
 6790 2dad 07       	 .byte 0x7
 6791 2dae AA       	 .byte 0xaa
 6792 2daf 0B       	 .byte 0xb
 6793 2db0 A72A0000 	 .4byte 0x2aa7
 6794 2db4 00       	 .byte 0
 6795 2db5 02       	 .uleb128 0x2
 6796 2db6 301D0000 	 .4byte .LASF690
 6797 2dba 07       	 .byte 0x7
 6798 2dbb B0       	 .byte 0xb0
 6799 2dbc 0B       	 .byte 0xb
 6800 2dbd A72A0000 	 .4byte 0x2aa7
 6801 2dc1 04       	 .byte 0x4
 6802 2dc2 02       	 .uleb128 0x2
 6803 2dc3 263F0000 	 .4byte .LASF691
 6804 2dc7 07       	 .byte 0x7
 6805 2dc8 B6       	 .byte 0xb6
 6806 2dc9 0B       	 .byte 0xb
 6807 2dca A72A0000 	 .4byte 0x2aa7
 6808 2dce 08       	 .byte 0x8
 6809 2dcf 00       	 .byte 0
 6810 2dd0 04       	 .uleb128 0x4
 6811 2dd1 56240000 	 .4byte .LASF692
 6812 2dd5 07       	 .byte 0x7
 6813 2dd6 B7       	 .byte 0xb7
 6814 2dd7 03       	 .byte 0x3
 6815 2dd8 9F2D0000 	 .4byte 0x2d9f
 6816 2ddc 0B       	 .uleb128 0xb
 6817 2ddd D02D0000 	 .4byte 0x2dd0
 6818 2de1 09       	 .uleb128 0x9
 6819 2de2 08       	 .byte 0x8
 6820 2de3 07       	 .byte 0x7
 6821 2de4 BC       	 .byte 0xbc
 6822 2de5 09       	 .byte 0x9
 6823 2de6 052E0000 	 .4byte 0x2e05
 6824 2dea 02       	 .uleb128 0x2
 6825 2deb B3280000 	 .4byte .LASF693
 6826 2def 07       	 .byte 0x7
 6827 2df0 C2       	 .byte 0xc2
 6828 2df1 27       	 .byte 0x27
ARM GAS   			page 125


 6829 2df2 052E0000 	 .4byte 0x2e05
 6830 2df6 00       	 .byte 0
 6831 2df7 02       	 .uleb128 0x2
 6832 2df8 0B2C0000 	 .4byte .LASF694
 6833 2dfc 07       	 .byte 0x7
 6834 2dfd C9       	 .byte 0xc9
 6835 2dfe 0C       	 .byte 0xc
 6836 2dff 91030000 	 .4byte 0x391
 6837 2e03 04       	 .byte 0x4
 6838 2e04 00       	 .byte 0
 6839 2e05 05       	 .uleb128 0x5
 6840 2e06 DC2D0000 	 .4byte 0x2ddc
 6841 2e0a 04       	 .uleb128 0x4
 6842 2e0b EE3B0000 	 .4byte .LASF695
 6843 2e0f 07       	 .byte 0x7
 6844 2e10 CA       	 .byte 0xca
 6845 2e11 03       	 .byte 0x3
 6846 2e12 E12D0000 	 .4byte 0x2de1
 6847 2e16 09       	 .uleb128 0x9
 6848 2e17 30       	 .byte 0x30
 6849 2e18 07       	 .byte 0x7
 6850 2e19 D0       	 .byte 0xd0
 6851 2e1a 09       	 .byte 0x9
 6852 2e1b 882E0000 	 .4byte 0x2e88
 6853 2e1f 02       	 .uleb128 0x2
 6854 2e20 EB2B0000 	 .4byte .LASF696
 6855 2e24 07       	 .byte 0x7
 6856 2e25 D2       	 .byte 0xd2
 6857 2e26 28       	 .byte 0x28
 6858 2e27 932D0000 	 .4byte 0x2d93
 6859 2e2b 00       	 .byte 0
 6860 2e2c 02       	 .uleb128 0x2
 6861 2e2d 35310000 	 .4byte .LASF47
 6862 2e31 07       	 .byte 0x7
 6863 2e32 D7       	 .byte 0xd7
 6864 2e33 28       	 .byte 0x28
 6865 2e34 F5060000 	 .4byte 0x6f5
 6866 2e38 0C       	 .byte 0xc
 6867 2e39 02       	 .uleb128 0x2
 6868 2e3a 3A1B0000 	 .4byte .LASF697
 6869 2e3e 07       	 .byte 0x7
 6870 2e3f DD       	 .byte 0xdd
 6871 2e40 27       	 .byte 0x27
 6872 2e41 052E0000 	 .4byte 0x2e05
 6873 2e45 10       	 .byte 0x10
 6874 2e46 02       	 .uleb128 0x2
 6875 2e47 8F390000 	 .4byte .LASF247
 6876 2e4b 07       	 .byte 0x7
 6877 2e4c E0       	 .byte 0xe0
 6878 2e4d 28       	 .byte 0x28
 6879 2e4e 91030000 	 .4byte 0x391
 6880 2e52 14       	 .byte 0x14
 6881 2e53 02       	 .uleb128 0x2
 6882 2e54 470C0000 	 .4byte .LASF152
 6883 2e58 07       	 .byte 0x7
 6884 2e59 E2       	 .byte 0xe2
 6885 2e5a 28       	 .byte 0x28
ARM GAS   			page 126


 6886 2e5b 91270000 	 .4byte 0x2791
 6887 2e5f 18       	 .byte 0x18
 6888 2e60 02       	 .uleb128 0x2
 6889 2e61 81400000 	 .4byte .LASF698
 6890 2e65 07       	 .byte 0x7
 6891 2e66 E6       	 .byte 0xe6
 6892 2e67 28       	 .byte 0x28
 6893 2e68 9E060000 	 .4byte 0x69e
 6894 2e6c 20       	 .byte 0x20
 6895 2e6d 02       	 .uleb128 0x2
 6896 2e6e B8160000 	 .4byte .LASF699
 6897 2e72 07       	 .byte 0x7
 6898 2e73 E8       	 .byte 0xe8
 6899 2e74 28       	 .byte 0x28
 6900 2e75 92060000 	 .4byte 0x692
 6901 2e79 24       	 .byte 0x24
 6902 2e7a 02       	 .uleb128 0x2
 6903 2e7b 70230000 	 .4byte .LASF700
 6904 2e7f 07       	 .byte 0x7
 6905 2e80 EE       	 .byte 0xee
 6906 2e81 28       	 .byte 0x28
 6907 2e82 DB000000 	 .4byte 0xdb
 6908 2e86 2C       	 .byte 0x2c
 6909 2e87 00       	 .byte 0
 6910 2e88 04       	 .uleb128 0x4
 6911 2e89 54450000 	 .4byte .LASF701
 6912 2e8d 07       	 .byte 0x7
 6913 2e8e EF       	 .byte 0xef
 6914 2e8f 03       	 .byte 0x3
 6915 2e90 162E0000 	 .4byte 0x2e16
 6916 2e94 11       	 .uleb128 0x11
 6917 2e95 04       	 .byte 0x4
 6918 2e96 07       	 .byte 0x7
 6919 2e97 1201     	 .2byte 0x112
 6920 2e99 09       	 .byte 0x9
 6921 2e9a AD2E0000 	 .4byte 0x2ead
 6922 2e9e 03       	 .uleb128 0x3
 6923 2e9f D50D0000 	 .4byte .LASF702
 6924 2ea3 07       	 .byte 0x7
 6925 2ea4 8C01     	 .2byte 0x18c
 6926 2ea6 13       	 .byte 0x13
 6927 2ea7 AD2E0000 	 .4byte 0x2ead
 6928 2eab 00       	 .byte 0
 6929 2eac 00       	 .byte 0
 6930 2ead 05       	 .uleb128 0x5
 6931 2eae B1280000 	 .4byte 0x28b1
 6932 2eb2 08       	 .uleb128 0x8
 6933 2eb3 0A220000 	 .4byte .LASF703
 6934 2eb7 07       	 .byte 0x7
 6935 2eb8 8D01     	 .2byte 0x18d
 6936 2eba 03       	 .byte 0x3
 6937 2ebb 942E0000 	 .4byte 0x2e94
 6938 2ebf 2F       	 .uleb128 0x2f
 6939 2ec0 04       	 .byte 0x4
 6940 2ec1 07       	 .byte 0x7
 6941 2ec2 9901     	 .2byte 0x199
 6942 2ec4 09       	 .byte 0x9
ARM GAS   			page 127


 6943 2ec5 E42E0000 	 .4byte 0x2ee4
 6944 2ec9 23       	 .uleb128 0x23
 6945 2eca 6C170000 	 .4byte .LASF704
 6946 2ece 07       	 .byte 0x7
 6947 2ecf 9A01     	 .2byte 0x19a
 6948 2ed1 0F       	 .byte 0xf
 6949 2ed2 DB000000 	 .4byte 0xdb
 6950 2ed6 23       	 .uleb128 0x23
 6951 2ed7 36390000 	 .4byte .LASF705
 6952 2edb 07       	 .byte 0x7
 6953 2edc 9B01     	 .2byte 0x19b
 6954 2ede 0F       	 .byte 0xf
 6955 2edf 73030000 	 .4byte 0x373
 6956 2ee3 00       	 .byte 0
 6957 2ee4 08       	 .uleb128 0x8
 6958 2ee5 6D160000 	 .4byte .LASF706
 6959 2ee9 07       	 .byte 0x7
 6960 2eea 9C01     	 .2byte 0x19c
 6961 2eec 03       	 .byte 0x3
 6962 2eed BF2E0000 	 .4byte 0x2ebf
 6963 2ef1 08       	 .uleb128 0x8
 6964 2ef2 891E0000 	 .4byte .LASF707
 6965 2ef6 07       	 .byte 0x7
 6966 2ef7 AC01     	 .2byte 0x1ac
 6967 2ef9 16       	 .byte 0x16
 6968 2efa 2D000000 	 .4byte 0x2d
 6969 2efe 11       	 .uleb128 0x11
 6970 2eff 24       	 .byte 0x24
 6971 2f00 07       	 .byte 0x7
 6972 2f01 B401     	 .2byte 0x1b4
 6973 2f03 09       	 .byte 0x9
 6974 2f04 872F0000 	 .4byte 0x2f87
 6975 2f08 03       	 .uleb128 0x3
 6976 2f09 D2250000 	 .4byte .LASF708
 6977 2f0d 07       	 .byte 0x7
 6978 2f0e BD01     	 .2byte 0x1bd
 6979 2f10 19       	 .byte 0x19
 6980 2f11 91030000 	 .4byte 0x391
 6981 2f15 00       	 .byte 0
 6982 2f16 03       	 .uleb128 0x3
 6983 2f17 6B3A0000 	 .4byte .LASF709
 6984 2f1b 07       	 .byte 0x7
 6985 2f1c BF01     	 .2byte 0x1bf
 6986 2f1e 19       	 .byte 0x19
 6987 2f1f DB000000 	 .4byte 0xdb
 6988 2f23 04       	 .byte 0x4
 6989 2f24 03       	 .uleb128 0x3
 6990 2f25 4C460000 	 .4byte .LASF710
 6991 2f29 07       	 .byte 0x7
 6992 2f2a C201     	 .2byte 0x1c2
 6993 2f2c 19       	 .byte 0x19
 6994 2f2d E42E0000 	 .4byte 0x2ee4
 6995 2f31 08       	 .byte 0x8
 6996 2f32 03       	 .uleb128 0x3
 6997 2f33 30440000 	 .4byte .LASF711
 6998 2f37 07       	 .byte 0x7
 6999 2f38 C401     	 .2byte 0x1c4
ARM GAS   			page 128


 7000 2f3a 19       	 .byte 0x19
 7001 2f3b 91030000 	 .4byte 0x391
 7002 2f3f 0C       	 .byte 0xc
 7003 2f40 03       	 .uleb128 0x3
 7004 2f41 B03C0000 	 .4byte .LASF712
 7005 2f45 07       	 .byte 0x7
 7006 2f46 CA01     	 .2byte 0x1ca
 7007 2f48 19       	 .byte 0x19
 7008 2f49 91030000 	 .4byte 0x391
 7009 2f4d 10       	 .byte 0x10
 7010 2f4e 03       	 .uleb128 0x3
 7011 2f4f 594A0000 	 .4byte .LASF287
 7012 2f53 07       	 .byte 0x7
 7013 2f54 D301     	 .2byte 0x1d3
 7014 2f56 19       	 .byte 0x19
 7015 2f57 F12E0000 	 .4byte 0x2ef1
 7016 2f5b 14       	 .byte 0x14
 7017 2f5c 03       	 .uleb128 0x3
 7018 2f5d D93B0000 	 .4byte .LASF713
 7019 2f61 07       	 .byte 0x7
 7020 2f62 0F02     	 .2byte 0x20f
 7021 2f64 17       	 .byte 0x17
 7022 2f65 872A0000 	 .4byte 0x2a87
 7023 2f69 18       	 .byte 0x18
 7024 2f6a 03       	 .uleb128 0x3
 7025 2f6b B3280000 	 .4byte .LASF693
 7026 2f6f 07       	 .byte 0x7
 7027 2f70 1802     	 .2byte 0x218
 7028 2f72 22       	 .byte 0x22
 7029 2f73 872F0000 	 .4byte 0x2f87
 7030 2f77 1C       	 .byte 0x1c
 7031 2f78 03       	 .uleb128 0x3
 7032 2f79 B11B0000 	 .4byte .LASF714
 7033 2f7d 07       	 .byte 0x7
 7034 2f7e 1A02     	 .2byte 0x21a
 7035 2f80 17       	 .byte 0x17
 7036 2f81 B22B0000 	 .4byte 0x2bb2
 7037 2f85 20       	 .byte 0x20
 7038 2f86 00       	 .byte 0
 7039 2f87 05       	 .uleb128 0x5
 7040 2f88 022A0000 	 .4byte 0x2a02
 7041 2f8c 08       	 .uleb128 0x8
 7042 2f8d 78110000 	 .4byte .LASF715
 7043 2f91 07       	 .byte 0x7
 7044 2f92 1B02     	 .2byte 0x21b
 7045 2f94 05       	 .byte 0x5
 7046 2f95 FE2E0000 	 .4byte 0x2efe
 7047 2f99 11       	 .uleb128 0x11
 7048 2f9a 28       	 .byte 0x28
 7049 2f9b 07       	 .byte 0x7
 7050 2f9c 2002     	 .2byte 0x220
 7051 2f9e 09       	 .byte 0x9
 7052 2f9f C02F0000 	 .4byte 0x2fc0
 7053 2fa3 03       	 .uleb128 0x3
 7054 2fa4 2A410000 	 .4byte .LASF716
 7055 2fa8 07       	 .byte 0x7
 7056 2fa9 2402     	 .2byte 0x224
ARM GAS   			page 129


 7057 2fab 14       	 .byte 0x14
 7058 2fac C02F0000 	 .4byte 0x2fc0
 7059 2fb0 00       	 .byte 0
 7060 2fb1 03       	 .uleb128 0x3
 7061 2fb2 BD0C0000 	 .4byte .LASF571
 7062 2fb6 07       	 .byte 0x7
 7063 2fb7 2502     	 .2byte 0x225
 7064 2fb9 14       	 .byte 0x14
 7065 2fba 12220000 	 .4byte 0x2212
 7066 2fbe 08       	 .byte 0x8
 7067 2fbf 00       	 .byte 0
 7068 2fc0 05       	 .uleb128 0x5
 7069 2fc1 9D220000 	 .4byte 0x229d
 7070 2fc5 08       	 .uleb128 0x8
 7071 2fc6 B3290000 	 .4byte .LASF717
 7072 2fca 07       	 .byte 0x7
 7073 2fcb 2602     	 .2byte 0x226
 7074 2fcd 03       	 .byte 0x3
 7075 2fce 992F0000 	 .4byte 0x2f99
 7076 2fd2 29       	 .uleb128 0x29
 7077 2fd3 2D000000 	 .4byte 0x2d
 7078 2fd7 07       	 .byte 0x7
 7079 2fd8 7502     	 .2byte 0x275
 7080 2fda EB2F0000 	 .4byte 0x2feb
 7081 2fde 07       	 .uleb128 0x7
 7082 2fdf B8000000 	 .4byte .LASF718
 7083 2fe3 00       	 .byte 0
 7084 2fe4 07       	 .uleb128 0x7
 7085 2fe5 9C110000 	 .4byte .LASF719
 7086 2fe9 01       	 .byte 0x1
 7087 2fea 00       	 .byte 0
 7088 2feb 08       	 .uleb128 0x8
 7089 2fec E6130000 	 .4byte .LASF720
 7090 2ff0 07       	 .byte 0x7
 7091 2ff1 8202     	 .2byte 0x282
 7092 2ff3 1E       	 .byte 0x1e
 7093 2ff4 F82F0000 	 .4byte 0x2ff8
 7094 2ff8 18       	 .uleb128 0x18
 7095 2ff9 E6130000 	 .4byte .LASF720
 7096 2ffd 0C       	 .byte 0xc
 7097 2ffe 07       	 .byte 0x7
 7098 2fff AB02     	 .2byte 0x2ab
 7099 3001 08       	 .byte 0x8
 7100 3002 23300000 	 .4byte 0x3023
 7101 3006 03       	 .uleb128 0x3
 7102 3007 40120000 	 .4byte .LASF202
 7103 300b 07       	 .byte 0x7
 7104 300c AC02     	 .2byte 0x2ac
 7105 300e 19       	 .byte 0x19
 7106 300f 1C0A0000 	 .4byte 0xa1c
 7107 3013 00       	 .byte 0
 7108 3014 03       	 .uleb128 0x3
 7109 3015 47390000 	 .4byte .LASF590
 7110 3019 07       	 .byte 0x7
 7111 301a AD02     	 .2byte 0x2ad
 7112 301c 19       	 .byte 0x19
 7113 301d 23300000 	 .4byte 0x3023
ARM GAS   			page 130


 7114 3021 08       	 .byte 0x8
 7115 3022 00       	 .byte 0
 7116 3023 08       	 .uleb128 0x8
 7117 3024 A9210000 	 .4byte .LASF721
 7118 3028 07       	 .byte 0x7
 7119 3029 9702     	 .2byte 0x297
 7120 302b 11       	 .byte 0x11
 7121 302c 30300000 	 .4byte 0x3030
 7122 3030 05       	 .uleb128 0x5
 7123 3031 35300000 	 .4byte 0x3035
 7124 3035 0E       	 .uleb128 0xe
 7125 3036 4A300000 	 .4byte 0x304a
 7126 303a 01       	 .uleb128 0x1
 7127 303b 8C2A0000 	 .4byte 0x2a8c
 7128 303f 01       	 .uleb128 0x1
 7129 3040 4A300000 	 .4byte 0x304a
 7130 3044 01       	 .uleb128 0x1
 7131 3045 4F300000 	 .4byte 0x304f
 7132 3049 00       	 .byte 0
 7133 304a 05       	 .uleb128 0x5
 7134 304b EB2F0000 	 .4byte 0x2feb
 7135 304f 05       	 .uleb128 0x5
 7136 3050 380D0000 	 .4byte 0xd38
 7137 3054 11       	 .uleb128 0x11
 7138 3055 04       	 .byte 0x4
 7139 3056 07       	 .byte 0x7
 7140 3057 B302     	 .2byte 0x2b3
 7141 3059 09       	 .byte 0x9
 7142 305a 6D300000 	 .4byte 0x306d
 7143 305e 03       	 .uleb128 0x3
 7144 305f 0E000000 	 .4byte .LASF722
 7145 3063 07       	 .byte 0x7
 7146 3064 B702     	 .2byte 0x2b7
 7147 3066 12       	 .byte 0x12
 7148 3067 06220000 	 .4byte 0x2206
 7149 306b 00       	 .byte 0
 7150 306c 00       	 .byte 0
 7151 306d 08       	 .uleb128 0x8
 7152 306e 2E220000 	 .4byte .LASF723
 7153 3072 07       	 .byte 0x7
 7154 3073 BF02     	 .2byte 0x2bf
 7155 3075 03       	 .byte 0x3
 7156 3076 54300000 	 .4byte 0x3054
 7157 307a 11       	 .uleb128 0x11
 7158 307b 0C       	 .byte 0xc
 7159 307c 07       	 .byte 0x7
 7160 307d C602     	 .2byte 0x2c6
 7161 307f 09       	 .byte 0x9
 7162 3080 93300000 	 .4byte 0x3093
 7163 3084 03       	 .uleb128 0x3
 7164 3085 95080000 	 .4byte .LASF553
 7165 3089 07       	 .byte 0x7
 7166 308a C702     	 .2byte 0x2c7
 7167 308c 11       	 .byte 0x11
 7168 308d 970A0000 	 .4byte 0xa97
 7169 3091 00       	 .byte 0
 7170 3092 00       	 .byte 0
ARM GAS   			page 131


 7171 3093 08       	 .uleb128 0x8
 7172 3094 4C1E0000 	 .4byte .LASF724
 7173 3098 07       	 .byte 0x7
 7174 3099 C802     	 .2byte 0x2c8
 7175 309b 03       	 .byte 0x3
 7176 309c 7A300000 	 .4byte 0x307a
 7177 30a0 08       	 .uleb128 0x8
 7178 30a1 93170000 	 .4byte .LASF725
 7179 30a5 07       	 .byte 0x7
 7180 30a6 D402     	 .2byte 0x2d4
 7181 30a8 16       	 .byte 0x16
 7182 30a9 2D000000 	 .4byte 0x2d
 7183 30ad 11       	 .uleb128 0x11
 7184 30ae 18       	 .byte 0x18
 7185 30af 07       	 .byte 0x7
 7186 30b0 0403     	 .2byte 0x304
 7187 30b2 09       	 .byte 0x9
 7188 30b3 F0300000 	 .4byte 0x30f0
 7189 30b7 03       	 .uleb128 0x3
 7190 30b8 20470000 	 .4byte .LASF637
 7191 30bc 07       	 .byte 0x7
 7192 30bd 0903     	 .2byte 0x309
 7193 30bf 16       	 .byte 0x16
 7194 30c0 EB2F0000 	 .4byte 0x2feb
 7195 30c4 00       	 .byte 0
 7196 30c5 03       	 .uleb128 0x3
 7197 30c6 F2260000 	 .4byte .LASF726
 7198 30ca 07       	 .byte 0x7
 7199 30cb 0E03     	 .2byte 0x30e
 7200 30cd 16       	 .byte 0x16
 7201 30ce A0300000 	 .4byte 0x30a0
 7202 30d2 0C       	 .byte 0xc
 7203 30d3 03       	 .uleb128 0x3
 7204 30d4 382F0000 	 .4byte .LASF727
 7205 30d8 07       	 .byte 0x7
 7206 30d9 1303     	 .2byte 0x313
 7207 30db 0C       	 .byte 0xc
 7208 30dc 91030000 	 .4byte 0x391
 7209 30e0 10       	 .byte 0x10
 7210 30e1 03       	 .uleb128 0x3
 7211 30e2 5A1A0000 	 .4byte .LASF728
 7212 30e6 07       	 .byte 0x7
 7213 30e7 1D03     	 .2byte 0x31d
 7214 30e9 09       	 .byte 0x9
 7215 30ea DB000000 	 .4byte 0xdb
 7216 30ee 14       	 .byte 0x14
 7217 30ef 00       	 .byte 0
 7218 30f0 08       	 .uleb128 0x8
 7219 30f1 2E3E0000 	 .4byte .LASF729
 7220 30f5 07       	 .byte 0x7
 7221 30f6 1E03     	 .2byte 0x31e
 7222 30f8 03       	 .byte 0x3
 7223 30f9 AD300000 	 .4byte 0x30ad
 7224 30fd 11       	 .uleb128 0x11
 7225 30fe 08       	 .byte 0x8
 7226 30ff 07       	 .byte 0x7
 7227 3100 2003     	 .2byte 0x320
ARM GAS   			page 132


 7228 3102 09       	 .byte 0x9
 7229 3103 24310000 	 .4byte 0x3124
 7230 3107 03       	 .uleb128 0x3
 7231 3108 594A0000 	 .4byte .LASF287
 7232 310c 07       	 .byte 0x7
 7233 310d 2103     	 .2byte 0x321
 7234 310f 11       	 .byte 0x11
 7235 3110 91030000 	 .4byte 0x391
 7236 3114 00       	 .byte 0
 7237 3115 03       	 .uleb128 0x3
 7238 3116 7C330000 	 .4byte .LASF730
 7239 311a 07       	 .byte 0x7
 7240 311b 2203     	 .2byte 0x322
 7241 311d 11       	 .byte 0x11
 7242 311e DB000000 	 .4byte 0xdb
 7243 3122 04       	 .byte 0x4
 7244 3123 00       	 .byte 0
 7245 3124 08       	 .uleb128 0x8
 7246 3125 27010000 	 .4byte .LASF731
 7247 3129 07       	 .byte 0x7
 7248 312a 2303     	 .2byte 0x323
 7249 312c 02       	 .byte 0x2
 7250 312d FD300000 	 .4byte 0x30fd
 7251 3131 0A       	 .uleb128 0xa
 7252 3132 DB000000 	 .4byte 0xdb
 7253 3136 41310000 	 .4byte 0x3141
 7254 313a 0D       	 .uleb128 0xd
 7255 313b 2D000000 	 .4byte 0x2d
 7256 313f 01       	 .byte 0x1
 7257 3140 00       	 .byte 0
 7258 3141 13       	 .uleb128 0x13
 7259 3142 D70F0000 	 .4byte .LASF732
 7260 3146 48       	 .byte 0x48
 7261 3147 43       	 .byte 0x43
 7262 3148 50       	 .byte 0x50
 7263 3149 08       	 .byte 0x8
 7264 314a DE310000 	 .4byte 0x31de
 7265 314e 02       	 .uleb128 0x2
 7266 314f B13D0000 	 .4byte .LASF733
 7267 3153 43       	 .byte 0x43
 7268 3154 54       	 .byte 0x54
 7269 3155 27       	 .byte 0x27
 7270 3156 21150000 	 .4byte 0x1521
 7271 315a 00       	 .byte 0
 7272 315b 02       	 .uleb128 0x2
 7273 315c 1E000000 	 .4byte .LASF734
 7274 3160 43       	 .byte 0x43
 7275 3161 59       	 .byte 0x59
 7276 3162 27       	 .byte 0x27
 7277 3163 21150000 	 .4byte 0x1521
 7278 3167 04       	 .byte 0x4
 7279 3168 02       	 .uleb128 0x2
 7280 3169 B3390000 	 .4byte .LASF735
 7281 316d 43       	 .byte 0x43
 7282 316e 5E       	 .byte 0x5e
 7283 316f 0A       	 .byte 0xa
 7284 3170 A90C0000 	 .4byte 0xca9
ARM GAS   			page 133


 7285 3174 08       	 .byte 0x8
 7286 3175 22       	 .uleb128 0x22
 7287 3176 75696400 	 .ascii "uid\000"
 7288 317a 43       	 .byte 0x43
 7289 317b 63       	 .byte 0x63
 7290 317c 09       	 .byte 0x9
 7291 317d 850C0000 	 .4byte 0xc85
 7292 3181 0C       	 .byte 0xc
 7293 3182 22       	 .uleb128 0x22
 7294 3183 67696400 	 .ascii "gid\000"
 7295 3187 43       	 .byte 0x43
 7296 3188 68       	 .byte 0x68
 7297 3189 09       	 .byte 0x9
 7298 318a 910C0000 	 .4byte 0xc91
 7299 318e 0E       	 .byte 0xe
 7300 318f 02       	 .uleb128 0x2
 7301 3190 2C020000 	 .4byte .LASF736
 7302 3194 43       	 .byte 0x43
 7303 3195 6D       	 .byte 0x6d
 7304 3196 09       	 .byte 0x9
 7305 3197 850C0000 	 .4byte 0xc85
 7306 319b 10       	 .byte 0x10
 7307 319c 02       	 .uleb128 0x2
 7308 319d 732E0000 	 .4byte .LASF737
 7309 31a1 43       	 .byte 0x43
 7310 31a2 72       	 .byte 0x72
 7311 31a3 09       	 .byte 0x9
 7312 31a4 910C0000 	 .4byte 0xc91
 7313 31a8 12       	 .byte 0x12
 7314 31a9 02       	 .uleb128 0x2
 7315 31aa 7B030000 	 .4byte .LASF738
 7316 31ae 43       	 .byte 0x43
 7317 31af 77       	 .byte 0x77
 7318 31b0 08       	 .byte 0x8
 7319 31b1 423D0000 	 .4byte 0x3d42
 7320 31b5 14       	 .byte 0x14
 7321 31b6 02       	 .uleb128 0x2
 7322 31b7 66080000 	 .4byte .LASF739
 7323 31bb 43       	 .byte 0x43
 7324 31bc 7C       	 .byte 0x7c
 7325 31bd 09       	 .byte 0x9
 7326 31be 9D0C0000 	 .4byte 0xc9d
 7327 31c2 20       	 .byte 0x20
 7328 31c3 02       	 .uleb128 0x2
 7329 31c4 B5200000 	 .4byte .LASF740
 7330 31c8 43       	 .byte 0x43
 7331 31c9 81       	 .byte 0x81
 7332 31ca 0A       	 .byte 0xa
 7333 31cb C3000000 	 .4byte 0xc3
 7334 31cf 24       	 .byte 0x24
 7335 31d0 02       	 .uleb128 0x2
 7336 31d1 76070000 	 .4byte .LASF741
 7337 31d5 43       	 .byte 0x43
 7338 31d6 86       	 .byte 0x86
 7339 31d7 09       	 .byte 0x9
 7340 31d8 771D0000 	 .4byte 0x1d77
 7341 31dc 28       	 .byte 0x28
ARM GAS   			page 134


 7342 31dd 00       	 .byte 0
 7343 31de 05       	 .uleb128 0x5
 7344 31df 41310000 	 .4byte 0x3141
 7345 31e3 13       	 .uleb128 0x13
 7346 31e4 5E2B0000 	 .4byte .LASF742
 7347 31e8 10       	 .byte 0x10
 7348 31e9 44       	 .byte 0x44
 7349 31ea 22       	 .byte 0x22
 7350 31eb 08       	 .byte 0x8
 7351 31ec 25320000 	 .4byte 0x3225
 7352 31f0 02       	 .uleb128 0x2
 7353 31f1 111C0000 	 .4byte .LASF743
 7354 31f5 44       	 .byte 0x44
 7355 31f6 23       	 .byte 0x23
 7356 31f7 0A       	 .byte 0xa
 7357 31f8 9E060000 	 .4byte 0x69e
 7358 31fc 00       	 .byte 0
 7359 31fd 02       	 .uleb128 0x2
 7360 31fe C1170000 	 .4byte .LASF744
 7361 3202 44       	 .byte 0x44
 7362 3203 24       	 .byte 0x24
 7363 3204 09       	 .byte 0x9
 7364 3205 DB000000 	 .4byte 0xdb
 7365 3209 04       	 .byte 0x4
 7366 320a 02       	 .uleb128 0x2
 7367 320b C73F0000 	 .4byte .LASF745
 7368 320f 44       	 .byte 0x44
 7369 3210 25       	 .byte 0x25
 7370 3211 07       	 .byte 0x7
 7371 3212 74000000 	 .4byte 0x74
 7372 3216 08       	 .byte 0x8
 7373 3217 02       	 .uleb128 0x2
 7374 3218 AA090000 	 .4byte .LASF746
 7375 321c 44       	 .byte 0x44
 7376 321d 26       	 .byte 0x26
 7377 321e 24       	 .byte 0x24
 7378 321f 25320000 	 .4byte 0x3225
 7379 3223 0C       	 .byte 0xc
 7380 3224 00       	 .byte 0
 7381 3225 05       	 .uleb128 0x5
 7382 3226 E3310000 	 .4byte 0x31e3
 7383 322a 13       	 .uleb128 0x13
 7384 322b 7D360000 	 .4byte .LASF747
 7385 322f 14       	 .byte 0x14
 7386 3230 45       	 .byte 0x45
 7387 3231 42       	 .byte 0x42
 7388 3232 10       	 .byte 0x10
 7389 3233 52320000 	 .4byte 0x3252
 7390 3237 02       	 .uleb128 0x2
 7391 3238 150F0000 	 .4byte .LASF748
 7392 323c 45       	 .byte 0x45
 7393 323d 43       	 .byte 0x43
 7394 323e 24       	 .byte 0x24
 7395 323f 400F0000 	 .4byte 0xf40
 7396 3243 00       	 .byte 0
 7397 3244 02       	 .uleb128 0x2
 7398 3245 AE0C0000 	 .4byte .LASF201
ARM GAS   			page 135


 7399 3249 45       	 .byte 0x45
 7400 324a 44       	 .byte 0x44
 7401 324b 24       	 .byte 0x24
 7402 324c 52320000 	 .4byte 0x3252
 7403 3250 10       	 .byte 0x10
 7404 3251 00       	 .byte 0
 7405 3252 05       	 .uleb128 0x5
 7406 3253 2A320000 	 .4byte 0x322a
 7407 3257 0A       	 .uleb128 0xa
 7408 3258 DB000000 	 .4byte 0xdb
 7409 325c 66320000 	 .4byte 0x3266
 7410 3260 2C       	 .uleb128 0x2c
 7411 3261 2D000000 	 .4byte 0x2d
 7412 3265 00       	 .byte 0
 7413 3266 11       	 .uleb128 0x11
 7414 3267 08       	 .byte 0x8
 7415 3268 07       	 .byte 0x7
 7416 3269 E103     	 .2byte 0x3e1
 7417 326b 09       	 .byte 0x9
 7418 326c 8D320000 	 .4byte 0x328d
 7419 3270 03       	 .uleb128 0x3
 7420 3271 97350000 	 .4byte .LASF749
 7421 3275 07       	 .byte 0x7
 7422 3276 E703     	 .2byte 0x3e7
 7423 3278 0A       	 .byte 0xa
 7424 3279 C3000000 	 .4byte 0xc3
 7425 327d 00       	 .byte 0
 7426 327e 03       	 .uleb128 0x3
 7427 327f 652E0000 	 .4byte .LASF750
 7428 3283 07       	 .byte 0x7
 7429 3284 ED03     	 .2byte 0x3ed
 7430 3286 0A       	 .byte 0xa
 7431 3287 C3000000 	 .4byte 0xc3
 7432 328b 04       	 .byte 0x4
 7433 328c 00       	 .byte 0
 7434 328d 08       	 .uleb128 0x8
 7435 328e DF190000 	 .4byte .LASF751
 7436 3292 07       	 .byte 0x7
 7437 3293 EE03     	 .2byte 0x3ee
 7438 3295 03       	 .byte 0x3
 7439 3296 66320000 	 .4byte 0x3266
 7440 329a 0B       	 .uleb128 0xb
 7441 329b 8D320000 	 .4byte 0x328d
 7442 329f 0A       	 .uleb128 0xa
 7443 32a0 9A320000 	 .4byte 0x329a
 7444 32a4 AA320000 	 .4byte 0x32aa
 7445 32a8 1C       	 .uleb128 0x1c
 7446 32a9 00       	 .byte 0
 7447 32aa 0B       	 .uleb128 0xb
 7448 32ab 9F320000 	 .4byte 0x329f
 7449 32af 16       	 .uleb128 0x16
 7450 32b0 04380000 	 .4byte .LASF752
 7451 32b4 07       	 .byte 0x7
 7452 32b5 FD03     	 .2byte 0x3fd
 7453 32b7 24       	 .byte 0x24
 7454 32b8 AA320000 	 .4byte 0x32aa
 7455 32bc 16       	 .uleb128 0x16
ARM GAS   			page 136


 7456 32bd D7030000 	 .4byte .LASF753
 7457 32c1 07       	 .byte 0x7
 7458 32c2 0604     	 .2byte 0x406
 7459 32c4 15       	 .byte 0x15
 7460 32c5 CF000000 	 .4byte 0xcf
 7461 32c9 16       	 .uleb128 0x16
 7462 32ca 7C210000 	 .4byte .LASF754
 7463 32ce 07       	 .byte 0x7
 7464 32cf 0D04     	 .2byte 0x40d
 7465 32d1 15       	 .byte 0x15
 7466 32d2 CF000000 	 .4byte 0xcf
 7467 32d6 16       	 .uleb128 0x16
 7468 32d7 FC490000 	 .4byte .LASF755
 7469 32db 07       	 .byte 0x7
 7470 32dc 1E04     	 .2byte 0x41e
 7471 32de 15       	 .byte 0x15
 7472 32df CF000000 	 .4byte 0xcf
 7473 32e3 16       	 .uleb128 0x16
 7474 32e4 F83C0000 	 .4byte .LASF756
 7475 32e8 07       	 .byte 0x7
 7476 32e9 2804     	 .2byte 0x428
 7477 32eb 15       	 .byte 0x15
 7478 32ec CF000000 	 .4byte 0xcf
 7479 32f0 08       	 .uleb128 0x8
 7480 32f1 89330000 	 .4byte .LASF757
 7481 32f5 07       	 .byte 0x7
 7482 32f6 3004     	 .2byte 0x430
 7483 32f8 2A       	 .byte 0x2a
 7484 32f9 FD320000 	 .4byte 0x32fd
 7485 32fd 40       	 .uleb128 0x40
 7486 32fe 89330000 	 .4byte .LASF757
 7487 3302 E002     	 .2byte 0x2e0
 7488 3304 46       	 .byte 0x46
 7489 3305 95       	 .byte 0x95
 7490 3306 08       	 .byte 0x8
 7491 3307 5A330000 	 .4byte 0x335a
 7492 330b 02       	 .uleb128 0x2
 7493 330c 20070000 	 .4byte .LASF758
 7494 3310 46       	 .byte 0x46
 7495 3311 9C       	 .byte 0x9c
 7496 3312 12       	 .byte 0x12
 7497 3313 2C290000 	 .4byte 0x292c
 7498 3317 00       	 .byte 0
 7499 3318 26       	 .uleb128 0x26
 7500 3319 73220000 	 .4byte .LASF62
 7501 331d A0       	 .byte 0xa0
 7502 331e 0B       	 .byte 0xb
 7503 331f 2D3B0000 	 .4byte 0x3b2d
 7504 3323 5001     	 .2byte 0x150
 7505 3325 26       	 .uleb128 0x26
 7506 3326 F1270000 	 .4byte .LASF759
 7507 332a A2       	 .byte 0xa2
 7508 332b 20       	 .byte 0x20
 7509 332c 3D3B0000 	 .4byte 0x3b3d
 7510 3330 D801     	 .2byte 0x1d8
 7511 3332 26       	 .uleb128 0x26
 7512 3333 942B0000 	 .4byte .LASF760
ARM GAS   			page 137


 7513 3337 A3       	 .byte 0xa3
 7514 3338 15       	 .byte 0x15
 7515 3339 1D3A0000 	 .4byte 0x3a1d
 7516 333d 2802     	 .2byte 0x228
 7517 333f 26       	 .uleb128 0x26
 7518 3340 DD400000 	 .4byte .LASF761
 7519 3344 A5       	 .byte 0xa5
 7520 3345 17       	 .byte 0x17
 7521 3346 D73A0000 	 .4byte 0x3ad7
 7522 334a 5002     	 .2byte 0x250
 7523 334c 26       	 .uleb128 0x26
 7524 334d 5B220000 	 .4byte .LASF150
 7525 3351 A8       	 .byte 0xa8
 7526 3352 0A       	 .byte 0xa
 7527 3353 671D0000 	 .4byte 0x1d67
 7528 3357 D002     	 .2byte 0x2d0
 7529 3359 00       	 .byte 0
 7530 335a 08       	 .uleb128 0x8
 7531 335b 8A2E0000 	 .4byte .LASF762
 7532 335f 07       	 .byte 0x7
 7533 3360 3B04     	 .2byte 0x43b
 7534 3362 1C       	 .byte 0x1c
 7535 3363 A02B0000 	 .4byte 0x2ba0
 7536 3367 2F       	 .uleb128 0x2f
 7537 3368 0C       	 .byte 0xc
 7538 3369 07       	 .byte 0x7
 7539 336a 5504     	 .2byte 0x455
 7540 336c 03       	 .byte 0x3
 7541 336d 8C330000 	 .4byte 0x338c
 7542 3371 23       	 .uleb128 0x23
 7543 3372 48190000 	 .4byte .LASF763
 7544 3376 07       	 .byte 0x7
 7545 3377 5B04     	 .2byte 0x45b
 7546 3379 24       	 .byte 0x24
 7547 337a 8C330000 	 .4byte 0x338c
 7548 337e 23       	 .uleb128 0x23
 7549 337f DC420000 	 .4byte .LASF592
 7550 3383 07       	 .byte 0x7
 7551 3384 6204     	 .2byte 0x462
 7552 3386 17       	 .byte 0x17
 7553 3387 B4250000 	 .4byte 0x25b4
 7554 338b 00       	 .byte 0
 7555 338c 05       	 .uleb128 0x5
 7556 338d 5A330000 	 .4byte 0x335a
 7557 3391 11       	 .uleb128 0x11
 7558 3392 3C       	 .byte 0x3c
 7559 3393 07       	 .byte 0x7
 7560 3394 4C04     	 .2byte 0x44c
 7561 3396 09       	 .byte 0x9
 7562 3397 B8330000 	 .4byte 0x33b8
 7563 339b 03       	 .uleb128 0x3
 7564 339c 072B0000 	 .4byte .LASF764
 7565 33a0 07       	 .byte 0x7
 7566 33a1 5004     	 .2byte 0x450
 7567 33a3 17       	 .byte 0x17
 7568 33a4 98260000 	 .4byte 0x2698
 7569 33a8 00       	 .byte 0
ARM GAS   			page 138


 7570 33a9 03       	 .uleb128 0x3
 7571 33aa 062A0000 	 .4byte .LASF765
 7572 33ae 07       	 .byte 0x7
 7573 33af 6304     	 .2byte 0x463
 7574 33b1 05       	 .byte 0x5
 7575 33b2 67330000 	 .4byte 0x3367
 7576 33b6 30       	 .byte 0x30
 7577 33b7 00       	 .byte 0
 7578 33b8 08       	 .uleb128 0x8
 7579 33b9 59030000 	 .4byte .LASF766
 7580 33bd 07       	 .byte 0x7
 7581 33be 6404     	 .2byte 0x464
 7582 33c0 03       	 .byte 0x3
 7583 33c1 91330000 	 .4byte 0x3391
 7584 33c5 16       	 .uleb128 0x16
 7585 33c6 621E0000 	 .4byte .LASF767
 7586 33ca 07       	 .byte 0x7
 7587 33cb 6904     	 .2byte 0x469
 7588 33cd 1B       	 .byte 0x1b
 7589 33ce B8330000 	 .4byte 0x33b8
 7590 33d2 09       	 .uleb128 0x9
 7591 33d3 48       	 .byte 0x48
 7592 33d4 47       	 .byte 0x47
 7593 33d5 37       	 .byte 0x37
 7594 33d6 09       	 .byte 0x9
 7595 33d7 F6330000 	 .4byte 0x33f6
 7596 33db 02       	 .uleb128 0x2
 7597 33dc D20E0000 	 .4byte .LASF38
 7598 33e0 47       	 .byte 0x47
 7599 33e1 38       	 .byte 0x38
 7600 33e2 1C       	 .byte 0x1c
 7601 33e3 F0250000 	 .4byte 0x25f0
 7602 33e7 00       	 .byte 0
 7603 33e8 02       	 .uleb128 0x2
 7604 33e9 DB340000 	 .4byte .LASF768
 7605 33ed 47       	 .byte 0x47
 7606 33ee 39       	 .byte 0x39
 7607 33ef 1C       	 .byte 0x1c
 7608 33f0 040B0000 	 .4byte 0xb04
 7609 33f4 10       	 .byte 0x10
 7610 33f5 00       	 .byte 0
 7611 33f6 04       	 .uleb128 0x4
 7612 33f7 A73E0000 	 .4byte .LASF769
 7613 33fb 47       	 .byte 0x47
 7614 33fc 3A       	 .byte 0x3a
 7615 33fd 05       	 .byte 0x5
 7616 33fe D2330000 	 .4byte 0x33d2
 7617 3402 06       	 .uleb128 0x6
 7618 3403 E0360000 	 .4byte .LASF770
 7619 3407 47       	 .byte 0x47
 7620 3408 3F       	 .byte 0x3f
 7621 3409 1C       	 .byte 0x1c
 7622 340a 98260000 	 .4byte 0x2698
 7623 340e 08       	 .uleb128 0x8
 7624 340f C9330000 	 .4byte .LASF771
 7625 3413 48       	 .byte 0x48
 7626 3414 0701     	 .2byte 0x107
ARM GAS   			page 139


 7627 3416 10       	 .byte 0x10
 7628 3417 20340000 	 .4byte 0x3420
 7629 341b 0B       	 .uleb128 0xb
 7630 341c 0E340000 	 .4byte 0x340e
 7631 3420 05       	 .uleb128 0x5
 7632 3421 25340000 	 .4byte 0x3425
 7633 3425 0E       	 .uleb128 0xe
 7634 3426 35340000 	 .4byte 0x3435
 7635 342a 01       	 .uleb128 0x1
 7636 342b 35340000 	 .4byte 0x3435
 7637 342f 01       	 .uleb128 0x1
 7638 3430 F5060000 	 .4byte 0x6f5
 7639 3434 00       	 .byte 0
 7640 3435 05       	 .uleb128 0x5
 7641 3436 CA070000 	 .4byte 0x7ca
 7642 343a 16       	 .uleb128 0x16
 7643 343b CC2D0000 	 .4byte .LASF772
 7644 343f 48       	 .byte 0x48
 7645 3440 1101     	 .2byte 0x111
 7646 3442 2D       	 .byte 0x2d
 7647 3443 1B340000 	 .4byte 0x341b
 7648 3447 0A       	 .uleb128 0xa
 7649 3448 EA090000 	 .4byte 0x9ea
 7650 344c 57340000 	 .4byte 0x3457
 7651 3450 0D       	 .uleb128 0xd
 7652 3451 2D000000 	 .4byte 0x2d
 7653 3455 02       	 .byte 0x2
 7654 3456 00       	 .byte 0
 7655 3457 0B       	 .uleb128 0xb
 7656 3458 47340000 	 .4byte 0x3447
 7657 345c 21       	 .uleb128 0x21
 7658 345d 2C0B0000 	 .4byte 0xb2c
 7659 3461 49       	 .byte 0x49
 7660 3462 72       	 .byte 0x72
 7661 3463 1F       	 .byte 0x1f
 7662 3464 57340000 	 .4byte 0x3457
 7663 3468 05       	 .uleb128 0x5
 7664 3469 03       	 .byte 0x3
 7665 346a 00000000 	 .4byte _User_extensions_Initial_extensions
 7666 346e 0F       	 .uleb128 0xf
 7667 346f 100B0000 	 .4byte 0xb10
 7668 3473 49       	 .byte 0x49
 7669 3474 A0       	 .byte 0xa0
 7670 3475 10       	 .byte 0x10
 7671 3476 05       	 .uleb128 0x5
 7672 3477 03       	 .byte 0x3
 7673 3478 00000000 	 .4byte _User_extensions_Initial_count
 7674 347c 0A       	 .uleb128 0xa
 7675 347d C70A0000 	 .4byte 0xac7
 7676 3481 8C340000 	 .4byte 0x348c
 7677 3485 0D       	 .uleb128 0xd
 7678 3486 2D000000 	 .4byte 0x2d
 7679 348a 02       	 .byte 0x2
 7680 348b 00       	 .byte 0
 7681 348c 21       	 .uleb128 0x21
 7682 348d 430B0000 	 .4byte 0xb43
 7683 3491 49       	 .byte 0x49
ARM GAS   			page 140


 7684 3492 A3       	 .byte 0xa3
 7685 3493 22       	 .byte 0x22
 7686 3494 7C340000 	 .4byte 0x347c
 7687 3498 05       	 .uleb128 0x5
 7688 3499 03       	 .byte 0x3
 7689 349a 00000000 	 .4byte _User_extensions_Initial_switch_controls
 7690 349e 25       	 .uleb128 0x25
 7691 349f 000D0000 	 .4byte .LASF774
 7692 34a3 49       	 .byte 0x49
 7693 34a4 A7       	 .byte 0xa7
 7694 34a5 03       	 .byte 0x3
 7695 34a6 5D250000 	 .4byte 0x255d
 7696 34aa 05       	 .uleb128 0x5
 7697 34ab 03       	 .byte 0x3
 7698 34ac 00000000 	 .4byte _Linker_set__Sysinit__User_extensions_Handler_initialization
 7699 34b0 0A       	 .uleb128 0xa
 7700 34b1 59270000 	 .4byte 0x2759
 7701 34b5 C0340000 	 .4byte 0x34c0
 7702 34b9 0D       	 .uleb128 0xd
 7703 34ba 2D000000 	 .4byte 0x2d
 7704 34be 1F       	 .byte 0x1f
 7705 34bf 00       	 .byte 0
 7706 34c0 14       	 .uleb128 0x14
 7707 34c1 8D340000 	 .4byte .LASF775
 7708 34c5 49       	 .byte 0x49
 7709 34c6 AF       	 .byte 0xaf
 7710 34c7 03       	 .byte 0x3
 7711 34c8 B0340000 	 .4byte 0x34b0
 7712 34cc 05       	 .uleb128 0x5
 7713 34cd 03       	 .byte 0x3
 7714 34ce A8470000 	 .4byte _Extension_Local_table
 7715 34d2 0A       	 .uleb128 0xa
 7716 34d3 F6330000 	 .4byte 0x33f6
 7717 34d7 E2340000 	 .4byte 0x34e2
 7718 34db 0D       	 .uleb128 0xd
 7719 34dc 2D000000 	 .4byte 0x2d
 7720 34e0 1F       	 .byte 0x1f
 7721 34e1 00       	 .byte 0
 7722 34e2 14       	 .uleb128 0x14
 7723 34e3 CD130000 	 .4byte .LASF776
 7724 34e7 49       	 .byte 0x49
 7725 34e8 AF       	 .byte 0xaf
 7726 34e9 03       	 .byte 0x3
 7727 34ea D2340000 	 .4byte 0x34d2
 7728 34ee 05       	 .uleb128 0x5
 7729 34ef 03       	 .byte 0x3
 7730 34f0 00000000 	 .4byte _Extension_Objects
 7731 34f4 0F       	 .uleb128 0xf
 7732 34f5 02340000 	 .4byte 0x3402
 7733 34f9 49       	 .byte 0x49
 7734 34fa AF       	 .byte 0xaf
 7735 34fb 03       	 .byte 0x3
 7736 34fc 05       	 .uleb128 0x5
 7737 34fd 03       	 .byte 0x3
 7738 34fe 00000000 	 .4byte _Extension_Information
 7739 3502 0F       	 .uleb128 0xf
 7740 3503 3A340000 	 .4byte 0x343a
ARM GAS   			page 141


 7741 3507 49       	 .byte 0x49
 7742 3508 DB       	 .byte 0xdb
 7743 3509 2A       	 .byte 0x2a
 7744 350a 05       	 .uleb128 0x5
 7745 350b 03       	 .byte 0x3
 7746 350c 00000000 	 .4byte Stack_checker_Reporter
 7747 3510 1F       	 .uleb128 0x1f
 7748 3511 2D000000 	 .4byte 0x2d
 7749 3515 4A       	 .byte 0x4a
 7750 3516 40       	 .byte 0x40
 7751 3517 8E350000 	 .4byte 0x358e
 7752 351b 07       	 .uleb128 0x7
 7753 351c DA020000 	 .4byte .LASF777
 7754 3520 0E       	 .byte 0xe
 7755 3521 07       	 .uleb128 0x7
 7756 3522 DC200000 	 .4byte .LASF778
 7757 3526 19       	 .byte 0x19
 7758 3527 07       	 .uleb128 0x7
 7759 3528 281A0000 	 .4byte .LASF779
 7760 352c 09       	 .byte 0x9
 7761 352d 07       	 .uleb128 0x7
 7762 352e B2020000 	 .4byte .LASF780
 7763 3532 04       	 .byte 0x4
 7764 3533 07       	 .uleb128 0x7
 7765 3534 D8250000 	 .4byte .LASF781
 7766 3538 03       	 .byte 0x3
 7767 3539 07       	 .uleb128 0x7
 7768 353a 14350000 	 .4byte .LASF782
 7769 353e 15       	 .byte 0x15
 7770 353f 07       	 .uleb128 0x7
 7771 3540 F8280000 	 .4byte .LASF783
 7772 3544 0A       	 .byte 0xa
 7773 3545 07       	 .uleb128 0x7
 7774 3546 46200000 	 .4byte .LASF784
 7775 354a 13       	 .byte 0x13
 7776 354b 07       	 .uleb128 0x7
 7777 354c B9150000 	 .4byte .LASF785
 7778 3550 08       	 .byte 0x8
 7779 3551 07       	 .uleb128 0x7
 7780 3552 20450000 	 .4byte .LASF786
 7781 3556 1A       	 .byte 0x1a
 7782 3557 07       	 .uleb128 0x7
 7783 3558 6A120000 	 .4byte .LASF787
 7784 355c 0B       	 .byte 0xb
 7785 355d 07       	 .uleb128 0x7
 7786 355e 3E010000 	 .4byte .LASF788
 7787 3562 17       	 .byte 0x17
 7788 3563 07       	 .uleb128 0x7
 7789 3564 C6160000 	 .4byte .LASF789
 7790 3568 07       	 .byte 0x7
 7791 3569 07       	 .uleb128 0x7
 7792 356a 17310000 	 .4byte .LASF790
 7793 356e 1D       	 .byte 0x1d
 7794 356f 07       	 .uleb128 0x7
 7795 3570 82320000 	 .4byte .LASF791
 7796 3574 0C       	 .byte 0xc
 7797 3575 07       	 .uleb128 0x7
ARM GAS   			page 142


 7798 3576 E2430000 	 .4byte .LASF792
 7799 357a 00       	 .byte 0
 7800 357b 07       	 .uleb128 0x7
 7801 357c 42030000 	 .4byte .LASF793
 7802 3580 06       	 .byte 0x6
 7803 3581 07       	 .uleb128 0x7
 7804 3582 EB390000 	 .4byte .LASF794
 7805 3586 05       	 .byte 0x5
 7806 3587 07       	 .uleb128 0x7
 7807 3588 581F0000 	 .4byte .LASF795
 7808 358c 0D       	 .byte 0xd
 7809 358d 00       	 .byte 0
 7810 358e 04       	 .uleb128 0x4
 7811 358f AF320000 	 .4byte .LASF796
 7812 3593 21       	 .byte 0x21
 7813 3594 39       	 .byte 0x39
 7814 3595 23       	 .byte 0x23
 7815 3596 C10C0000 	 .4byte 0xcc1
 7816 359a 0B       	 .uleb128 0xb
 7817 359b 8E350000 	 .4byte 0x358e
 7818 359f 09       	 .uleb128 0x9
 7819 35a0 34       	 .byte 0x34
 7820 35a1 21       	 .byte 0x21
 7821 35a2 3E       	 .byte 0x3e
 7822 35a3 09       	 .byte 0x9
 7823 35a4 57360000 	 .4byte 0x3657
 7824 35a8 02       	 .uleb128 0x2
 7825 35a9 263F0000 	 .4byte .LASF691
 7826 35ad 21       	 .byte 0x21
 7827 35ae 40       	 .byte 0x40
 7828 35af 0B       	 .byte 0xb
 7829 35b0 67360000 	 .4byte 0x3667
 7830 35b4 00       	 .byte 0
 7831 35b5 02       	 .uleb128 0x2
 7832 35b6 47320000 	 .4byte .LASF797
 7833 35ba 21       	 .byte 0x21
 7834 35bb 43       	 .byte 0x43
 7835 35bc 0B       	 .byte 0xb
 7836 35bd 7C360000 	 .4byte 0x367c
 7837 35c1 04       	 .byte 0x4
 7838 35c2 02       	 .uleb128 0x2
 7839 35c3 331C0000 	 .4byte .LASF798
 7840 35c7 21       	 .byte 0x21
 7841 35c8 46       	 .byte 0x46
 7842 35c9 0B       	 .byte 0xb
 7843 35ca 96360000 	 .4byte 0x3696
 7844 35ce 08       	 .byte 0x8
 7845 35cf 02       	 .uleb128 0x2
 7846 35d0 45020000 	 .4byte .LASF799
 7847 35d4 21       	 .byte 0x21
 7848 35d5 4D       	 .byte 0x4d
 7849 35d6 0B       	 .byte 0xb
 7850 35d7 96360000 	 .4byte 0x3696
 7851 35db 0C       	 .byte 0xc
 7852 35dc 02       	 .uleb128 0x2
 7853 35dd D7440000 	 .4byte .LASF800
 7854 35e1 21       	 .byte 0x21
ARM GAS   			page 143


 7855 35e2 54       	 .byte 0x54
 7856 35e3 0B       	 .byte 0xb
 7857 35e4 96360000 	 .4byte 0x3696
 7858 35e8 10       	 .byte 0x10
 7859 35e9 02       	 .uleb128 0x2
 7860 35ea 84230000 	 .4byte .LASF801
 7861 35ee 21       	 .byte 0x21
 7862 35ef 5B       	 .byte 0x5b
 7863 35f0 0B       	 .byte 0xb
 7864 35f1 96360000 	 .4byte 0x3696
 7865 35f5 14       	 .byte 0x14
 7866 35f6 02       	 .uleb128 0x2
 7867 35f7 BB490000 	 .4byte .LASF802
 7868 35fb 21       	 .byte 0x21
 7869 35fc 62       	 .byte 0x62
 7870 35fd 17       	 .byte 0x17
 7871 35fe AF360000 	 .4byte 0x36af
 7872 3602 18       	 .byte 0x18
 7873 3603 02       	 .uleb128 0x2
 7874 3604 A5450000 	 .4byte .LASF803
 7875 3608 21       	 .byte 0x21
 7876 3609 68       	 .byte 0x68
 7877 360a 17       	 .byte 0x17
 7878 360b AF360000 	 .4byte 0x36af
 7879 360f 1C       	 .byte 0x1c
 7880 3610 03       	 .uleb128 0x3
 7881 3611 A10F0000 	 .4byte .LASF804
 7882 3615 21       	 .byte 0x21
 7883 3616 0B01     	 .2byte 0x10b
 7884 3618 0B       	 .byte 0xb
 7885 3619 CE360000 	 .4byte 0x36ce
 7886 361d 20       	 .byte 0x20
 7887 361e 03       	 .uleb128 0x3
 7888 361f 98450000 	 .4byte .LASF805
 7889 3623 21       	 .byte 0x21
 7890 3624 1301     	 .2byte 0x113
 7891 3626 0B       	 .byte 0xb
 7892 3627 E3360000 	 .4byte 0x36e3
 7893 362b 24       	 .byte 0x24
 7894 362c 03       	 .uleb128 0x3
 7895 362d D90E0000 	 .4byte .LASF806
 7896 3631 21       	 .byte 0x21
 7897 3632 1601     	 .2byte 0x116
 7898 3634 0B       	 .byte 0xb
 7899 3635 07370000 	 .4byte 0x3707
 7900 3639 28       	 .byte 0x28
 7901 363a 03       	 .uleb128 0x3
 7902 363b A63D0000 	 .4byte .LASF807
 7903 363f 21       	 .byte 0x21
 7904 3640 1F01     	 .2byte 0x11f
 7905 3642 0B       	 .byte 0xb
 7906 3643 26370000 	 .4byte 0x3726
 7907 3647 2C       	 .byte 0x2c
 7908 3648 03       	 .uleb128 0x3
 7909 3649 89200000 	 .4byte .LASF808
 7910 364d 21       	 .byte 0x21
 7911 364e 2701     	 .2byte 0x127
ARM GAS   			page 144


 7912 3650 0B       	 .byte 0xb
 7913 3651 40370000 	 .4byte 0x3740
 7914 3655 30       	 .byte 0x30
 7915 3656 00       	 .byte 0
 7916 3657 0E       	 .uleb128 0xe
 7917 3658 62360000 	 .4byte 0x3662
 7918 365c 01       	 .uleb128 0x1
 7919 365d 62360000 	 .4byte 0x3662
 7920 3661 00       	 .byte 0
 7921 3662 05       	 .uleb128 0x5
 7922 3663 9A350000 	 .4byte 0x359a
 7923 3667 05       	 .uleb128 0x5
 7924 3668 57360000 	 .4byte 0x3657
 7925 366c 0E       	 .uleb128 0xe
 7926 366d 7C360000 	 .4byte 0x367c
 7927 3671 01       	 .uleb128 0x1
 7928 3672 62360000 	 .4byte 0x3662
 7929 3676 01       	 .uleb128 0x1
 7930 3677 8C2A0000 	 .4byte 0x2a8c
 7931 367b 00       	 .byte 0
 7932 367c 05       	 .uleb128 0x5
 7933 367d 6C360000 	 .4byte 0x366c
 7934 3681 0E       	 .uleb128 0xe
 7935 3682 96360000 	 .4byte 0x3696
 7936 3686 01       	 .uleb128 0x1
 7937 3687 62360000 	 .4byte 0x3662
 7938 368b 01       	 .uleb128 0x1
 7939 368c 8C2A0000 	 .4byte 0x2a8c
 7940 3690 01       	 .uleb128 0x1
 7941 3691 AD2E0000 	 .4byte 0x2ead
 7942 3695 00       	 .byte 0
 7943 3696 05       	 .uleb128 0x5
 7944 3697 81360000 	 .4byte 0x3681
 7945 369b 0C       	 .uleb128 0xc
 7946 369c 91270000 	 .4byte 0x2791
 7947 36a0 AF360000 	 .4byte 0x36af
 7948 36a4 01       	 .uleb128 0x1
 7949 36a5 62360000 	 .4byte 0x3662
 7950 36a9 01       	 .uleb128 0x1
 7951 36aa 91270000 	 .4byte 0x2791
 7952 36ae 00       	 .byte 0
 7953 36af 05       	 .uleb128 0x5
 7954 36b0 9B360000 	 .4byte 0x369b
 7955 36b4 0E       	 .uleb128 0xe
 7956 36b5 CE360000 	 .4byte 0x36ce
 7957 36b9 01       	 .uleb128 0x1
 7958 36ba 62360000 	 .4byte 0x3662
 7959 36be 01       	 .uleb128 0x1
 7960 36bf AD2E0000 	 .4byte 0x2ead
 7961 36c3 01       	 .uleb128 0x1
 7962 36c4 8C2A0000 	 .4byte 0x2a8c
 7963 36c8 01       	 .uleb128 0x1
 7964 36c9 91270000 	 .4byte 0x2791
 7965 36cd 00       	 .byte 0
 7966 36ce 05       	 .uleb128 0x5
 7967 36cf B4360000 	 .4byte 0x36b4
 7968 36d3 0E       	 .uleb128 0xe
ARM GAS   			page 145


 7969 36d4 E3360000 	 .4byte 0x36e3
 7970 36d8 01       	 .uleb128 0x1
 7971 36d9 62360000 	 .4byte 0x3662
 7972 36dd 01       	 .uleb128 0x1
 7973 36de AD2E0000 	 .4byte 0x2ead
 7974 36e2 00       	 .byte 0
 7975 36e3 05       	 .uleb128 0x5
 7976 36e4 D3360000 	 .4byte 0x36d3
 7977 36e8 0E       	 .uleb128 0xe
 7978 36e9 07370000 	 .4byte 0x3707
 7979 36ed 01       	 .uleb128 0x1
 7980 36ee 62360000 	 .4byte 0x3662
 7981 36f2 01       	 .uleb128 0x1
 7982 36f3 8C2A0000 	 .4byte 0x2a8c
 7983 36f7 01       	 .uleb128 0x1
 7984 36f8 84280000 	 .4byte 0x2884
 7985 36fc 01       	 .uleb128 0x1
 7986 36fd B3030000 	 .4byte 0x3b3
 7987 3701 01       	 .uleb128 0x1
 7988 3702 962A0000 	 .4byte 0x2a96
 7989 3706 00       	 .byte 0
 7990 3707 05       	 .uleb128 0x5
 7991 3708 E8360000 	 .4byte 0x36e8
 7992 370c 0E       	 .uleb128 0xe
 7993 370d 26370000 	 .4byte 0x3726
 7994 3711 01       	 .uleb128 0x1
 7995 3712 62360000 	 .4byte 0x3662
 7996 3716 01       	 .uleb128 0x1
 7997 3717 8C2A0000 	 .4byte 0x2a8c
 7998 371b 01       	 .uleb128 0x1
 7999 371c 84280000 	 .4byte 0x2884
 8000 3720 01       	 .uleb128 0x1
 8001 3721 962A0000 	 .4byte 0x2a96
 8002 3725 00       	 .byte 0
 8003 3726 05       	 .uleb128 0x5
 8004 3727 0C370000 	 .4byte 0x370c
 8005 372b 0E       	 .uleb128 0xe
 8006 372c 40370000 	 .4byte 0x3740
 8007 3730 01       	 .uleb128 0x1
 8008 3731 62360000 	 .4byte 0x3662
 8009 3735 01       	 .uleb128 0x1
 8010 3736 8C2A0000 	 .4byte 0x2a8c
 8011 373a 01       	 .uleb128 0x1
 8012 373b 912A0000 	 .4byte 0x2a91
 8013 373f 00       	 .byte 0
 8014 3740 05       	 .uleb128 0x5
 8015 3741 2B370000 	 .4byte 0x372b
 8016 3745 08       	 .uleb128 0x8
 8017 3746 82100000 	 .4byte .LASF809
 8018 374a 21       	 .byte 0x21
 8019 374b 3601     	 .2byte 0x136
 8020 374d 03       	 .byte 0x3
 8021 374e 9F350000 	 .4byte 0x359f
 8022 3752 18       	 .uleb128 0x18
 8023 3753 702A0000 	 .4byte .LASF810
 8024 3757 01       	 .byte 0x1
 8025 3758 21       	 .byte 0x21
ARM GAS   			page 146


 8026 3759 3E01     	 .2byte 0x13e
 8027 375b 10       	 .byte 0x10
 8028 375c 6F370000 	 .4byte 0x376f
 8029 3760 03       	 .uleb128 0x3
 8030 3761 D33B0000 	 .4byte .LASF811
 8031 3765 21       	 .byte 0x21
 8032 3766 4A01     	 .2byte 0x14a
 8033 3768 08       	 .byte 0x8
 8034 3769 44030000 	 .4byte 0x344
 8035 376d 00       	 .byte 0
 8036 376e 00       	 .byte 0
 8037 376f 08       	 .uleb128 0x8
 8038 3770 702A0000 	 .4byte .LASF810
 8039 3774 21       	 .byte 0x21
 8040 3775 4C01     	 .2byte 0x14c
 8041 3777 03       	 .byte 0x3
 8042 3778 52370000 	 .4byte 0x3752
 8043 377c 05       	 .uleb128 0x5
 8044 377d 6F370000 	 .4byte 0x376f
 8045 3781 0A       	 .uleb128 0xa
 8046 3782 9A350000 	 .4byte 0x359a
 8047 3786 8C370000 	 .4byte 0x378c
 8048 378a 1C       	 .uleb128 0x1c
 8049 378b 00       	 .byte 0
 8050 378c 0B       	 .uleb128 0xb
 8051 378d 81370000 	 .4byte 0x3781
 8052 3791 16       	 .uleb128 0x16
 8053 3792 D3260000 	 .4byte .LASF812
 8054 3796 21       	 .byte 0x21
 8055 3797 7A01     	 .2byte 0x17a
 8056 3799 20       	 .byte 0x20
 8057 379a 8C370000 	 .4byte 0x378c
 8058 379e 04       	 .uleb128 0x4
 8059 379f 434A0000 	 .4byte .LASF813
 8060 37a3 4B       	 .byte 0x4b
 8061 37a4 3A       	 .byte 0x3a
 8062 37a5 12       	 .byte 0x12
 8063 37a6 85030000 	 .4byte 0x385
 8064 37aa 09       	 .uleb128 0x9
 8065 37ab 22       	 .byte 0x22
 8066 37ac 4B       	 .byte 0x4b
 8067 37ad 3C       	 .byte 0x3c
 8068 37ae 09       	 .byte 0x9
 8069 37af CE370000 	 .4byte 0x37ce
 8070 37b3 02       	 .uleb128 0x2
 8071 37b4 B7220000 	 .4byte .LASF814
 8072 37b8 4B       	 .byte 0x4b
 8073 37b9 41       	 .byte 0x41
 8074 37ba 19       	 .byte 0x19
 8075 37bb 9E370000 	 .4byte 0x379e
 8076 37bf 00       	 .byte 0
 8077 37c0 02       	 .uleb128 0x2
 8078 37c1 96370000 	 .4byte .LASF815
 8079 37c5 4B       	 .byte 0x4b
 8080 37c6 4B       	 .byte 0x4b
 8081 37c7 19       	 .byte 0x19
 8082 37c8 CE370000 	 .4byte 0x37ce
ARM GAS   			page 147


 8083 37cc 02       	 .byte 0x2
 8084 37cd 00       	 .byte 0
 8085 37ce 0A       	 .uleb128 0xa
 8086 37cf 9E370000 	 .4byte 0x379e
 8087 37d3 DE370000 	 .4byte 0x37de
 8088 37d7 0D       	 .uleb128 0xd
 8089 37d8 2D000000 	 .4byte 0x2d
 8090 37dc 0F       	 .byte 0xf
 8091 37dd 00       	 .byte 0
 8092 37de 04       	 .uleb128 0x4
 8093 37df 6B080000 	 .4byte .LASF816
 8094 37e3 4B       	 .byte 0x4b
 8095 37e4 4C       	 .byte 0x4c
 8096 37e5 03       	 .byte 0x3
 8097 37e6 AA370000 	 .4byte 0x37aa
 8098 37ea 09       	 .uleb128 0x9
 8099 37eb 0C       	 .byte 0xc
 8100 37ec 4B       	 .byte 0x4b
 8101 37ed 52       	 .byte 0x52
 8102 37ee 09       	 .byte 0x9
 8103 37ef 35380000 	 .4byte 0x3835
 8104 37f3 02       	 .uleb128 0x2
 8105 37f4 60080000 	 .4byte .LASF817
 8106 37f8 4B       	 .byte 0x4b
 8107 37f9 54       	 .byte 0x54
 8108 37fa 1A       	 .byte 0x1a
 8109 37fb 35380000 	 .4byte 0x3835
 8110 37ff 00       	 .byte 0
 8111 3800 02       	 .uleb128 0x2
 8112 3801 EC290000 	 .4byte .LASF818
 8113 3805 4B       	 .byte 0x4b
 8114 3806 56       	 .byte 0x56
 8115 3807 1A       	 .byte 0x1a
 8116 3808 9E370000 	 .4byte 0x379e
 8117 380c 04       	 .byte 0x4
 8118 380d 02       	 .uleb128 0x2
 8119 380e 382B0000 	 .4byte .LASF819
 8120 3812 4B       	 .byte 0x4b
 8121 3813 58       	 .byte 0x58
 8122 3814 1A       	 .byte 0x1a
 8123 3815 9E370000 	 .4byte 0x379e
 8124 3819 06       	 .byte 0x6
 8125 381a 02       	 .uleb128 0x2
 8126 381b 150E0000 	 .4byte .LASF820
 8127 381f 4B       	 .byte 0x4b
 8128 3820 5A       	 .byte 0x5a
 8129 3821 1A       	 .byte 0x1a
 8130 3822 9E370000 	 .4byte 0x379e
 8131 3826 08       	 .byte 0x8
 8132 3827 02       	 .uleb128 0x2
 8133 3828 90110000 	 .4byte .LASF821
 8134 382c 4B       	 .byte 0x4b
 8135 382d 5C       	 .byte 0x5c
 8136 382e 1A       	 .byte 0x1a
 8137 382f 9E370000 	 .4byte 0x379e
 8138 3833 0A       	 .byte 0xa
 8139 3834 00       	 .byte 0
ARM GAS   			page 148


 8140 3835 05       	 .uleb128 0x5
 8141 3836 9E370000 	 .4byte 0x379e
 8142 383a 04       	 .uleb128 0x4
 8143 383b 50190000 	 .4byte .LASF822
 8144 383f 4B       	 .byte 0x4b
 8145 3840 5D       	 .byte 0x5d
 8146 3841 03       	 .byte 0x3
 8147 3842 EA370000 	 .4byte 0x37ea
 8148 3846 09       	 .uleb128 0x9
 8149 3847 24       	 .byte 0x24
 8150 3848 4C       	 .byte 0x4c
 8151 3849 53       	 .byte 0x53
 8152 384a 09       	 .byte 0x9
 8153 384b 77380000 	 .4byte 0x3877
 8154 384f 02       	 .uleb128 0x2
 8155 3850 141A0000 	 .4byte .LASF823
 8156 3854 4C       	 .byte 0x4c
 8157 3855 57       	 .byte 0x57
 8158 3856 15       	 .byte 0x15
 8159 3857 6F370000 	 .4byte 0x376f
 8160 385b 00       	 .byte 0
 8161 385c 02       	 .uleb128 0x2
 8162 385d 9C050000 	 .4byte .LASF824
 8163 3861 4C       	 .byte 0x4c
 8164 3862 5C       	 .byte 0x5c
 8165 3863 1C       	 .byte 0x1c
 8166 3864 DE370000 	 .4byte 0x37de
 8167 3868 02       	 .byte 0x2
 8168 3869 02       	 .uleb128 0x2
 8169 386a 3D140000 	 .4byte .LASF825
 8170 386e 4C       	 .byte 0x4c
 8171 386f 61       	 .byte 0x61
 8172 3870 11       	 .byte 0x11
 8173 3871 77380000 	 .4byte 0x3877
 8174 3875 24       	 .byte 0x24
 8175 3876 00       	 .byte 0
 8176 3877 0A       	 .uleb128 0xa
 8177 3878 970A0000 	 .4byte 0xa97
 8178 387c 86380000 	 .4byte 0x3886
 8179 3880 2C       	 .uleb128 0x2c
 8180 3881 2D000000 	 .4byte 0x2d
 8181 3885 00       	 .byte 0
 8182 3886 04       	 .uleb128 0x4
 8183 3887 A1270000 	 .4byte .LASF826
 8184 388b 4C       	 .byte 0x4c
 8185 388c 62       	 .byte 0x62
 8186 388d 03       	 .byte 0x3
 8187 388e 46380000 	 .4byte 0x3846
 8188 3892 09       	 .uleb128 0x9
 8189 3893 14       	 .byte 0x14
 8190 3894 4C       	 .byte 0x4c
 8191 3895 67       	 .byte 0x67
 8192 3896 09       	 .byte 0x9
 8193 3897 C3380000 	 .4byte 0x38c3
 8194 389b 02       	 .uleb128 0x2
 8195 389c 34280000 	 .4byte .LASF827
 8196 38a0 4C       	 .byte 0x4c
ARM GAS   			page 149


 8197 38a1 6B       	 .byte 0x6b
 8198 38a2 10       	 .byte 0x10
 8199 38a3 2D000000 	 .4byte 0x2d
 8200 38a7 00       	 .byte 0
 8201 38a8 02       	 .uleb128 0x2
 8202 38a9 8C400000 	 .4byte .LASF828
 8203 38ad 4C       	 .byte 0x4c
 8204 38ae 6E       	 .byte 0x6e
 8205 38af 29       	 .byte 0x29
 8206 38b0 C3380000 	 .4byte 0x38c3
 8207 38b4 04       	 .byte 0x4
 8208 38b5 02       	 .uleb128 0x2
 8209 38b6 3C350000 	 .4byte .LASF829
 8210 38ba 4C       	 .byte 0x4c
 8211 38bb 71       	 .byte 0x71
 8212 38bc 29       	 .byte 0x29
 8213 38bd 3A380000 	 .4byte 0x383a
 8214 38c1 08       	 .byte 0x8
 8215 38c2 00       	 .byte 0
 8216 38c3 05       	 .uleb128 0x5
 8217 38c4 970A0000 	 .4byte 0xa97
 8218 38c8 04       	 .uleb128 0x4
 8219 38c9 B30E0000 	 .4byte .LASF830
 8220 38cd 4C       	 .byte 0x4c
 8221 38ce 72       	 .byte 0x72
 8222 38cf 03       	 .byte 0x3
 8223 38d0 92380000 	 .4byte 0x3892
 8224 38d4 09       	 .uleb128 0x9
 8225 38d5 50       	 .byte 0x50
 8226 38d6 4C       	 .byte 0x4c
 8227 38d7 77       	 .byte 0x77
 8228 38d8 09       	 .byte 0x9
 8229 38d9 F8380000 	 .4byte 0x38f8
 8230 38dd 02       	 .uleb128 0x2
 8231 38de 141A0000 	 .4byte .LASF823
 8232 38e2 4C       	 .byte 0x4c
 8233 38e3 7B       	 .byte 0x7b
 8234 38e4 12       	 .byte 0x12
 8235 38e5 B1280000 	 .4byte 0x28b1
 8236 38e9 00       	 .byte 0
 8237 38ea 02       	 .uleb128 0x2
 8238 38eb 452A0000 	 .4byte .LASF831
 8239 38ef 4C       	 .byte 0x4c
 8240 38f0 80       	 .byte 0x80
 8241 38f1 22       	 .byte 0x22
 8242 38f2 C8380000 	 .4byte 0x38c8
 8243 38f6 38       	 .byte 0x38
 8244 38f7 00       	 .byte 0
 8245 38f8 04       	 .uleb128 0x4
 8246 38f9 890F0000 	 .4byte .LASF832
 8247 38fd 4C       	 .byte 0x4c
 8248 38fe 81       	 .byte 0x81
 8249 38ff 03       	 .byte 0x3
 8250 3900 D4380000 	 .4byte 0x38d4
 8251 3904 41       	 .uleb128 0x41
 8252 3905 240C     	 .2byte 0xc24
 8253 3907 4D       	 .byte 0x4d
ARM GAS   			page 150


 8254 3908 F6       	 .byte 0xf6
 8255 3909 03       	 .byte 0x3
 8256 390a 29390000 	 .4byte 0x3929
 8257 390e 02       	 .uleb128 0x2
 8258 390f 141A0000 	 .4byte .LASF823
 8259 3913 4D       	 .byte 0x4d
 8260 3914 F6       	 .byte 0xf6
 8261 3915 03       	 .byte 0x3
 8262 3916 86380000 	 .4byte 0x3886
 8263 391a 00       	 .byte 0
 8264 391b 02       	 .uleb128 0x2
 8265 391c 3D140000 	 .4byte .LASF825
 8266 3920 4D       	 .byte 0x4d
 8267 3921 F6       	 .byte 0xf6
 8268 3922 03       	 .byte 0x3
 8269 3923 29390000 	 .4byte 0x3929
 8270 3927 24       	 .byte 0x24
 8271 3928 00       	 .byte 0
 8272 3929 0A       	 .uleb128 0xa
 8273 392a 970A0000 	 .4byte 0xa97
 8274 392e 39390000 	 .4byte 0x3939
 8275 3932 0D       	 .uleb128 0xd
 8276 3933 2D000000 	 .4byte 0x2d
 8277 3937 FF       	 .byte 0xff
 8278 3938 00       	 .byte 0
 8279 3939 14       	 .uleb128 0x14
 8280 393a 7D380000 	 .4byte .LASF833
 8281 393e 4D       	 .byte 0x4d
 8282 393f F6       	 .byte 0xf6
 8283 3940 03       	 .byte 0x3
 8284 3941 04390000 	 .4byte 0x3904
 8285 3945 05       	 .uleb128 0x5
 8286 3946 03       	 .byte 0x3
 8287 3947 843B0000 	 .4byte _Configuration_Scheduler_priority_dflt
 8288 394b 0A       	 .uleb128 0xa
 8289 394c 9A350000 	 .4byte 0x359a
 8290 3950 5B390000 	 .4byte 0x395b
 8291 3954 0D       	 .uleb128 0xd
 8292 3955 2D000000 	 .4byte 0x2d
 8293 3959 00       	 .byte 0
 8294 395a 00       	 .byte 0
 8295 395b 0B       	 .uleb128 0xb
 8296 395c 4B390000 	 .4byte 0x394b
 8297 3960 21       	 .uleb128 0x21
 8298 3961 91370000 	 .4byte 0x3791
 8299 3965 4D       	 .byte 0x4d
 8300 3966 FA       	 .byte 0xfa
 8301 3967 19       	 .byte 0x19
 8302 3968 5B390000 	 .4byte 0x395b
 8303 396c 05       	 .uleb128 0x5
 8304 396d 03       	 .byte 0x3
 8305 396e 00000000 	 .4byte _Scheduler_Table
 8306 3972 09       	 .uleb128 0x9
 8307 3973 10       	 .byte 0x10
 8308 3974 4E       	 .byte 0x4e
 8309 3975 39       	 .byte 0x39
 8310 3976 09       	 .byte 0x9
ARM GAS   			page 151


 8311 3977 B0390000 	 .4byte 0x39b0
 8312 397b 02       	 .uleb128 0x2
 8313 397c C0400000 	 .4byte .LASF834
 8314 3980 4E       	 .byte 0x4e
 8315 3981 3B       	 .byte 0x3b
 8316 3982 15       	 .byte 0x15
 8317 3983 F5060000 	 .4byte 0x6f5
 8318 3987 00       	 .byte 0
 8319 3988 02       	 .uleb128 0x2
 8320 3989 47390000 	 .4byte .LASF590
 8321 398d 4E       	 .byte 0x4e
 8322 398e 3D       	 .byte 0x3d
 8323 398f 15       	 .byte 0x15
 8324 3990 A90D0000 	 .4byte 0xda9
 8325 3994 04       	 .byte 0x4
 8326 3995 02       	 .uleb128 0x2
 8327 3996 18030000 	 .4byte .LASF155
 8328 399a 4E       	 .byte 0x4e
 8329 399b 3F       	 .byte 0x3f
 8330 399c 15       	 .byte 0x15
 8331 399d 9C040000 	 .4byte 0x49c
 8332 39a1 08       	 .byte 0x8
 8333 39a2 02       	 .uleb128 0x2
 8334 39a3 881B0000 	 .4byte .LASF835
 8335 39a7 4E       	 .byte 0x4e
 8336 39a8 41       	 .byte 0x41
 8337 39a9 15       	 .byte 0x15
 8338 39aa 9D0D0000 	 .4byte 0xd9d
 8339 39ae 0C       	 .byte 0xc
 8340 39af 00       	 .byte 0
 8341 39b0 04       	 .uleb128 0x4
 8342 39b1 37440000 	 .4byte .LASF836
 8343 39b5 4E       	 .byte 0x4e
 8344 39b6 42       	 .byte 0x42
 8345 39b7 05       	 .byte 0x5
 8346 39b8 72390000 	 .4byte 0x3972
 8347 39bc 09       	 .uleb128 0x9
 8348 39bd 04       	 .byte 0x4
 8349 39be 4F       	 .byte 0x4f
 8350 39bf 38       	 .byte 0x38
 8351 39c0 09       	 .byte 0x9
 8352 39c1 D3390000 	 .4byte 0x39d3
 8353 39c5 02       	 .uleb128 0x2
 8354 39c6 4F300000 	 .4byte .LASF837
 8355 39ca 4F       	 .byte 0x4f
 8356 39cb 3C       	 .byte 0x3c
 8357 39cc 13       	 .byte 0x13
 8358 39cd 140D0000 	 .4byte 0xd14
 8359 39d1 00       	 .byte 0
 8360 39d2 00       	 .byte 0
 8361 39d3 04       	 .uleb128 0x4
 8362 39d4 501B0000 	 .4byte .LASF838
 8363 39d8 4F       	 .byte 0x4f
 8364 39d9 3D       	 .byte 0x3d
 8365 39da 03       	 .byte 0x3
 8366 39db BC390000 	 .4byte 0x39bc
 8367 39df 09       	 .uleb128 0x9
ARM GAS   			page 152


 8368 39e0 24       	 .byte 0x24
 8369 39e1 50       	 .byte 0x50
 8370 39e2 3F       	 .byte 0x3f
 8371 39e3 09       	 .byte 0x9
 8372 39e4 1D3A0000 	 .4byte 0x3a1d
 8373 39e8 02       	 .uleb128 0x2
 8374 39e9 98490000 	 .4byte .LASF839
 8375 39ed 50       	 .byte 0x50
 8376 39ee 41       	 .byte 0x41
 8377 39ef 1C       	 .byte 0x1c
 8378 39f0 D3390000 	 .4byte 0x39d3
 8379 39f4 00       	 .byte 0
 8380 39f5 02       	 .uleb128 0x2
 8381 39f6 F32E0000 	 .4byte .LASF840
 8382 39fa 50       	 .byte 0x50
 8383 39fb 43       	 .byte 0x43
 8384 39fc 1C       	 .byte 0x1c
 8385 39fd D3390000 	 .4byte 0x39d3
 8386 3a01 04       	 .byte 0x4
 8387 3a02 02       	 .uleb128 0x2
 8388 3a03 31410000 	 .4byte .LASF841
 8389 3a07 50       	 .byte 0x50
 8390 3a08 45       	 .byte 0x45
 8391 3a09 1C       	 .byte 0x1c
 8392 3a0a B0390000 	 .4byte 0x39b0
 8393 3a0e 08       	 .byte 0x8
 8394 3a0f 02       	 .uleb128 0x2
 8395 3a10 6D190000 	 .4byte .LASF842
 8396 3a14 50       	 .byte 0x50
 8397 3a15 4A       	 .byte 0x4a
 8398 3a16 1C       	 .byte 0x1c
 8399 3a17 EB2F0000 	 .4byte 0x2feb
 8400 3a1b 18       	 .byte 0x18
 8401 3a1c 00       	 .byte 0
 8402 3a1d 04       	 .uleb128 0x4
 8403 3a1e 31080000 	 .4byte .LASF843
 8404 3a22 50       	 .byte 0x50
 8405 3a23 4B       	 .byte 0x4b
 8406 3a24 04       	 .byte 0x4
 8407 3a25 DF390000 	 .4byte 0x39df
 8408 3a29 06       	 .uleb128 0x6
 8409 3a2a 6F050000 	 .4byte .LASF844
 8410 3a2e 50       	 .byte 0x50
 8411 3a2f 53       	 .byte 0x53
 8412 3a30 2F       	 .byte 0x2f
 8413 3a31 B8070000 	 .4byte 0x7b8
 8414 3a35 06       	 .uleb128 0x6
 8415 3a36 A9380000 	 .4byte .LASF845
 8416 3a3a 50       	 .byte 0x50
 8417 3a3b 86       	 .byte 0x86
 8418 3a3c 1B       	 .byte 0x1b
 8419 3a3d B8330000 	 .4byte 0x33b8
 8420 3a41 09       	 .uleb128 0x9
 8421 3a42 68       	 .byte 0x68
 8422 3a43 51       	 .byte 0x51
 8423 3a44 42       	 .byte 0x42
 8424 3a45 03       	 .byte 0x3
ARM GAS   			page 153


 8425 3a46 993A0000 	 .4byte 0x3a99
 8426 3a4a 02       	 .uleb128 0x2
 8427 3a4b 9C0C0000 	 .4byte .LASF846
 8428 3a4f 51       	 .byte 0x51
 8429 3a50 44       	 .byte 0x44
 8430 3a51 15       	 .byte 0x15
 8431 3a52 8C2A0000 	 .4byte 0x2a8c
 8432 3a56 00       	 .byte 0
 8433 3a57 02       	 .uleb128 0x2
 8434 3a58 F9020000 	 .4byte .LASF44
 8435 3a5c 51       	 .byte 0x51
 8436 3a5d 4A       	 .byte 0x4a
 8437 3a5e 16       	 .byte 0x16
 8438 3a5f 12220000 	 .4byte 0x2212
 8439 3a63 08       	 .byte 0x8
 8440 3a64 02       	 .uleb128 0x2
 8441 3a65 F4130000 	 .4byte .LASF847
 8442 3a69 51       	 .byte 0x51
 8443 3a6a 50       	 .byte 0x50
 8444 3a6b 13       	 .byte 0x13
 8445 3a6c E3270000 	 .4byte 0x27e3
 8446 3a70 28       	 .byte 0x28
 8447 3a71 02       	 .uleb128 0x2
 8448 3a72 28330000 	 .4byte .LASF848
 8449 3a76 51       	 .byte 0x51
 8450 3a77 55       	 .byte 0x55
 8451 3a78 15       	 .byte 0x15
 8452 3a79 81050000 	 .4byte 0x581
 8453 3a7d 40       	 .byte 0x40
 8454 3a7e 02       	 .uleb128 0x2
 8455 3a7f E2100000 	 .4byte .LASF849
 8456 3a83 51       	 .byte 0x51
 8457 3a84 5A       	 .byte 0x5a
 8458 3a85 15       	 .byte 0x15
 8459 3a86 81050000 	 .4byte 0x581
 8460 3a8a 50       	 .byte 0x50
 8461 3a8b 02       	 .uleb128 0x2
 8462 3a8c E61A0000 	 .4byte .LASF850
 8463 3a90 51       	 .byte 0x51
 8464 3a91 61       	 .byte 0x61
 8465 3a92 09       	 .byte 0x9
 8466 3a93 74000000 	 .4byte 0x74
 8467 3a97 60       	 .byte 0x60
 8468 3a98 00       	 .byte 0
 8469 3a99 09       	 .uleb128 0x9
 8470 3a9a 80       	 .byte 0x80
 8471 3a9b 51       	 .byte 0x51
 8472 3a9c 3E       	 .byte 0x3e
 8473 3a9d 09       	 .byte 0x9
 8474 3a9e D73A0000 	 .4byte 0x3ad7
 8475 3aa2 02       	 .uleb128 0x2
 8476 3aa3 DC0A0000 	 .4byte .LASF851
 8477 3aa7 51       	 .byte 0x51
 8478 3aa8 62       	 .byte 0x62
 8479 3aa9 05       	 .byte 0x5
 8480 3aaa 413A0000 	 .4byte 0x3a41
 8481 3aae 00       	 .byte 0
ARM GAS   			page 154


 8482 3aaf 02       	 .uleb128 0x2
 8483 3ab0 55140000 	 .4byte .LASF852
 8484 3ab4 51       	 .byte 0x51
 8485 3ab5 65       	 .byte 0x65
 8486 3ab6 1B       	 .byte 0x1b
 8487 3ab7 310C0000 	 .4byte 0xc31
 8488 3abb 68       	 .byte 0x68
 8489 3abc 02       	 .uleb128 0x2
 8490 3abd 881B0000 	 .4byte .LASF835
 8491 3ac1 51       	 .byte 0x51
 8492 3ac2 67       	 .byte 0x67
 8493 3ac3 1B       	 .byte 0x1b
 8494 3ac4 310C0000 	 .4byte 0xc31
 8495 3ac8 6C       	 .byte 0x6c
 8496 3ac9 02       	 .uleb128 0x2
 8497 3aca 6D190000 	 .4byte .LASF842
 8498 3ace 51       	 .byte 0x51
 8499 3acf 6C       	 .byte 0x6c
 8500 3ad0 1B       	 .byte 0x1b
 8501 3ad1 EB2F0000 	 .4byte 0x2feb
 8502 3ad5 70       	 .byte 0x70
 8503 3ad6 00       	 .byte 0
 8504 3ad7 04       	 .uleb128 0x4
 8505 3ad8 BC450000 	 .4byte .LASF853
 8506 3adc 51       	 .byte 0x51
 8507 3add 6D       	 .byte 0x6d
 8508 3ade 03       	 .byte 0x3
 8509 3adf 993A0000 	 .4byte 0x3a99
 8510 3ae3 20       	 .uleb128 0x20
 8511 3ae4 50       	 .byte 0x50
 8512 3ae5 46       	 .byte 0x46
 8513 3ae6 68       	 .byte 0x68
 8514 3ae7 09       	 .byte 0x9
 8515 3ae8 053B0000 	 .4byte 0x3b05
 8516 3aec 15       	 .uleb128 0x15
 8517 3aed 141A0000 	 .4byte .LASF823
 8518 3af1 46       	 .byte 0x46
 8519 3af2 69       	 .byte 0x69
 8520 3af3 12       	 .byte 0x12
 8521 3af4 B1280000 	 .4byte 0x28b1
 8522 3af8 15       	 .uleb128 0x15
 8523 3af9 5F2D0000 	 .4byte .LASF643
 8524 3afd 46       	 .byte 0x46
 8525 3afe 74       	 .byte 0x74
 8526 3aff 1D       	 .byte 0x1d
 8527 3b00 F8380000 	 .4byte 0x38f8
 8528 3b04 00       	 .byte 0
 8529 3b05 04       	 .uleb128 0x4
 8530 3b06 3D330000 	 .4byte .LASF854
 8531 3b0a 46       	 .byte 0x46
 8532 3b0b 85       	 .byte 0x85
 8533 3b0c 03       	 .byte 0x3
 8534 3b0d E33A0000 	 .4byte 0x3ae3
 8535 3b11 0F       	 .uleb128 0xf
 8536 3b12 D6320000 	 .4byte 0x32d6
 8537 3b16 46       	 .byte 0x46
 8538 3b17 8B       	 .byte 0x8b
ARM GAS   			page 155


 8539 3b18 0E       	 .byte 0xe
 8540 3b19 05       	 .uleb128 0x5
 8541 3b1a 03       	 .byte 0x3
 8542 3b1b 00000000 	 .4byte _Thread_Maximum_name_size
 8543 3b1f 0F       	 .uleb128 0xf
 8544 3b20 E3320000 	 .4byte 0x32e3
 8545 3b24 46       	 .byte 0x46
 8546 3b25 92       	 .byte 0x92
 8547 3b26 0E       	 .byte 0xe
 8548 3b27 05       	 .uleb128 0x5
 8549 3b28 03       	 .byte 0x3
 8550 3b29 00000000 	 .4byte _Thread_Maximum_TLS_size
 8551 3b2d 0A       	 .uleb128 0xa
 8552 3b2e DB000000 	 .4byte 0xdb
 8553 3b32 3D3B0000 	 .4byte 0x3b3d
 8554 3b36 0D       	 .uleb128 0xd
 8555 3b37 2D000000 	 .4byte 0x2d
 8556 3b3b 20       	 .byte 0x20
 8557 3b3c 00       	 .byte 0
 8558 3b3d 0A       	 .uleb128 0xa
 8559 3b3e 053B0000 	 .4byte 0x3b05
 8560 3b42 4D3B0000 	 .4byte 0x3b4d
 8561 3b46 0D       	 .uleb128 0xd
 8562 3b47 2D000000 	 .4byte 0x2d
 8563 3b4b 00       	 .byte 0
 8564 3b4c 00       	 .byte 0
 8565 3b4d 0A       	 .uleb128 0xa
 8566 3b4e 9A320000 	 .4byte 0x329a
 8567 3b52 5D3B0000 	 .4byte 0x3b5d
 8568 3b56 0D       	 .uleb128 0xd
 8569 3b57 2D000000 	 .4byte 0x2d
 8570 3b5b 03       	 .byte 0x3
 8571 3b5c 00       	 .byte 0
 8572 3b5d 0B       	 .uleb128 0xb
 8573 3b5e 4D3B0000 	 .4byte 0x3b4d
 8574 3b62 21       	 .uleb128 0x21
 8575 3b63 AF320000 	 .4byte 0x32af
 8576 3b67 46       	 .byte 0x46
 8577 3b68 B0       	 .byte 0xb0
 8578 3b69 1D       	 .byte 0x1d
 8579 3b6a 5D3B0000 	 .4byte 0x3b5d
 8580 3b6e 05       	 .uleb128 0x5
 8581 3b6f 03       	 .byte 0x3
 8582 3b70 00000000 	 .4byte _Thread_Control_add_ons
 8583 3b74 0F       	 .uleb128 0xf
 8584 3b75 BC320000 	 .4byte 0x32bc
 8585 3b79 46       	 .byte 0x46
 8586 3b7a D9       	 .byte 0xd9
 8587 3b7b 0E       	 .byte 0xe
 8588 3b7c 05       	 .uleb128 0x5
 8589 3b7d 03       	 .byte 0x3
 8590 3b7e 00000000 	 .4byte _Thread_Control_add_on_count
 8591 3b82 0F       	 .uleb128 0xf
 8592 3b83 C9320000 	 .4byte 0x32c9
 8593 3b87 46       	 .byte 0x46
 8594 3b88 ED       	 .byte 0xed
 8595 3b89 0E       	 .byte 0xe
ARM GAS   			page 156


 8596 3b8a 05       	 .uleb128 0x5
 8597 3b8b 03       	 .byte 0x3
 8598 3b8c 00000000 	 .4byte _Thread_Initial_thread_count
 8599 3b90 0A       	 .uleb128 0xa
 8600 3b91 59270000 	 .4byte 0x2759
 8601 3b95 A03B0000 	 .4byte 0x3ba0
 8602 3b99 0D       	 .uleb128 0xd
 8603 3b9a 2D000000 	 .4byte 0x2d
 8604 3b9e 00       	 .byte 0
 8605 3b9f 00       	 .byte 0
 8606 3ba0 14       	 .uleb128 0x14
 8607 3ba1 31020000 	 .4byte .LASF855
 8608 3ba5 46       	 .byte 0x46
 8609 3ba6 FB       	 .byte 0xfb
 8610 3ba7 01       	 .byte 0x1
 8611 3ba8 903B0000 	 .4byte 0x3b90
 8612 3bac 05       	 .uleb128 0x5
 8613 3bad 03       	 .byte 0x3
 8614 3bae 803B0000 	 .4byte _Thread_Local_table
 8615 3bb2 0A       	 .uleb128 0xa
 8616 3bb3 F0320000 	 .4byte 0x32f0
 8617 3bb7 C23B0000 	 .4byte 0x3bc2
 8618 3bbb 0D       	 .uleb128 0xd
 8619 3bbc 2D000000 	 .4byte 0x2d
 8620 3bc0 00       	 .byte 0
 8621 3bc1 00       	 .byte 0
 8622 3bc2 14       	 .uleb128 0x14
 8623 3bc3 532C0000 	 .4byte .LASF856
 8624 3bc7 46       	 .byte 0x46
 8625 3bc8 FB       	 .byte 0xfb
 8626 3bc9 01       	 .byte 0x1
 8627 3bca B23B0000 	 .4byte 0x3bb2
 8628 3bce 05       	 .uleb128 0x5
 8629 3bcf 03       	 .byte 0x3
 8630 3bd0 48000000 	 .4byte _Thread_Objects
 8631 3bd4 0A       	 .uleb128 0xa
 8632 3bd5 5A330000 	 .4byte 0x335a
 8633 3bd9 E43B0000 	 .4byte 0x3be4
 8634 3bdd 0D       	 .uleb128 0xd
 8635 3bde 2D000000 	 .4byte 0x2d
 8636 3be2 00       	 .byte 0
 8637 3be3 00       	 .byte 0
 8638 3be4 14       	 .uleb128 0x14
 8639 3be5 EC000000 	 .4byte .LASF857
 8640 3be9 46       	 .byte 0x46
 8641 3bea FB       	 .byte 0xfb
 8642 3beb 01       	 .byte 0x1
 8643 3bec D43B0000 	 .4byte 0x3bd4
 8644 3bf0 05       	 .uleb128 0x5
 8645 3bf1 03       	 .byte 0x3
 8646 3bf2 00000000 	 .4byte _Thread_Heads
 8647 3bf6 0F       	 .uleb128 0xf
 8648 3bf7 C5330000 	 .4byte 0x33c5
 8649 3bfb 46       	 .byte 0x46
 8650 3bfc FB       	 .byte 0xfb
 8651 3bfd 01       	 .byte 0x1
 8652 3bfe 05       	 .uleb128 0x5
ARM GAS   			page 157


 8653 3bff 03       	 .byte 0x3
 8654 3c00 00000000 	 .4byte _Thread_Information
 8655 3c04 0A       	 .uleb128 0xa
 8656 3c05 59270000 	 .4byte 0x2759
 8657 3c09 143C0000 	 .4byte 0x3c14
 8658 3c0d 0D       	 .uleb128 0xd
 8659 3c0e 2D000000 	 .4byte 0x2d
 8660 3c12 81       	 .byte 0x81
 8661 3c13 00       	 .byte 0
 8662 3c14 27       	 .uleb128 0x27
 8663 3c15 9A160000 	 .4byte .LASF858
 8664 3c19 46       	 .byte 0x46
 8665 3c1a 0301     	 .2byte 0x103
 8666 3c1c 03       	 .byte 0x3
 8667 3c1d 043C0000 	 .4byte 0x3c04
 8668 3c21 05       	 .uleb128 0x5
 8669 3c22 03       	 .byte 0x3
 8670 3c23 78390000 	 .4byte _RTEMS_tasks_Local_table
 8671 3c27 0A       	 .uleb128 0xa
 8672 3c28 F0320000 	 .4byte 0x32f0
 8673 3c2c 373C0000 	 .4byte 0x3c37
 8674 3c30 0D       	 .uleb128 0xd
 8675 3c31 2D000000 	 .4byte 0x2d
 8676 3c35 81       	 .byte 0x81
 8677 3c36 00       	 .byte 0
 8678 3c37 27       	 .uleb128 0x27
 8679 3c38 4F420000 	 .4byte .LASF859
 8680 3c3c 46       	 .byte 0x46
 8681 3c3d 0301     	 .2byte 0x103
 8682 3c3f 03       	 .byte 0x3
 8683 3c40 273C0000 	 .4byte 0x3c27
 8684 3c44 05       	 .uleb128 0x5
 8685 3c45 03       	 .byte 0x3
 8686 3c46 90240000 	 .4byte _RTEMS_tasks_Objects
 8687 3c4a 0A       	 .uleb128 0xa
 8688 3c4b 5A330000 	 .4byte 0x335a
 8689 3c4f 5A3C0000 	 .4byte 0x3c5a
 8690 3c53 0D       	 .uleb128 0xd
 8691 3c54 2D000000 	 .4byte 0x2d
 8692 3c58 81       	 .byte 0x81
 8693 3c59 00       	 .byte 0
 8694 3c5a 27       	 .uleb128 0x27
 8695 3c5b 1A270000 	 .4byte .LASF860
 8696 3c5f 46       	 .byte 0x46
 8697 3c60 0301     	 .2byte 0x103
 8698 3c62 03       	 .byte 0x3
 8699 3c63 4A3C0000 	 .4byte 0x3c4a
 8700 3c67 05       	 .uleb128 0x5
 8701 3c68 03       	 .byte 0x3
 8702 3c69 00000000 	 .4byte _RTEMS_tasks_Heads
 8703 3c6d 2A       	 .uleb128 0x2a
 8704 3c6e 353A0000 	 .4byte 0x3a35
 8705 3c72 46       	 .byte 0x46
 8706 3c73 0301     	 .2byte 0x103
 8707 3c75 03       	 .byte 0x3
 8708 3c76 05       	 .uleb128 0x5
 8709 3c77 03       	 .byte 0x3
ARM GAS   			page 158


 8710 3c78 00000000 	 .4byte _RTEMS_tasks_Information
 8711 3c7c 06       	 .uleb128 0x6
 8712 3c7d 54130000 	 .4byte .LASF861
 8713 3c81 52       	 .byte 0x52
 8714 3c82 5A       	 .byte 0x5a
 8715 3c83 18       	 .byte 0x18
 8716 3c84 3F030000 	 .4byte 0x33f
 8717 3c88 0F       	 .uleb128 0xf
 8718 3c89 293A0000 	 .4byte 0x3a29
 8719 3c8d 52       	 .byte 0x52
 8720 3c8e A6       	 .byte 0xa6
 8721 3c8f 28       	 .byte 0x28
 8722 3c90 05       	 .uleb128 0x5
 8723 3c91 03       	 .byte 0x3
 8724 3c92 00000000 	 .4byte _RTEMS_tasks_User_task_table
 8725 3c96 25       	 .uleb128 0x25
 8726 3c97 5D2F0000 	 .4byte .LASF862
 8727 3c9b 52       	 .byte 0x52
 8728 3c9c B3       	 .byte 0xb3
 8729 3c9d 01       	 .byte 0x1
 8730 3c9e 5D250000 	 .4byte 0x255d
 8731 3ca2 05       	 .uleb128 0x5
 8732 3ca3 03       	 .byte 0x3
 8733 3ca4 00000000 	 .4byte _Linker_set__Sysinit__RTEMS_tasks_Initialize_user_task
 8734 3ca8 06       	 .uleb128 0x6
 8735 3ca9 84420000 	 .4byte .LASF863
 8736 3cad 53       	 .byte 0x53
 8737 3cae 3A       	 .byte 0x3a
 8738 3caf 15       	 .byte 0x15
 8739 3cb0 CF000000 	 .4byte 0xcf
 8740 3cb4 0A       	 .uleb128 0xa
 8741 3cb5 190C0000 	 .4byte 0xc19
 8742 3cb9 BF3C0000 	 .4byte 0x3cbf
 8743 3cbd 1C       	 .uleb128 0x1c
 8744 3cbe 00       	 .byte 0
 8745 3cbf 06       	 .uleb128 0x6
 8746 3cc0 44310000 	 .4byte .LASF864
 8747 3cc4 53       	 .byte 0x53
 8748 3cc5 3C       	 .byte 0x3c
 8749 3cc6 23       	 .byte 0x23
 8750 3cc7 B43C0000 	 .4byte 0x3cb4
 8751 3ccb 0A       	 .uleb128 0xa
 8752 3ccc 190C0000 	 .4byte 0xc19
 8753 3cd0 DB3C0000 	 .4byte 0x3cdb
 8754 3cd4 0D       	 .uleb128 0xd
 8755 3cd5 2D000000 	 .4byte 0x2d
 8756 3cd9 1F       	 .byte 0x1f
 8757 3cda 00       	 .byte 0
 8758 3cdb 21       	 .uleb128 0x21
 8759 3cdc BF3C0000 	 .4byte 0x3cbf
 8760 3ce0 54       	 .byte 0x54
 8761 3ce1 7E       	 .byte 0x7e
 8762 3ce2 01       	 .byte 0x1
 8763 3ce3 CB3C0000 	 .4byte 0x3ccb
 8764 3ce7 05       	 .uleb128 0x5
 8765 3ce8 03       	 .byte 0x3
 8766 3ce9 00000000 	 .4byte _IO_Driver_address_table
ARM GAS   			page 159


 8767 3ced 0F       	 .uleb128 0xf
 8768 3cee A83C0000 	 .4byte 0x3ca8
 8769 3cf2 54       	 .byte 0x54
 8770 3cf3 A6       	 .byte 0xa6
 8771 3cf4 0E       	 .byte 0xe
 8772 3cf5 05       	 .uleb128 0x5
 8773 3cf6 03       	 .byte 0x3
 8774 3cf7 00000000 	 .4byte _IO_Number_of_drivers
 8775 3cfb 25       	 .uleb128 0x25
 8776 3cfc 1B430000 	 .4byte .LASF865
 8777 3d00 54       	 .byte 0x54
 8778 3d01 A9       	 .byte 0xa9
 8779 3d02 01       	 .byte 0x1
 8780 3d03 5D250000 	 .4byte 0x255d
 8781 3d07 05       	 .uleb128 0x5
 8782 3d08 03       	 .byte 0x3
 8783 3d09 00000000 	 .4byte _Linker_set__Sysinit__IO_Initialize_all_drivers
 8784 3d0d 25       	 .uleb128 0x25
 8785 3d0e 33470000 	 .4byte .LASF866
 8786 3d12 54       	 .byte 0x54
 8787 3d13 CE       	 .byte 0xce
 8788 3d14 03       	 .byte 0x3
 8789 3d15 5D250000 	 .4byte 0x255d
 8790 3d19 05       	 .uleb128 0x5
 8791 3d1a 03       	 .byte 0x3
 8792 3d1b 00000000 	 .4byte _Linker_set__Sysinit_rtems_libio_post_driver
 8793 3d1f 06       	 .uleb128 0x6
 8794 3d20 9B1E0000 	 .4byte .LASF867
 8795 3d24 55       	 .byte 0x55
 8796 3d25 50       	 .byte 0x50
 8797 3d26 17       	 .byte 0x17
 8798 3d27 9D030000 	 .4byte 0x39d
 8799 3d2b 0A       	 .uleb128 0xa
 8800 3d2c 650F0000 	 .4byte 0xf65
 8801 3d30 363D0000 	 .4byte 0x3d36
 8802 3d34 1C       	 .uleb128 0x1c
 8803 3d35 00       	 .byte 0
 8804 3d36 06       	 .uleb128 0x6
 8805 3d37 EB3E0000 	 .4byte .LASF868
 8806 3d3b 55       	 .byte 0x55
 8807 3d3c 51       	 .byte 0x51
 8808 3d3d 16       	 .byte 0x16
 8809 3d3e 2B3D0000 	 .4byte 0x3d2b
 8810 3d42 0A       	 .uleb128 0xa
 8811 3d43 44030000 	 .4byte 0x344
 8812 3d47 523D0000 	 .4byte 0x3d52
 8813 3d4b 0D       	 .uleb128 0xd
 8814 3d4c 2D000000 	 .4byte 0x2d
 8815 3d50 08       	 .byte 0x8
 8816 3d51 00       	 .byte 0
 8817 3d52 04       	 .uleb128 0x4
 8818 3d53 DF350000 	 .4byte .LASF869
 8819 3d57 56       	 .byte 0x56
 8820 3d58 3D       	 .byte 0x3d
 8821 3d59 1E       	 .byte 0x1e
 8822 3d5a 5E3D0000 	 .4byte 0x3d5e
 8823 3d5e 18       	 .uleb128 0x18
ARM GAS   			page 160


 8824 3d5f F2040000 	 .4byte .LASF870
 8825 3d63 40       	 .byte 0x40
 8826 3d64 56       	 .byte 0x56
 8827 3d65 0B01     	 .2byte 0x10b
 8828 3d67 08       	 .byte 0x8
 8829 3d68 233E0000 	 .4byte 0x3e23
 8830 3d6c 03       	 .uleb128 0x3
 8831 3d6d 40120000 	 .4byte .LASF202
 8832 3d71 56       	 .byte 0x56
 8833 3d72 0C01     	 .2byte 0x10c
 8834 3d74 17       	 .byte 0x17
 8835 3d75 4D0F0000 	 .4byte 0xf4d
 8836 3d79 00       	 .byte 0
 8837 3d7a 03       	 .uleb128 0x3
 8838 3d7b 19450000 	 .4byte .LASF871
 8839 3d7f 56       	 .byte 0x56
 8840 3d80 0D01     	 .2byte 0x10d
 8841 3d82 17       	 .byte 0x17
 8842 3d83 543E0000 	 .4byte 0x3e54
 8843 3d87 08       	 .byte 0x8
 8844 3d88 03       	 .uleb128 0x3
 8845 3d89 5B220000 	 .4byte .LASF150
 8846 3d8d 56       	 .byte 0x56
 8847 3d8e 0E01     	 .2byte 0x10e
 8848 3d90 17       	 .byte 0x17
 8849 3d91 3F030000 	 .4byte 0x33f
 8850 3d95 0C       	 .byte 0xc
 8851 3d96 03       	 .uleb128 0x3
 8852 3d97 C92A0000 	 .4byte .LASF872
 8853 3d9b 56       	 .byte 0x56
 8854 3d9c 0F01     	 .2byte 0x10f
 8855 3d9e 17       	 .byte 0x17
 8856 3d9f 85030000 	 .4byte 0x385
 8857 3da3 10       	 .byte 0x10
 8858 3da4 03       	 .uleb128 0x3
 8859 3da5 821C0000 	 .4byte .LASF264
 8860 3da9 56       	 .byte 0x56
 8861 3daa 1001     	 .2byte 0x110
 8862 3dac 17       	 .byte 0x17
 8863 3dad A90C0000 	 .4byte 0xca9
 8864 3db1 14       	 .byte 0x14
 8865 3db2 03       	 .uleb128 0x3
 8866 3db3 40150000 	 .4byte .LASF355
 8867 3db7 56       	 .byte 0x56
 8868 3db8 1101     	 .2byte 0x111
 8869 3dba 17       	 .byte 0x17
 8870 3dbb 61000000 	 .4byte 0x61
 8871 3dbf 18       	 .byte 0x18
 8872 3dc0 03       	 .uleb128 0x3
 8873 3dc1 A1090000 	 .4byte .LASF265
 8874 3dc5 56       	 .byte 0x56
 8875 3dc6 1201     	 .2byte 0x112
 8876 3dc8 17       	 .byte 0x17
 8877 3dc9 B50C0000 	 .4byte 0xcb5
 8878 3dcd 1A       	 .byte 0x1a
 8879 3dce 03       	 .uleb128 0x3
 8880 3dcf 45210000 	 .4byte .LASF266
ARM GAS   			page 161


 8881 3dd3 56       	 .byte 0x56
 8882 3dd4 1401     	 .2byte 0x114
 8883 3dd6 17       	 .byte 0x17
 8884 3dd7 850C0000 	 .4byte 0xc85
 8885 3ddb 1C       	 .byte 0x1c
 8886 3ddc 03       	 .uleb128 0x3
 8887 3ddd 4C080000 	 .4byte .LASF267
 8888 3de1 56       	 .byte 0x56
 8889 3de2 1501     	 .2byte 0x115
 8890 3de4 17       	 .byte 0x17
 8891 3de5 910C0000 	 .4byte 0xc91
 8892 3de9 1E       	 .byte 0x1e
 8893 3dea 03       	 .uleb128 0x3
 8894 3deb 35000000 	 .4byte .LASF873
 8895 3def 56       	 .byte 0x56
 8896 3df0 1701     	 .2byte 0x117
 8897 3df2 17       	 .byte 0x17
 8898 3df3 75050000 	 .4byte 0x575
 8899 3df7 20       	 .byte 0x20
 8900 3df8 03       	 .uleb128 0x3
 8901 3df9 09450000 	 .4byte .LASF874
 8902 3dfd 56       	 .byte 0x56
 8903 3dfe 1801     	 .2byte 0x118
 8904 3e00 17       	 .byte 0x17
 8905 3e01 75050000 	 .4byte 0x575
 8906 3e05 28       	 .byte 0x28
 8907 3e06 03       	 .uleb128 0x3
 8908 3e07 152B0000 	 .4byte .LASF875
 8909 3e0b 56       	 .byte 0x56
 8910 3e0c 1901     	 .2byte 0x119
 8911 3e0e 17       	 .byte 0x17
 8912 3e0f 75050000 	 .4byte 0x575
 8913 3e13 30       	 .byte 0x30
 8914 3e14 03       	 .uleb128 0x3
 8915 3e15 7C330000 	 .4byte .LASF730
 8916 3e19 56       	 .byte 0x56
 8917 3e1a 1A01     	 .2byte 0x11a
 8918 3e1c 1C       	 .byte 0x1c
 8919 3e1d 193F0000 	 .4byte 0x3f19
 8920 3e21 38       	 .byte 0x38
 8921 3e22 00       	 .byte 0
 8922 3e23 06       	 .uleb128 0x6
 8923 3e24 620C0000 	 .4byte .LASF876
 8924 3e28 56       	 .byte 0x56
 8925 3e29 56       	 .byte 0x56
 8926 3e2a 14       	 .byte 0x14
 8927 3e2b 7B000000 	 .4byte 0x7b
 8928 3e2f 04       	 .uleb128 0x4
 8929 3e30 BC270000 	 .4byte .LASF877
 8930 3e34 56       	 .byte 0x56
 8931 3e35 88       	 .byte 0x88
 8932 3e36 19       	 .byte 0x19
 8933 3e37 3B3E0000 	 .4byte 0x3e3b
 8934 3e3b 05       	 .uleb128 0x5
 8935 3e3c 403E0000 	 .4byte 0x3e40
 8936 3e40 0C       	 .uleb128 0xc
 8937 3e41 543E0000 	 .4byte 0x3e54
ARM GAS   			page 162


 8938 3e45 543E0000 	 .4byte 0x3e54
 8939 3e49 01       	 .uleb128 0x1
 8940 3e4a 543E0000 	 .4byte 0x3e54
 8941 3e4e 01       	 .uleb128 0x1
 8942 3e4f DB000000 	 .4byte 0xdb
 8943 3e53 00       	 .byte 0
 8944 3e54 05       	 .uleb128 0x5
 8945 3e55 523D0000 	 .4byte 0x3d52
 8946 3e59 04       	 .uleb128 0x4
 8947 3e5a 84040000 	 .4byte .LASF878
 8948 3e5e 56       	 .byte 0x56
 8949 3e5f BC       	 .byte 0xbc
 8950 3e60 19       	 .byte 0x19
 8951 3e61 653E0000 	 .4byte 0x3e65
 8952 3e65 05       	 .uleb128 0x5
 8953 3e66 6A3E0000 	 .4byte 0x3e6a
 8954 3e6a 0C       	 .uleb128 0xc
 8955 3e6b 543E0000 	 .4byte 0x3e54
 8956 3e6f 793E0000 	 .4byte 0x3e79
 8957 3e73 01       	 .uleb128 0x1
 8958 3e74 543E0000 	 .4byte 0x3e54
 8959 3e78 00       	 .byte 0
 8960 3e79 04       	 .uleb128 0x4
 8961 3e7a 78150000 	 .4byte .LASF879
 8962 3e7e 56       	 .byte 0x56
 8963 3e7f D6       	 .byte 0xd6
 8964 3e80 10       	 .byte 0x10
 8965 3e81 853E0000 	 .4byte 0x3e85
 8966 3e85 05       	 .uleb128 0x5
 8967 3e86 8A3E0000 	 .4byte 0x3e8a
 8968 3e8a 0E       	 .uleb128 0xe
 8969 3e8b 953E0000 	 .4byte 0x3e95
 8970 3e8f 01       	 .uleb128 0x1
 8971 3e90 543E0000 	 .4byte 0x3e54
 8972 3e94 00       	 .byte 0
 8973 3e95 09       	 .uleb128 0x9
 8974 3e96 10       	 .byte 0x10
 8975 3e97 56       	 .byte 0x56
 8976 3e98 ED       	 .byte 0xed
 8977 3e99 09       	 .byte 0x9
 8978 3e9a D33E0000 	 .4byte 0x3ed3
 8979 3e9e 02       	 .uleb128 0x2
 8980 3e9f B4030000 	 .4byte .LASF350
 8981 3ea3 56       	 .byte 0x56
 8982 3ea4 EE       	 .byte 0xee
 8983 3ea5 2B       	 .byte 0x2b
 8984 3ea6 31130000 	 .4byte 0x1331
 8985 3eaa 00       	 .byte 0
 8986 3eab 02       	 .uleb128 0x2
 8987 3eac A10F0000 	 .4byte .LASF804
 8988 3eb0 56       	 .byte 0x56
 8989 3eb1 EF       	 .byte 0xef
 8990 3eb2 20       	 .byte 0x20
 8991 3eb3 2F3E0000 	 .4byte 0x3e2f
 8992 3eb7 04       	 .byte 0x4
 8993 3eb8 02       	 .uleb128 0x2
 8994 3eb9 282A0000 	 .4byte .LASF880
ARM GAS   			page 163


 8995 3ebd 56       	 .byte 0x56
 8996 3ebe F0       	 .byte 0xf0
 8997 3ebf 1C       	 .byte 0x1c
 8998 3ec0 593E0000 	 .4byte 0x3e59
 8999 3ec4 08       	 .byte 0x8
 9000 3ec5 02       	 .uleb128 0x2
 9001 3ec6 98450000 	 .4byte .LASF805
 9002 3eca 56       	 .byte 0x56
 9003 3ecb F1       	 .byte 0xf1
 9004 3ecc 1D       	 .byte 0x1d
 9005 3ecd 793E0000 	 .4byte 0x3e79
 9006 3ed1 0C       	 .byte 0xc
 9007 3ed2 00       	 .byte 0
 9008 3ed3 04       	 .uleb128 0x4
 9009 3ed4 E8230000 	 .4byte .LASF881
 9010 3ed8 56       	 .byte 0x56
 9011 3ed9 F2       	 .byte 0xf2
 9012 3eda 03       	 .byte 0x3
 9013 3edb 953E0000 	 .4byte 0x3e95
 9014 3edf 0B       	 .uleb128 0xb
 9015 3ee0 D33E0000 	 .4byte 0x3ed3
 9016 3ee4 09       	 .uleb128 0x9
 9017 3ee5 14       	 .byte 0x14
 9018 3ee6 56       	 .byte 0x56
 9019 3ee7 F4       	 .byte 0xf4
 9020 3ee8 09       	 .byte 0x9
 9021 3ee9 083F0000 	 .4byte 0x3f08
 9022 3eed 02       	 .uleb128 0x2
 9023 3eee 53080000 	 .4byte .LASF882
 9024 3ef2 56       	 .byte 0x56
 9025 3ef3 F5       	 .byte 0xf5
 9026 3ef4 15       	 .byte 0x15
 9027 3ef5 D33E0000 	 .4byte 0x3ed3
 9028 3ef9 00       	 .byte 0
 9029 3efa 02       	 .uleb128 0x2
 9030 3efb A4340000 	 .4byte .LASF883
 9031 3eff 56       	 .byte 0x56
 9032 3f00 F6       	 .byte 0xf6
 9033 3f01 0A       	 .byte 0xa
 9034 3f02 C3000000 	 .4byte 0xc3
 9035 3f06 10       	 .byte 0x10
 9036 3f07 00       	 .byte 0
 9037 3f08 04       	 .uleb128 0x4
 9038 3f09 85490000 	 .4byte .LASF884
 9039 3f0d 56       	 .byte 0x56
 9040 3f0e F7       	 .byte 0xf7
 9041 3f0f 03       	 .byte 0x3
 9042 3f10 E43E0000 	 .4byte 0x3ee4
 9043 3f14 0B       	 .uleb128 0xb
 9044 3f15 083F0000 	 .4byte 0x3f08
 9045 3f19 05       	 .uleb128 0x5
 9046 3f1a DF3E0000 	 .4byte 0x3edf
 9047 3f1e 11       	 .uleb128 0x11
 9048 3f1f 50       	 .byte 0x50
 9049 3f20 56       	 .byte 0x56
 9050 3f21 1D01     	 .2byte 0x11d
 9051 3f23 09       	 .byte 0x9
ARM GAS   			page 164


 9052 3f24 533F0000 	 .4byte 0x3f53
 9053 3f28 03       	 .uleb128 0x3
 9054 3f29 40120000 	 .4byte .LASF202
 9055 3f2d 56       	 .byte 0x56
 9056 3f2e 1E01     	 .2byte 0x11e
 9057 3f30 29       	 .byte 0x29
 9058 3f31 523D0000 	 .4byte 0x3d52
 9059 3f35 00       	 .byte 0
 9060 3f36 03       	 .uleb128 0x3
 9061 3f37 A8190000 	 .4byte .LASF885
 9062 3f3b 56       	 .byte 0x56
 9063 3f3c 1F01     	 .2byte 0x11f
 9064 3f3e 29       	 .byte 0x29
 9065 3f3f 590F0000 	 .4byte 0xf59
 9066 3f43 40       	 .byte 0x40
 9067 3f44 03       	 .uleb128 0x3
 9068 3f45 AA3C0000 	 .4byte .LASF886
 9069 3f49 56       	 .byte 0x56
 9070 3f4a 2001     	 .2byte 0x120
 9071 3f4c 29       	 .byte 0x29
 9072 3f4d 36130000 	 .4byte 0x1336
 9073 3f51 4C       	 .byte 0x4c
 9074 3f52 00       	 .byte 0
 9075 3f53 08       	 .uleb128 0x8
 9076 3f54 F90D0000 	 .4byte .LASF887
 9077 3f58 56       	 .byte 0x56
 9078 3f59 2101     	 .2byte 0x121
 9079 3f5b 03       	 .byte 0x3
 9080 3f5c 1E3F0000 	 .4byte 0x3f1e
 9081 3f60 11       	 .uleb128 0x11
 9082 3f61 10       	 .byte 0x10
 9083 3f62 56       	 .byte 0x56
 9084 3f63 7601     	 .2byte 0x176
 9085 3f65 09       	 .byte 0x9
 9086 3f66 A33F0000 	 .4byte 0x3fa3
 9087 3f6a 03       	 .uleb128 0x3
 9088 3f6b AA030000 	 .4byte .LASF888
 9089 3f6f 56       	 .byte 0x56
 9090 3f70 7701     	 .2byte 0x177
 9091 3f72 1D       	 .byte 0x1d
 9092 3f73 A33F0000 	 .4byte 0x3fa3
 9093 3f77 00       	 .byte 0
 9094 3f78 03       	 .uleb128 0x3
 9095 3f79 2C0C0000 	 .4byte .LASF889
 9096 3f7d 56       	 .byte 0x56
 9097 3f7e 7801     	 .2byte 0x178
 9098 3f80 1D       	 .byte 0x1d
 9099 3f81 A33F0000 	 .4byte 0x3fa3
 9100 3f85 04       	 .byte 0x4
 9101 3f86 03       	 .uleb128 0x3
 9102 3f87 E41B0000 	 .4byte .LASF890
 9103 3f8b 56       	 .byte 0x56
 9104 3f8c 7901     	 .2byte 0x179
 9105 3f8e 1D       	 .byte 0x1d
 9106 3f8f A33F0000 	 .4byte 0x3fa3
 9107 3f93 08       	 .byte 0x8
 9108 3f94 03       	 .uleb128 0x3
ARM GAS   			page 165


 9109 3f95 F40D0000 	 .4byte .LASF891
 9110 3f99 56       	 .byte 0x56
 9111 3f9a 7A01     	 .2byte 0x17a
 9112 3f9c 1D       	 .byte 0x1d
 9113 3f9d A33F0000 	 .4byte 0x3fa3
 9114 3fa1 0C       	 .byte 0xc
 9115 3fa2 00       	 .byte 0
 9116 3fa3 05       	 .uleb128 0x5
 9117 3fa4 143F0000 	 .4byte 0x3f14
 9118 3fa8 08       	 .uleb128 0x8
 9119 3fa9 AE340000 	 .4byte .LASF892
 9120 3fad 56       	 .byte 0x56
 9121 3fae 7B01     	 .2byte 0x17b
 9122 3fb0 03       	 .byte 0x3
 9123 3fb1 603F0000 	 .4byte 0x3f60
 9124 3fb5 0B       	 .uleb128 0xb
 9125 3fb6 A83F0000 	 .4byte 0x3fa8
 9126 3fba 11       	 .uleb128 0x11
 9127 3fbb 58       	 .byte 0x58
 9128 3fbc 56       	 .byte 0x56
 9129 3fbd 7D01     	 .2byte 0x17d
 9130 3fbf 09       	 .byte 0x9
 9131 3fc0 E13F0000 	 .4byte 0x3fe1
 9132 3fc4 03       	 .uleb128 0x3
 9133 3fc5 E5050000 	 .4byte .LASF893
 9134 3fc9 56       	 .byte 0x56
 9135 3fca 7E01     	 .2byte 0x17e
 9136 3fcc 14       	 .byte 0x14
 9137 3fcd 533F0000 	 .4byte 0x3f53
 9138 3fd1 00       	 .byte 0
 9139 3fd2 03       	 .uleb128 0x3
 9140 3fd3 BA2A0000 	 .4byte .LASF894
 9141 3fd7 56       	 .byte 0x56
 9142 3fd8 7F01     	 .2byte 0x17f
 9143 3fda 1E       	 .byte 0x1e
 9144 3fdb E13F0000 	 .4byte 0x3fe1
 9145 3fdf 50       	 .byte 0x50
 9146 3fe0 00       	 .byte 0
 9147 3fe1 05       	 .uleb128 0x5
 9148 3fe2 B53F0000 	 .4byte 0x3fb5
 9149 3fe6 08       	 .uleb128 0x8
 9150 3fe7 B5480000 	 .4byte .LASF895
 9151 3feb 56       	 .byte 0x56
 9152 3fec 8001     	 .2byte 0x180
 9153 3fee 03       	 .byte 0x3
 9154 3fef BA3F0000 	 .4byte 0x3fba
 9155 3ff3 11       	 .uleb128 0x11
 9156 3ff4 0C       	 .byte 0xc
 9157 3ff5 56       	 .byte 0x56
 9158 3ff6 8201     	 .2byte 0x182
 9159 3ff8 09       	 .byte 0x9
 9160 3ff9 28400000 	 .4byte 0x4028
 9161 3ffd 03       	 .uleb128 0x3
 9162 3ffe 1E0F0000 	 .4byte .LASF295
 9163 4002 56       	 .byte 0x56
 9164 4003 8301     	 .2byte 0x183
 9165 4005 13       	 .byte 0x13
ARM GAS   			page 166


 9166 4006 28400000 	 .4byte 0x4028
 9167 400a 00       	 .byte 0
 9168 400b 2D       	 .uleb128 0x2d
 9169 400c 6F707300 	 .ascii "ops\000"
 9170 4010 56       	 .byte 0x56
 9171 4011 8401     	 .2byte 0x184
 9172 4013 2C       	 .byte 0x2c
 9173 4014 011B0000 	 .4byte 0x1b01
 9174 4018 04       	 .byte 0x4
 9175 4019 03       	 .uleb128 0x3
 9176 401a BA2A0000 	 .4byte .LASF894
 9177 401e 56       	 .byte 0x56
 9178 401f 8501     	 .2byte 0x185
 9179 4021 1E       	 .byte 0x1e
 9180 4022 E13F0000 	 .4byte 0x3fe1
 9181 4026 08       	 .byte 0x8
 9182 4027 00       	 .byte 0
 9183 4028 05       	 .uleb128 0x5
 9184 4029 E63F0000 	 .4byte 0x3fe6
 9185 402d 08       	 .uleb128 0x8
 9186 402e 022D0000 	 .4byte .LASF896
 9187 4032 56       	 .byte 0x56
 9188 4033 8601     	 .2byte 0x186
 9189 4035 03       	 .byte 0x3
 9190 4036 F33F0000 	 .4byte 0x3ff3
 9191 403a 0B       	 .uleb128 0xb
 9192 403b 2D400000 	 .4byte 0x402d
 9193 403f 16       	 .uleb128 0x16
 9194 4040 42060000 	 .4byte .LASF897
 9195 4044 56       	 .byte 0x56
 9196 4045 8C01     	 .2byte 0x18c
 9197 4047 21       	 .byte 0x21
 9198 4048 143F0000 	 .4byte 0x3f14
 9199 404c 16       	 .uleb128 0x16
 9200 404d 99390000 	 .4byte .LASF898
 9201 4051 56       	 .byte 0x56
 9202 4052 8E01     	 .2byte 0x18e
 9203 4054 21       	 .byte 0x21
 9204 4055 143F0000 	 .4byte 0x3f14
 9205 4059 16       	 .uleb128 0x16
 9206 405a C12F0000 	 .4byte .LASF899
 9207 405e 56       	 .byte 0x56
 9208 405f 8F01     	 .2byte 0x18f
 9209 4061 21       	 .byte 0x21
 9210 4062 143F0000 	 .4byte 0x3f14
 9211 4066 16       	 .uleb128 0x16
 9212 4067 0B340000 	 .4byte .LASF900
 9213 406b 56       	 .byte 0x56
 9214 406c 9201     	 .2byte 0x192
 9215 406e 21       	 .byte 0x21
 9216 406f 143F0000 	 .4byte 0x3f14
 9217 4073 0F       	 .uleb128 0xf
 9218 4074 233E0000 	 .4byte 0x3e23
 9219 4078 57       	 .byte 0x57
 9220 4079 C0       	 .byte 0xc0
 9221 407a 0B       	 .byte 0xb
 9222 407b 05       	 .uleb128 0x5
ARM GAS   			page 167


 9223 407c 03       	 .byte 0x3
 9224 407d 00000000 	 .4byte imfs_memfile_bytes_per_block
 9225 4081 14       	 .uleb128 0x14
 9226 4082 A1280000 	 .4byte .LASF901
 9227 4086 57       	 .byte 0x57
 9228 4087 C2       	 .byte 0xc2
 9229 4088 17       	 .byte 0x17
 9230 4089 E63F0000 	 .4byte 0x3fe6
 9231 408d 05       	 .uleb128 0x5
 9232 408e 03       	 .byte 0x3
 9233 408f 20390000 	 .4byte IMFS_root_fs_info
 9234 4093 14       	 .uleb128 0x14
 9235 4094 F9220000 	 .4byte .LASF902
 9236 4098 57       	 .byte 0x57
 9237 4099 C4       	 .byte 0xc4
 9238 409a 30       	 .byte 0x30
 9239 409b C4110000 	 .4byte 0x11c4
 9240 409f 05       	 .uleb128 0x5
 9241 40a0 03       	 .byte 0x3
 9242 40a1 64000000 	 .4byte IMFS_root_ops
 9243 40a5 27       	 .uleb128 0x27
 9244 40a6 2B3B0000 	 .4byte .LASF903
 9245 40aa 57       	 .byte 0x57
 9246 40ab 0A01     	 .2byte 0x10a
 9247 40ad 22       	 .byte 0x22
 9248 40ae B53F0000 	 .4byte 0x3fb5
 9249 40b2 05       	 .uleb128 0x5
 9250 40b3 03       	 .byte 0x3
 9251 40b4 54000000 	 .4byte IMFS_root_mknod_controls
 9252 40b8 27       	 .uleb128 0x27
 9253 40b9 96360000 	 .4byte .LASF904
 9254 40bd 57       	 .byte 0x57
 9255 40be 2101     	 .2byte 0x121
 9256 40c0 1E       	 .byte 0x1e
 9257 40c1 3A400000 	 .4byte 0x403a
 9258 40c5 05       	 .uleb128 0x5
 9259 40c6 03       	 .byte 0x3
 9260 40c7 48000000 	 .4byte IMFS_root_mount_data
 9261 40cb 0A       	 .uleb128 0xa
 9262 40cc 6F1B0000 	 .4byte 0x1b6f
 9263 40d0 DB400000 	 .4byte 0x40db
 9264 40d4 0D       	 .uleb128 0xd
 9265 40d5 2D000000 	 .4byte 0x2d
 9266 40d9 03       	 .byte 0x3
 9267 40da 00       	 .byte 0
 9268 40db 0B       	 .uleb128 0xb
 9269 40dc CB400000 	 .4byte 0x40cb
 9270 40e0 33       	 .uleb128 0x33
 9271 40e1 841B0000 	 .4byte 0x1b84
 9272 40e5 2701     	 .2byte 0x127
 9273 40e7 20       	 .byte 0x20
 9274 40e8 DB400000 	 .4byte 0x40db
 9275 40ec 05       	 .uleb128 0x5
 9276 40ed 03       	 .byte 0x3
 9277 40ee 00000000 	 .4byte rtems_filesystem_table
 9278 40f2 2A       	 .uleb128 0x2a
 9279 40f3 F41B0000 	 .4byte 0x1bf4
ARM GAS   			page 168


 9280 40f7 57       	 .byte 0x57
 9281 40f8 4201     	 .2byte 0x142
 9282 40fa 01       	 .byte 0x1
 9283 40fb 05       	 .uleb128 0x5
 9284 40fc 03       	 .byte 0x3
 9285 40fd 00000000 	 .4byte rtems_filesystem_root_configuration
 9286 4101 42       	 .uleb128 0x42
 9287 4102 94120000 	 .4byte .LASF905
 9288 4106 57       	 .byte 0x57
 9289 4107 4A01     	 .2byte 0x14a
 9290 4109 01       	 .byte 0x1
 9291 410a 5D250000 	 .4byte 0x255d
 9292 410e 04       	 .byte 0x4
 9293 410f 05       	 .uleb128 0x5
 9294 4110 03       	 .byte 0x3
 9295 4111 00000000 	 .4byte _Linker_set__Sysinit_rtems_filesystem_initialize
 9296 4115 0A       	 .uleb128 0xa
 9297 4116 650F0000 	 .4byte 0xf65
 9298 411a 25410000 	 .4byte 0x4125
 9299 411e 0D       	 .uleb128 0xd
 9300 411f 2D000000 	 .4byte 0x2d
 9301 4123 C7       	 .byte 0xc7
 9302 4124 00       	 .byte 0
 9303 4125 33       	 .uleb128 0x33
 9304 4126 363D0000 	 .4byte 0x3d36
 9305 412a 5301     	 .2byte 0x153
 9306 412c 11       	 .byte 0x11
 9307 412d 15410000 	 .4byte 0x4115
 9308 4131 05       	 .uleb128 0x5
 9309 4132 03       	 .byte 0x3
 9310 4133 00000000 	 .4byte rtems_libio_iops
 9311 4137 2A       	 .uleb128 0x2a
 9312 4138 1F3D0000 	 .4byte 0x3d1f
 9313 413c 57       	 .byte 0x57
 9314 413d 5501     	 .2byte 0x155
 9315 413f 12       	 .byte 0x12
 9316 4140 05       	 .uleb128 0x5
 9317 4141 03       	 .byte 0x3
 9318 4142 00000000 	 .4byte rtems_libio_number_iops
 9319 4146 04       	 .uleb128 0x4
 9320 4147 4E040000 	 .4byte .LASF906
 9321 414b 58       	 .byte 0x58
 9322 414c 4E       	 .byte 0x4e
 9323 414d 2B       	 .byte 0x2b
 9324 414e 52410000 	 .4byte 0x4152
 9325 4152 13       	 .uleb128 0x13
 9326 4153 4E040000 	 .4byte .LASF906
 9327 4157 40       	 .byte 0x40
 9328 4158 58       	 .byte 0x58
 9329 4159 71       	 .byte 0x71
 9330 415a 08       	 .byte 0x8
 9331 415b E2410000 	 .4byte 0x41e2
 9332 415f 02       	 .uleb128 0x2
 9333 4160 B02B0000 	 .4byte .LASF907
 9334 4164 58       	 .byte 0x58
 9335 4165 75       	 .byte 0x75
 9336 4166 26       	 .byte 0x26
ARM GAS   			page 169


 9337 4167 812C0000 	 .4byte 0x2c81
 9338 416b 00       	 .byte 0
 9339 416c 02       	 .uleb128 0x2
 9340 416d B3280000 	 .4byte .LASF693
 9341 4171 58       	 .byte 0x58
 9342 4172 7A       	 .byte 0x7a
 9343 4173 26       	 .byte 0x26
 9344 4174 872F0000 	 .4byte 0x2f87
 9345 4178 0C       	 .byte 0xc
 9346 4179 02       	 .uleb128 0x2
 9347 417a 54160000 	 .4byte .LASF908
 9348 417e 58       	 .byte 0x58
 9349 417f 7F       	 .byte 0x7f
 9350 4180 26       	 .byte 0x26
 9351 4181 91030000 	 .4byte 0x391
 9352 4185 10       	 .byte 0x10
 9353 4186 02       	 .uleb128 0x2
 9354 4187 DC2A0000 	 .4byte .LASF909
 9355 418b 58       	 .byte 0x58
 9356 418c 82       	 .byte 0x82
 9357 418d 26       	 .byte 0x26
 9358 418e 91030000 	 .4byte 0x391
 9359 4192 14       	 .byte 0x14
 9360 4193 02       	 .uleb128 0x2
 9361 4194 840D0000 	 .4byte .LASF910
 9362 4198 58       	 .byte 0x58
 9363 4199 86       	 .byte 0x86
 9364 419a 26       	 .byte 0x26
 9365 419b C3000000 	 .4byte 0xc3
 9366 419f 18       	 .byte 0x18
 9367 41a0 02       	 .uleb128 0x2
 9368 41a1 780F0000 	 .4byte .LASF911
 9369 41a5 58       	 .byte 0x58
 9370 41a6 8A       	 .byte 0x8a
 9371 41a7 26       	 .byte 0x26
 9372 41a8 970A0000 	 .4byte 0xa97
 9373 41ac 1C       	 .byte 0x1c
 9374 41ad 02       	 .uleb128 0x2
 9375 41ae 93460000 	 .4byte .LASF912
 9376 41b2 58       	 .byte 0x58
 9377 41b3 8F       	 .byte 0x8f
 9378 41b4 26       	 .byte 0x26
 9379 41b5 08420000 	 .4byte 0x4208
 9380 41b9 28       	 .byte 0x28
 9381 41ba 02       	 .uleb128 0x2
 9382 41bb D3240000 	 .4byte .LASF913
 9383 41bf 58       	 .byte 0x58
 9384 41c0 98       	 .byte 0x98
 9385 41c1 26       	 .byte 0x26
 9386 41c2 9E060000 	 .4byte 0x69e
 9387 41c6 2C       	 .byte 0x2c
 9388 41c7 02       	 .uleb128 0x2
 9389 41c8 18210000 	 .4byte .LASF914
 9390 41cc 58       	 .byte 0x58
 9391 41cd 9E       	 .byte 0x9e
 9392 41ce 28       	 .byte 0x28
 9393 41cf E2410000 	 .4byte 0x41e2
ARM GAS   			page 170


 9394 41d3 30       	 .byte 0x30
 9395 41d4 02       	 .uleb128 0x2
 9396 41d5 990B0000 	 .4byte .LASF915
 9397 41d9 58       	 .byte 0x58
 9398 41da A3       	 .byte 0xa3
 9399 41db 26       	 .byte 0x26
 9400 41dc 970A0000 	 .4byte 0xa97
 9401 41e0 34       	 .byte 0x34
 9402 41e1 00       	 .byte 0
 9403 41e2 04       	 .uleb128 0x4
 9404 41e3 E71E0000 	 .4byte .LASF916
 9405 41e7 58       	 .byte 0x58
 9406 41e8 65       	 .byte 0x65
 9407 41e9 12       	 .byte 0x12
 9408 41ea EE410000 	 .4byte 0x41ee
 9409 41ee 05       	 .uleb128 0x5
 9410 41ef F3410000 	 .4byte 0x41f3
 9411 41f3 0E       	 .uleb128 0xe
 9412 41f4 03420000 	 .4byte 0x4203
 9413 41f8 01       	 .uleb128 0x1
 9414 41f9 03420000 	 .4byte 0x4203
 9415 41fd 01       	 .uleb128 0x1
 9416 41fe 962A0000 	 .4byte 0x2a96
 9417 4202 00       	 .byte 0
 9418 4203 05       	 .uleb128 0x5
 9419 4204 46410000 	 .4byte 0x4146
 9420 4208 05       	 .uleb128 0x5
 9421 4209 910D0000 	 .4byte 0xd91
 9422 420d 09       	 .uleb128 0x9
 9423 420e 50       	 .byte 0x50
 9424 420f 59       	 .byte 0x59
 9425 4210 3A       	 .byte 0x3a
 9426 4211 09       	 .byte 0x9
 9427 4212 31420000 	 .4byte 0x4231
 9428 4216 02       	 .uleb128 0x2
 9429 4217 D20E0000 	 .4byte .LASF38
 9430 421b 59       	 .byte 0x59
 9431 421c 3C       	 .byte 0x3c
 9432 421d 1F       	 .byte 0x1f
 9433 421e F0250000 	 .4byte 0x25f0
 9434 4222 00       	 .byte 0
 9435 4223 02       	 .uleb128 0x2
 9436 4224 00000000 	 .4byte .LASF917
 9437 4228 59       	 .byte 0x59
 9438 4229 3E       	 .byte 0x3e
 9439 422a 1F       	 .byte 0x1f
 9440 422b 46410000 	 .4byte 0x4146
 9441 422f 10       	 .byte 0x10
 9442 4230 00       	 .byte 0
 9443 4231 04       	 .uleb128 0x4
 9444 4232 89020000 	 .4byte .LASF918
 9445 4236 59       	 .byte 0x59
 9446 4237 43       	 .byte 0x43
 9447 4238 05       	 .byte 0x5
 9448 4239 0D420000 	 .4byte 0x420d
 9449 423d 06       	 .uleb128 0x6
 9450 423e 3A3A0000 	 .4byte .LASF919
ARM GAS   			page 171


 9451 4242 59       	 .byte 0x59
 9452 4243 48       	 .byte 0x48
 9453 4244 1C       	 .byte 0x1c
 9454 4245 98260000 	 .4byte 0x2698
 9455 4249 09       	 .uleb128 0x9
 9456 424a 30       	 .byte 0x30
 9457 424b 5A       	 .byte 0x5a
 9458 424c 39       	 .byte 0x39
 9459 424d 09       	 .byte 0x9
 9460 424e AE420000 	 .4byte 0x42ae
 9461 4252 02       	 .uleb128 0x2
 9462 4253 D20E0000 	 .4byte .LASF38
 9463 4257 5A       	 .byte 0x5a
 9464 4258 3D       	 .byte 0x3d
 9465 4259 13       	 .byte 0x13
 9466 425a F0250000 	 .4byte 0x25f0
 9467 425e 00       	 .byte 0
 9468 425f 02       	 .uleb128 0x2
 9469 4260 2B0F0000 	 .4byte .LASF920
 9470 4264 5A       	 .byte 0x5a
 9471 4265 4D       	 .byte 0x4d
 9472 4266 0F       	 .byte 0xf
 9473 4267 73030000 	 .4byte 0x373
 9474 426b 10       	 .byte 0x10
 9475 426c 02       	 .uleb128 0x2
 9476 426d ED3A0000 	 .4byte .LASF921
 9477 4271 5A       	 .byte 0x5a
 9478 4272 55       	 .byte 0x55
 9479 4273 0F       	 .byte 0xf
 9480 4274 73030000 	 .4byte 0x373
 9481 4278 14       	 .byte 0x14
 9482 4279 02       	 .uleb128 0x2
 9483 427a AA400000 	 .4byte .LASF922
 9484 427e 5A       	 .byte 0x5a
 9485 427f 5A       	 .byte 0x5a
 9486 4280 0A       	 .byte 0xa
 9487 4281 C3000000 	 .4byte 0xc3
 9488 4285 18       	 .byte 0x18
 9489 4286 02       	 .uleb128 0x2
 9490 4287 240B0000 	 .4byte .LASF153
 9491 428b 5A       	 .byte 0x5a
 9492 428c 5F       	 .byte 0x5f
 9493 428d 13       	 .byte 0x13
 9494 428e D0030000 	 .4byte 0x3d0
 9495 4292 1C       	 .byte 0x1c
 9496 4293 02       	 .uleb128 0x2
 9497 4294 31320000 	 .4byte .LASF923
 9498 4298 5A       	 .byte 0x5a
 9499 4299 64       	 .byte 0x64
 9500 429a 0D       	 .byte 0xd
 9501 429b BF030000 	 .4byte 0x3bf
 9502 429f 20       	 .byte 0x20
 9503 42a0 02       	 .uleb128 0x2
 9504 42a1 F51C0000 	 .4byte .LASF924
 9505 42a5 5A       	 .byte 0x5a
 9506 42a6 69       	 .byte 0x69
 9507 42a7 11       	 .byte 0x11
ARM GAS   			page 172


 9508 42a8 970A0000 	 .4byte 0xa97
 9509 42ac 24       	 .byte 0x24
 9510 42ad 00       	 .byte 0
 9511 42ae 04       	 .uleb128 0x4
 9512 42af D8210000 	 .4byte .LASF925
 9513 42b3 5A       	 .byte 0x5a
 9514 42b4 6A       	 .byte 0x6a
 9515 42b5 03       	 .byte 0x3
 9516 42b6 49420000 	 .4byte 0x4249
 9517 42ba 06       	 .uleb128 0x6
 9518 42bb 29490000 	 .4byte .LASF926
 9519 42bf 5A       	 .byte 0x5a
 9520 42c0 74       	 .byte 0x74
 9521 42c1 1C       	 .byte 0x1c
 9522 42c2 98260000 	 .4byte 0x2698
 9523 42c6 09       	 .uleb128 0x9
 9524 42c7 0C       	 .byte 0xc
 9525 42c8 5B       	 .byte 0x5b
 9526 42c9 4A       	 .byte 0x4a
 9527 42ca 09       	 .byte 0x9
 9528 42cb DD420000 	 .4byte 0x42dd
 9529 42cf 02       	 .uleb128 0x2
 9530 42d0 B02B0000 	 .4byte .LASF907
 9531 42d4 5B       	 .byte 0x5b
 9532 42d5 50       	 .byte 0x50
 9533 42d6 18       	 .byte 0x18
 9534 42d7 812C0000 	 .4byte 0x2c81
 9535 42db 00       	 .byte 0
 9536 42dc 00       	 .byte 0
 9537 42dd 04       	 .uleb128 0x4
 9538 42de 47440000 	 .4byte .LASF927
 9539 42e2 5B       	 .byte 0x5b
 9540 42e3 51       	 .byte 0x51
 9541 42e4 03       	 .byte 0x3
 9542 42e5 C6420000 	 .4byte 0x42c6
 9543 42e9 09       	 .uleb128 0x9
 9544 42ea 10       	 .byte 0x10
 9545 42eb 5B       	 .byte 0x5b
 9546 42ec 56       	 .byte 0x56
 9547 42ed 09       	 .byte 0x9
 9548 42ee 0D430000 	 .4byte 0x430d
 9549 42f2 02       	 .uleb128 0x2
 9550 42f3 8A140000 	 .4byte .LASF928
 9551 42f7 5B       	 .byte 0x5b
 9552 42f8 5A       	 .byte 0x5a
 9553 42f9 16       	 .byte 0x16
 9554 42fa DD420000 	 .4byte 0x42dd
 9555 42fe 00       	 .byte 0
 9556 42ff 02       	 .uleb128 0x2
 9557 4300 7D070000 	 .4byte .LASF929
 9558 4304 5B       	 .byte 0x5b
 9559 4305 5F       	 .byte 0x5f
 9560 4306 10       	 .byte 0x10
 9561 4307 2D000000 	 .4byte 0x2d
 9562 430b 0C       	 .byte 0xc
 9563 430c 00       	 .byte 0
 9564 430d 04       	 .uleb128 0x4
ARM GAS   			page 173


 9565 430e D5040000 	 .4byte .LASF930
 9566 4312 5B       	 .byte 0x5b
 9567 4313 60       	 .byte 0x60
 9568 4314 03       	 .byte 0x3
 9569 4315 E9420000 	 .4byte 0x42e9
 9570 4319 09       	 .uleb128 0x9
 9571 431a 28       	 .byte 0x28
 9572 431b 5B       	 .byte 0x5b
 9573 431c 65       	 .byte 0x65
 9574 431d 09       	 .byte 0x9
 9575 431e 3D430000 	 .4byte 0x433d
 9576 4322 02       	 .uleb128 0x2
 9577 4323 61340000 	 .4byte .LASF931
 9578 4327 5B       	 .byte 0x5b
 9579 4328 69       	 .byte 0x69
 9580 4329 20       	 .byte 0x20
 9581 432a 0D430000 	 .4byte 0x430d
 9582 432e 00       	 .byte 0
 9583 432f 02       	 .uleb128 0x2
 9584 4330 511D0000 	 .4byte .LASF932
 9585 4334 5B       	 .byte 0x5b
 9586 4335 6E       	 .byte 0x6e
 9587 4336 11       	 .byte 0x11
 9588 4337 E3270000 	 .4byte 0x27e3
 9589 433b 10       	 .byte 0x10
 9590 433c 00       	 .byte 0
 9591 433d 04       	 .uleb128 0x4
 9592 433e AF3A0000 	 .4byte .LASF933
 9593 4342 5B       	 .byte 0x5b
 9594 4343 76       	 .byte 0x76
 9595 4344 03       	 .byte 0x3
 9596 4345 19430000 	 .4byte 0x4319
 9597 4349 09       	 .uleb128 0x9
 9598 434a 10       	 .byte 0x10
 9599 434b 5C       	 .byte 0x5c
 9600 434c 40       	 .byte 0x40
 9601 434d 09       	 .byte 0x9
 9602 434e 6D430000 	 .4byte 0x436d
 9603 4352 02       	 .uleb128 0x2
 9604 4353 B02B0000 	 .4byte .LASF907
 9605 4357 5C       	 .byte 0x5c
 9606 4358 44       	 .byte 0x44
 9607 4359 1F       	 .byte 0x1f
 9608 435a 812C0000 	 .4byte 0x2c81
 9609 435e 00       	 .byte 0
 9610 435f 02       	 .uleb128 0x2
 9611 4360 D2250000 	 .4byte .LASF708
 9612 4364 5C       	 .byte 0x5c
 9613 4365 47       	 .byte 0x47
 9614 4366 1F       	 .byte 0x1f
 9615 4367 91030000 	 .4byte 0x391
 9616 436b 0C       	 .byte 0xc
 9617 436c 00       	 .byte 0
 9618 436d 04       	 .uleb128 0x4
 9619 436e CF080000 	 .4byte .LASF934
 9620 4372 5C       	 .byte 0x5c
 9621 4373 48       	 .byte 0x48
ARM GAS   			page 174


 9622 4374 05       	 .byte 0x5
 9623 4375 49430000 	 .4byte 0x4349
 9624 4379 20       	 .uleb128 0x20
 9625 437a 28       	 .byte 0x28
 9626 437b 5D       	 .byte 0x5d
 9627 437c 51       	 .byte 0x51
 9628 437d 03       	 .byte 0x3
 9629 437e A7430000 	 .4byte 0x43a7
 9630 4382 15       	 .uleb128 0x15
 9631 4383 B02B0000 	 .4byte .LASF907
 9632 4387 5D       	 .byte 0x5d
 9633 4388 55       	 .byte 0x55
 9634 4389 1A       	 .byte 0x1a
 9635 438a 812C0000 	 .4byte 0x2c81
 9636 438e 15       	 .uleb128 0x15
 9637 438f 8A140000 	 .4byte .LASF928
 9638 4393 5D       	 .byte 0x5d
 9639 4394 5B       	 .byte 0x5b
 9640 4395 20       	 .byte 0x20
 9641 4396 3D430000 	 .4byte 0x433d
 9642 439a 15       	 .uleb128 0x15
 9643 439b 72350000 	 .4byte .LASF935
 9644 439f 5D       	 .byte 0x5d
 9645 43a0 61       	 .byte 0x61
 9646 43a1 1C       	 .byte 0x1c
 9647 43a2 6D430000 	 .4byte 0x436d
 9648 43a6 00       	 .byte 0
 9649 43a7 09       	 .uleb128 0x9
 9650 43a8 38       	 .byte 0x38
 9651 43a9 5D       	 .byte 0x5d
 9652 43aa 3C       	 .byte 0x3c
 9653 43ab 09       	 .byte 0x9
 9654 43ac CB430000 	 .4byte 0x43cb
 9655 43b0 02       	 .uleb128 0x2
 9656 43b1 D20E0000 	 .4byte .LASF38
 9657 43b5 5D       	 .byte 0x5d
 9658 43b6 46       	 .byte 0x46
 9659 43b7 1C       	 .byte 0x1c
 9660 43b8 F0250000 	 .4byte 0x25f0
 9661 43bc 00       	 .byte 0
 9662 43bd 02       	 .uleb128 0x2
 9663 43be CB010000 	 .4byte .LASF936
 9664 43c2 5D       	 .byte 0x5d
 9665 43c3 66       	 .byte 0x66
 9666 43c4 05       	 .byte 0x5
 9667 43c5 79430000 	 .4byte 0x4379
 9668 43c9 10       	 .byte 0x10
 9669 43ca 00       	 .byte 0
 9670 43cb 04       	 .uleb128 0x4
 9671 43cc 61100000 	 .4byte .LASF937
 9672 43d0 5D       	 .byte 0x5d
 9673 43d1 67       	 .byte 0x67
 9674 43d2 05       	 .byte 0x5
 9675 43d3 A7430000 	 .4byte 0x43a7
 9676 43d7 06       	 .uleb128 0x6
 9677 43d8 0D0B0000 	 .4byte .LASF938
 9678 43dc 5D       	 .byte 0x5d
ARM GAS   			page 175


 9679 43dd 6C       	 .byte 0x6c
 9680 43de 1C       	 .byte 0x1c
 9681 43df 98260000 	 .4byte 0x2698
 9682 43e3 09       	 .uleb128 0x9
 9683 43e4 48       	 .byte 0x48
 9684 43e5 5E       	 .byte 0x5e
 9685 43e6 3D       	 .byte 0x3d
 9686 43e7 09       	 .byte 0x9
 9687 43e8 55440000 	 .4byte 0x4455
 9688 43ec 02       	 .uleb128 0x2
 9689 43ed D20E0000 	 .4byte .LASF38
 9690 43f1 5E       	 .byte 0x5e
 9691 43f2 3F       	 .byte 0x3f
 9692 43f3 14       	 .byte 0x14
 9693 43f4 F0250000 	 .4byte 0x25f0
 9694 43f8 00       	 .byte 0
 9695 43f9 02       	 .uleb128 0x2
 9696 43fa C9000000 	 .4byte .LASF939
 9697 43fe 5E       	 .byte 0x5e
 9698 43ff 41       	 .byte 0x41
 9699 4400 14       	 .byte 0x14
 9700 4401 12220000 	 .4byte 0x2212
 9701 4405 10       	 .byte 0x10
 9702 4406 02       	 .uleb128 0x2
 9703 4407 C2300000 	 .4byte .LASF940
 9704 440b 5E       	 .byte 0x5e
 9705 440c 43       	 .byte 0x43
 9706 440d 14       	 .byte 0x14
 9707 440e EF0D0000 	 .4byte 0xdef
 9708 4412 30       	 .byte 0x30
 9709 4413 02       	 .uleb128 0x2
 9710 4414 9E060000 	 .4byte .LASF546
 9711 4418 5E       	 .byte 0x5e
 9712 4419 45       	 .byte 0x45
 9713 441a 25       	 .byte 0x25
 9714 441b FB0D0000 	 .4byte 0xdfb
 9715 441f 34       	 .byte 0x34
 9716 4420 02       	 .uleb128 0x2
 9717 4421 A62B0000 	 .4byte .LASF941
 9718 4425 5E       	 .byte 0x5e
 9719 4426 47       	 .byte 0x47
 9720 4427 09       	 .byte 0x9
 9721 4428 DB000000 	 .4byte 0xdb
 9722 442c 38       	 .byte 0x38
 9723 442d 02       	 .uleb128 0x2
 9724 442e 48190000 	 .4byte .LASF763
 9725 4432 5E       	 .byte 0x5e
 9726 4433 49       	 .byte 0x49
 9727 4434 15       	 .byte 0x15
 9728 4435 19060000 	 .4byte 0x619
 9729 4439 3C       	 .byte 0x3c
 9730 443a 02       	 .uleb128 0x2
 9731 443b 16120000 	 .4byte .LASF942
 9732 443f 5E       	 .byte 0x5e
 9733 4440 4B       	 .byte 0x4b
 9734 4441 15       	 .byte 0x15
 9735 4442 19060000 	 .4byte 0x619
ARM GAS   			page 176


 9736 4446 40       	 .byte 0x40
 9737 4447 02       	 .uleb128 0x2
 9738 4448 580C0000 	 .4byte .LASF943
 9739 444c 5E       	 .byte 0x5e
 9740 444d 4D       	 .byte 0x4d
 9741 444e 15       	 .byte 0x15
 9742 444f 19060000 	 .4byte 0x619
 9743 4453 44       	 .byte 0x44
 9744 4454 00       	 .byte 0
 9745 4455 04       	 .uleb128 0x4
 9746 4456 2D340000 	 .4byte .LASF944
 9747 445a 5E       	 .byte 0x5e
 9748 445b 4E       	 .byte 0x4e
 9749 445c 05       	 .byte 0x5
 9750 445d E3430000 	 .4byte 0x43e3
 9751 4461 06       	 .uleb128 0x6
 9752 4462 B92D0000 	 .4byte .LASF945
 9753 4466 5E       	 .byte 0x5e
 9754 4467 53       	 .byte 0x53
 9755 4468 1D       	 .byte 0x1d
 9756 4469 98260000 	 .4byte 0x2698
 9757 446d 0A       	 .uleb128 0xa
 9758 446e 59270000 	 .4byte 0x2759
 9759 4472 7D440000 	 .4byte 0x447d
 9760 4476 0D       	 .uleb128 0xd
 9761 4477 2D000000 	 .4byte 0x2d
 9762 447b 7F       	 .byte 0x7f
 9763 447c 00       	 .byte 0
 9764 447d 14       	 .uleb128 0x14
 9765 447e F8380000 	 .4byte .LASF946
 9766 4482 5F       	 .byte 0x5f
 9767 4483 5C       	 .byte 0x5c
 9768 4484 03       	 .byte 0x3
 9769 4485 6D440000 	 .4byte 0x446d
 9770 4489 05       	 .uleb128 0x5
 9771 448a 03       	 .byte 0x3
 9772 448b 9C110000 	 .4byte _Message_queue_Local_table
 9773 448f 0A       	 .uleb128 0xa
 9774 4490 31420000 	 .4byte 0x4231
 9775 4494 9F440000 	 .4byte 0x449f
 9776 4498 0D       	 .uleb128 0xd
 9777 4499 2D000000 	 .4byte 0x2d
 9778 449d 7F       	 .byte 0x7f
 9779 449e 00       	 .byte 0
 9780 449f 14       	 .uleb128 0x14
 9781 44a0 0C260000 	 .4byte .LASF947
 9782 44a4 5F       	 .byte 0x5f
 9783 44a5 5C       	 .byte 0x5c
 9784 44a6 03       	 .byte 0x3
 9785 44a7 8F440000 	 .4byte 0x448f
 9786 44ab 05       	 .uleb128 0x5
 9787 44ac 03       	 .byte 0x3
 9788 44ad 00000000 	 .4byte _Message_queue_Objects
 9789 44b1 0F       	 .uleb128 0xf
 9790 44b2 3D420000 	 .4byte 0x423d
 9791 44b6 5F       	 .byte 0x5f
 9792 44b7 5C       	 .byte 0x5c
ARM GAS   			page 177


 9793 44b8 03       	 .byte 0x3
 9794 44b9 05       	 .uleb128 0x5
 9795 44ba 03       	 .byte 0x3
 9796 44bb 00000000 	 .4byte _Message_queue_Information
 9797 44bf 0A       	 .uleb128 0xa
 9798 44c0 59270000 	 .4byte 0x2759
 9799 44c4 CF440000 	 .4byte 0x44cf
 9800 44c8 0D       	 .uleb128 0xd
 9801 44c9 2D000000 	 .4byte 0x2d
 9802 44cd 01       	 .byte 0x1
 9803 44ce 00       	 .byte 0
 9804 44cf 14       	 .uleb128 0x14
 9805 44d0 FA230000 	 .4byte .LASF948
 9806 44d4 5F       	 .byte 0x5f
 9807 44d5 60       	 .byte 0x60
 9808 44d6 03       	 .byte 0x3
 9809 44d7 BF440000 	 .4byte 0x44bf
 9810 44db 05       	 .uleb128 0x5
 9811 44dc 03       	 .byte 0x3
 9812 44dd 94110000 	 .4byte _Partition_Local_table
 9813 44e1 0A       	 .uleb128 0xa
 9814 44e2 AE420000 	 .4byte 0x42ae
 9815 44e6 F1440000 	 .4byte 0x44f1
 9816 44ea 0D       	 .uleb128 0xd
 9817 44eb 2D000000 	 .4byte 0x2d
 9818 44ef 01       	 .byte 0x1
 9819 44f0 00       	 .byte 0
 9820 44f1 14       	 .uleb128 0x14
 9821 44f2 15330000 	 .4byte .LASF949
 9822 44f6 5F       	 .byte 0x5f
 9823 44f7 60       	 .byte 0x60
 9824 44f8 03       	 .byte 0x3
 9825 44f9 E1440000 	 .4byte 0x44e1
 9826 44fd 05       	 .uleb128 0x5
 9827 44fe 03       	 .byte 0x3
 9828 44ff 00000000 	 .4byte _Partition_Objects
 9829 4503 0F       	 .uleb128 0xf
 9830 4504 BA420000 	 .4byte 0x42ba
 9831 4508 5F       	 .byte 0x5f
 9832 4509 60       	 .byte 0x60
 9833 450a 03       	 .byte 0x3
 9834 450b 05       	 .uleb128 0x5
 9835 450c 03       	 .byte 0x3
 9836 450d 00000000 	 .4byte _Partition_Information
 9837 4511 0A       	 .uleb128 0xa
 9838 4512 59270000 	 .4byte 0x2759
 9839 4516 22450000 	 .4byte 0x4522
 9840 451a 2E       	 .uleb128 0x2e
 9841 451b 2D000000 	 .4byte 0x2d
 9842 451f FF01     	 .2byte 0x1ff
 9843 4521 00       	 .byte 0
 9844 4522 14       	 .uleb128 0x14
 9845 4523 2B030000 	 .4byte .LASF950
 9846 4527 5F       	 .byte 0x5f
 9847 4528 70       	 .byte 0x70
 9848 4529 03       	 .byte 0x3
 9849 452a 11450000 	 .4byte 0x4511
ARM GAS   			page 178


 9850 452e 05       	 .uleb128 0x5
 9851 452f 03       	 .byte 0x3
 9852 4530 94090000 	 .4byte _Semaphore_Local_table
 9853 4534 0A       	 .uleb128 0xa
 9854 4535 CB430000 	 .4byte 0x43cb
 9855 4539 45450000 	 .4byte 0x4545
 9856 453d 2E       	 .uleb128 0x2e
 9857 453e 2D000000 	 .4byte 0x2d
 9858 4542 FF01     	 .2byte 0x1ff
 9859 4544 00       	 .byte 0
 9860 4545 14       	 .uleb128 0x14
 9861 4546 9F020000 	 .4byte .LASF951
 9862 454a 5F       	 .byte 0x5f
 9863 454b 70       	 .byte 0x70
 9864 454c 03       	 .byte 0x3
 9865 454d 34450000 	 .4byte 0x4534
 9866 4551 05       	 .uleb128 0x5
 9867 4552 03       	 .byte 0x3
 9868 4553 00000000 	 .4byte _Semaphore_Objects
 9869 4557 0F       	 .uleb128 0xf
 9870 4558 D7430000 	 .4byte 0x43d7
 9871 455c 5F       	 .byte 0x5f
 9872 455d 70       	 .byte 0x70
 9873 455e 03       	 .byte 0x3
 9874 455f 05       	 .uleb128 0x5
 9875 4560 03       	 .byte 0x3
 9876 4561 00000000 	 .4byte _Semaphore_Information
 9877 4565 0A       	 .uleb128 0xa
 9878 4566 59270000 	 .4byte 0x2759
 9879 456a 75450000 	 .4byte 0x4575
 9880 456e 0D       	 .uleb128 0xd
 9881 456f 2D000000 	 .4byte 0x2d
 9882 4573 04       	 .byte 0x4
 9883 4574 00       	 .byte 0
 9884 4575 14       	 .uleb128 0x14
 9885 4576 471A0000 	 .4byte .LASF952
 9886 457a 5F       	 .byte 0x5f
 9887 457b 77       	 .byte 0x77
 9888 457c 03       	 .byte 0x3
 9889 457d 65450000 	 .4byte 0x4565
 9890 4581 05       	 .uleb128 0x5
 9891 4582 03       	 .byte 0x3
 9892 4583 80090000 	 .4byte _Timer_Local_table
 9893 4587 0A       	 .uleb128 0xa
 9894 4588 55440000 	 .4byte 0x4455
 9895 458c 97450000 	 .4byte 0x4597
 9896 4590 0D       	 .uleb128 0xd
 9897 4591 2D000000 	 .4byte 0x2d
 9898 4595 04       	 .byte 0x4
 9899 4596 00       	 .byte 0
 9900 4597 14       	 .uleb128 0x14
 9901 4598 9E1A0000 	 .4byte .LASF953
 9902 459c 5F       	 .byte 0x5f
 9903 459d 77       	 .byte 0x77
 9904 459e 03       	 .byte 0x3
 9905 459f 87450000 	 .4byte 0x4587
 9906 45a3 05       	 .uleb128 0x5
ARM GAS   			page 179


 9907 45a4 03       	 .byte 0x3
 9908 45a5 00000000 	 .4byte _Timer_Objects
 9909 45a9 0F       	 .uleb128 0xf
 9910 45aa 61440000 	 .4byte 0x4461
 9911 45ae 5F       	 .byte 0x5f
 9912 45af 77       	 .byte 0x77
 9913 45b0 03       	 .byte 0x3
 9914 45b1 05       	 .uleb128 0x5
 9915 45b2 03       	 .byte 0x3
 9916 45b3 00000000 	 .4byte _Timer_Information
 9917 45b7 09       	 .uleb128 0x9
 9918 45b8 24       	 .byte 0x24
 9919 45b9 60       	 .byte 0x60
 9920 45ba 41       	 .byte 0x41
 9921 45bb 09       	 .byte 0x9
 9922 45bc 02460000 	 .4byte 0x4602
 9923 45c0 02       	 .uleb128 0x2
 9924 45c1 E80F0000 	 .4byte .LASF954
 9925 45c5 60       	 .byte 0x60
 9926 45c6 45       	 .byte 0x45
 9927 45c7 0E       	 .byte 0xe
 9928 45c8 1C0A0000 	 .4byte 0xa1c
 9929 45cc 00       	 .byte 0
 9930 45cd 02       	 .uleb128 0x2
 9931 45ce 863D0000 	 .4byte .LASF955
 9932 45d2 60       	 .byte 0x60
 9933 45d3 4A       	 .byte 0x4a
 9934 45d4 0F       	 .byte 0xf
 9935 45d5 DF210000 	 .4byte 0x21df
 9936 45d9 08       	 .byte 0x8
 9937 45da 22       	 .uleb128 0x22
 9938 45db 6B657900 	 .ascii "key\000"
 9939 45df 60       	 .byte 0x60
 9940 45e0 4F       	 .byte 0x4f
 9941 45e1 11       	 .byte 0x11
 9942 45e2 080D0000 	 .4byte 0xd08
 9943 45e6 18       	 .byte 0x18
 9944 45e7 02       	 .uleb128 0x2
 9945 45e8 9C0C0000 	 .4byte .LASF846
 9946 45ec 60       	 .byte 0x60
 9947 45ed 54       	 .byte 0x54
 9948 45ee 13       	 .byte 0x13
 9949 45ef 8C2A0000 	 .4byte 0x2a8c
 9950 45f3 1C       	 .byte 0x1c
 9951 45f4 02       	 .uleb128 0x2
 9952 45f5 98140000 	 .4byte .LASF644
 9953 45f9 60       	 .byte 0x60
 9954 45fa 59       	 .byte 0x59
 9955 45fb 09       	 .byte 0x9
 9956 45fc DB000000 	 .4byte 0xdb
 9957 4600 20       	 .byte 0x20
 9958 4601 00       	 .byte 0
 9959 4602 04       	 .uleb128 0x4
 9960 4603 AD3F0000 	 .4byte .LASF956
 9961 4607 60       	 .byte 0x60
 9962 4608 5A       	 .byte 0x5a
 9963 4609 03       	 .byte 0x3
ARM GAS   			page 180


 9964 460a B7450000 	 .4byte 0x45b7
 9965 460e 0A       	 .uleb128 0xa
 9966 460f 02460000 	 .4byte 0x4602
 9967 4613 19460000 	 .4byte 0x4619
 9968 4617 1C       	 .uleb128 0x1c
 9969 4618 00       	 .byte 0
 9970 4619 06       	 .uleb128 0x6
 9971 461a 64090000 	 .4byte .LASF957
 9972 461e 60       	 .byte 0x60
 9973 461f 64       	 .byte 0x64
 9974 4620 22       	 .byte 0x22
 9975 4621 0E460000 	 .4byte 0x460e
 9976 4625 06       	 .uleb128 0x6
 9977 4626 513E0000 	 .4byte .LASF958
 9978 462a 60       	 .byte 0x60
 9979 462b 6C       	 .byte 0x6c
 9980 462c 17       	 .byte 0x17
 9981 462d 9D030000 	 .4byte 0x39d
 9982 4631 09       	 .uleb128 0x9
 9983 4632 20       	 .byte 0x20
 9984 4633 60       	 .byte 0x60
 9985 4634 71       	 .byte 0x71
 9986 4635 09       	 .byte 0x9
 9987 4636 62460000 	 .4byte 0x4662
 9988 463a 02       	 .uleb128 0x2
 9989 463b D20E0000 	 .4byte .LASF38
 9990 463f 60       	 .byte 0x60
 9991 4640 73       	 .byte 0x73
 9992 4641 18       	 .byte 0x18
 9993 4642 F0250000 	 .4byte 0x25f0
 9994 4646 00       	 .byte 0
 9995 4647 02       	 .uleb128 0x2
 9996 4648 822A0000 	 .4byte .LASF959
 9997 464c 60       	 .byte 0x60
 9998 464d 75       	 .byte 0x75
 9999 464e 0B       	 .byte 0xb
 10000 464f 9E060000 	 .4byte 0x69e
 10001 4653 10       	 .byte 0x10
 10002 4654 02       	 .uleb128 0x2
 10003 4655 0E000000 	 .4byte .LASF722
 10004 4659 60       	 .byte 0x60
 10005 465a 7A       	 .byte 0x7a
 10006 465b 12       	 .byte 0x12
 10007 465c 970A0000 	 .4byte 0xa97
 10008 4660 14       	 .byte 0x14
 10009 4661 00       	 .byte 0
 10010 4662 04       	 .uleb128 0x4
 10011 4663 B9180000 	 .4byte .LASF960
 10012 4667 60       	 .byte 0x60
 10013 4668 7B       	 .byte 0x7b
 10014 4669 05       	 .byte 0x5
 10015 466a 31460000 	 .4byte 0x4631
 10016 466e 06       	 .uleb128 0x6
 10017 466f 84480000 	 .4byte .LASF961
 10018 4673 60       	 .byte 0x60
 10019 4674 80       	 .byte 0x80
 10020 4675 1C       	 .byte 0x1c
ARM GAS   			page 181


 10021 4676 98260000 	 .4byte 0x2698
 10022 467a 14       	 .uleb128 0x14
 10023 467b 53230000 	 .4byte .LASF962
 10024 467f 61       	 .byte 0x61
 10025 4680 6B       	 .byte 0x6b
 10026 4681 03       	 .byte 0x3
 10027 4682 B0340000 	 .4byte 0x34b0
 10028 4686 05       	 .uleb128 0x5
 10029 4687 03       	 .byte 0x3
 10030 4688 00090000 	 .4byte _POSIX_Keys_Local_table
 10031 468c 0A       	 .uleb128 0xa
 10032 468d 62460000 	 .4byte 0x4662
 10033 4691 9C460000 	 .4byte 0x469c
 10034 4695 0D       	 .uleb128 0xd
 10035 4696 2D000000 	 .4byte 0x2d
 10036 469a 1F       	 .byte 0x1f
 10037 469b 00       	 .byte 0
 10038 469c 14       	 .uleb128 0x14
 10039 469d 4C210000 	 .4byte .LASF963
 10040 46a1 61       	 .byte 0x61
 10041 46a2 6B       	 .byte 0x6b
 10042 46a3 03       	 .byte 0x3
 10043 46a4 8C460000 	 .4byte 0x468c
 10044 46a8 05       	 .uleb128 0x5
 10045 46a9 03       	 .byte 0x3
 10046 46aa 00000000 	 .4byte _POSIX_Keys_Objects
 10047 46ae 0F       	 .uleb128 0xf
 10048 46af 6E460000 	 .4byte 0x466e
 10049 46b3 61       	 .byte 0x61
 10050 46b4 6B       	 .byte 0x6b
 10051 46b5 03       	 .byte 0x3
 10052 46b6 05       	 .uleb128 0x5
 10053 46b7 03       	 .byte 0x3
 10054 46b8 00000000 	 .4byte _POSIX_Keys_Information
 10055 46bc 0A       	 .uleb128 0xa
 10056 46bd 02460000 	 .4byte 0x4602
 10057 46c1 CC460000 	 .4byte 0x46cc
 10058 46c5 0D       	 .uleb128 0xd
 10059 46c6 2D000000 	 .4byte 0x2d
 10060 46ca 3F       	 .byte 0x3f
 10061 46cb 00       	 .byte 0
 10062 46cc 21       	 .uleb128 0x21
 10063 46cd 19460000 	 .4byte 0x4619
 10064 46d1 61       	 .byte 0x61
 10065 46d2 6F       	 .byte 0x6f
 10066 46d3 1D       	 .byte 0x1d
 10067 46d4 BC460000 	 .4byte 0x46bc
 10068 46d8 05       	 .uleb128 0x5
 10069 46d9 03       	 .byte 0x3
 10070 46da 00000000 	 .4byte _POSIX_Keys_Key_value_pairs
 10071 46de 0F       	 .uleb128 0xf
 10072 46df 25460000 	 .4byte 0x4625
 10073 46e3 61       	 .byte 0x61
 10074 46e4 75       	 .byte 0x75
 10075 46e5 12       	 .byte 0x12
 10076 46e6 05       	 .uleb128 0x5
 10077 46e7 03       	 .byte 0x3
ARM GAS   			page 182


 10078 46e8 00000000 	 .4byte _POSIX_Keys_Key_value_pair_maximum
 10079 46ec 0F       	 .uleb128 0xf
 10080 46ed 4F0B0000 	 .4byte 0xb4f
 10081 46f1 62       	 .byte 0x62
 10082 46f2 98       	 .byte 0x98
 10083 46f3 11       	 .byte 0x11
 10084 46f4 05       	 .uleb128 0x5
 10085 46f5 03       	 .byte 0x3
 10086 46f6 00000000 	 .4byte _Workspace_Size
 10087 46fa 0F       	 .uleb128 0xf
 10088 46fb DD060000 	 .4byte 0x6dd
 10089 46ff 62       	 .byte 0x62
 10090 4700 A1       	 .byte 0xa1
 10091 4701 0A       	 .byte 0xa
 10092 4702 05       	 .uleb128 0x5
 10093 4703 03       	 .byte 0x3
 10094 4704 00000000 	 .4byte rtems_minimum_stack_size
 10095 4708 0F       	 .uleb128 0xf
 10096 4709 E9060000 	 .4byte 0x6e9
 10097 470d 62       	 .byte 0x62
 10098 470e A3       	 .byte 0xa3
 10099 470f 11       	 .byte 0x11
 10100 4710 05       	 .uleb128 0x5
 10101 4711 03       	 .byte 0x3
 10102 4712 00000000 	 .4byte _Stack_Space_size
 10103 4716 2A       	 .uleb128 0x2a
 10104 4717 0C070000 	 .4byte 0x70c
 10105 471b 62       	 .byte 0x62
 10106 471c 0101     	 .2byte 0x101
 10107 471e 29       	 .byte 0x29
 10108 471f 05       	 .uleb128 0x5
 10109 4720 03       	 .byte 0x3
 10110 4721 00000000 	 .4byte _Stack_Allocator_allocate_for_idle
 10111 4725 06       	 .uleb128 0x6
 10112 4726 0B2E0000 	 .4byte .LASF964
 10113 472a 01       	 .byte 0x1
 10114 472b 1E       	 .byte 0x1e
 10115 472c 0F       	 .byte 0xf
 10116 472d 74000000 	 .4byte 0x74
 10117 4731 06       	 .uleb128 0x6
 10118 4732 DB3F0000 	 .4byte .LASF965
 10119 4736 01       	 .byte 0x1
 10120 4737 1F       	 .byte 0x1f
 10121 4738 0F       	 .byte 0xf
 10122 4739 74000000 	 .4byte 0x74
 10123 473d 10       	 .uleb128 0x10
 10124 473e FA000000 	 .4byte .LASF966
 10125 4742 12       	 .byte 0x12
 10126 4743 BC       	 .byte 0xbc
 10127 4744 07       	 .byte 0x7
 10128 4745 DB000000 	 .4byte 0xdb
 10129 4749 58470000 	 .4byte 0x4758
 10130 474d 01       	 .uleb128 0x1
 10131 474e 91030000 	 .4byte 0x391
 10132 4752 01       	 .uleb128 0x1
 10133 4753 D8060000 	 .4byte 0x6d8
 10134 4757 00       	 .byte 0
ARM GAS   			page 183


 10135 4758 34       	 .uleb128 0x34
 10136 4759 B1040000 	 .4byte .LASF989
 10137 475d 55       	 .byte 0x55
 10138 475e 4F02     	 .2byte 0x24f
 10139 4760 12       	 .uleb128 0x12
 10140 4761 80090000 	 .4byte .LASF967
 10141 4765 2D       	 .byte 0x2d
 10142 4766 C802     	 .2byte 0x2c8
 10143 4768 05       	 .byte 0x5
 10144 4769 74000000 	 .4byte 0x74
 10145 476d 7C470000 	 .4byte 0x477c
 10146 4771 01       	 .uleb128 0x1
 10147 4772 82150000 	 .4byte 0x1582
 10148 4776 01       	 .uleb128 0x1
 10149 4777 EB170000 	 .4byte 0x17eb
 10150 477b 00       	 .byte 0
 10151 477c 12       	 .uleb128 0x12
 10152 477d DA110000 	 .4byte .LASF968
 10153 4781 56       	 .byte 0x56
 10154 4782 D903     	 .2byte 0x3d9
 10155 4784 0C       	 .byte 0xc
 10156 4785 74000000 	 .4byte 0x74
 10157 4789 A7470000 	 .4byte 0x47a7
 10158 478d 01       	 .uleb128 0x1
 10159 478e 82150000 	 .4byte 0x1582
 10160 4792 01       	 .uleb128 0x1
 10161 4793 82150000 	 .4byte 0x1582
 10162 4797 01       	 .uleb128 0x1
 10163 4798 82150000 	 .4byte 0x1582
 10164 479c 01       	 .uleb128 0x1
 10165 479d 3F030000 	 .4byte 0x33f
 10166 47a1 01       	 .uleb128 0x1
 10167 47a2 C3000000 	 .4byte 0xc3
 10168 47a6 00       	 .byte 0
 10169 47a7 12       	 .uleb128 0x12
 10170 47a8 CC020000 	 .4byte .LASF969
 10171 47ac 56       	 .byte 0x56
 10172 47ad CD03     	 .2byte 0x3cd
 10173 47af 10       	 .byte 0x10
 10174 47b0 67030000 	 .4byte 0x367
 10175 47b4 C8470000 	 .4byte 0x47c8
 10176 47b8 01       	 .uleb128 0x1
 10177 47b9 82150000 	 .4byte 0x1582
 10178 47bd 01       	 .uleb128 0x1
 10179 47be 56030000 	 .4byte 0x356
 10180 47c2 01       	 .uleb128 0x1
 10181 47c3 C3000000 	 .4byte 0xc3
 10182 47c7 00       	 .byte 0
 10183 47c8 12       	 .uleb128 0x12
 10184 47c9 F7080000 	 .4byte .LASF970
 10185 47cd 56       	 .byte 0x56
 10186 47ce BF03     	 .2byte 0x3bf
 10187 47d0 0C       	 .byte 0xc
 10188 47d1 74000000 	 .4byte 0x74
 10189 47d5 EE470000 	 .4byte 0x47ee
 10190 47d9 01       	 .uleb128 0x1
 10191 47da 82150000 	 .4byte 0x1582
ARM GAS   			page 184


 10192 47de 01       	 .uleb128 0x1
 10193 47df 3F030000 	 .4byte 0x33f
 10194 47e3 01       	 .uleb128 0x1
 10195 47e4 C3000000 	 .4byte 0xc3
 10196 47e8 01       	 .uleb128 0x1
 10197 47e9 3F030000 	 .4byte 0x33f
 10198 47ed 00       	 .byte 0
 10199 47ee 12       	 .uleb128 0x12
 10200 47ef DF290000 	 .4byte .LASF971
 10201 47f3 56       	 .byte 0x56
 10202 47f4 AB03     	 .2byte 0x3ab
 10203 47f6 0C       	 .byte 0xc
 10204 47f7 74000000 	 .4byte 0x74
 10205 47fb 0A480000 	 .4byte 0x480a
 10206 47ff 01       	 .uleb128 0x1
 10207 4800 82150000 	 .4byte 0x1582
 10208 4804 01       	 .uleb128 0x1
 10209 4805 30170000 	 .4byte 0x1730
 10210 4809 00       	 .byte 0
 10211 480a 1D       	 .uleb128 0x1d
 10212 480b 5B260000 	 .4byte .LASF974
 10213 480f 2D       	 .byte 0x2d
 10214 4810 9102     	 .2byte 0x291
 10215 4812 06       	 .byte 0x6
 10216 4813 1D480000 	 .4byte 0x481d
 10217 4817 01       	 .uleb128 0x1
 10218 4818 36130000 	 .4byte 0x1336
 10219 481c 00       	 .byte 0
 10220 481d 12       	 .uleb128 0x12
 10221 481e 4C280000 	 .4byte .LASF972
 10222 4822 56       	 .byte 0x56
 10223 4823 6003     	 .2byte 0x360
 10224 4825 0C       	 .byte 0xc
 10225 4826 74000000 	 .4byte 0x74
 10226 482a 34480000 	 .4byte 0x4834
 10227 482e 01       	 .uleb128 0x1
 10228 482f 36130000 	 .4byte 0x1336
 10229 4833 00       	 .byte 0
 10230 4834 12       	 .uleb128 0x12
 10231 4835 0D180000 	 .4byte .LASF973
 10232 4839 56       	 .byte 0x56
 10233 483a 5903     	 .2byte 0x359
 10234 483c 0C       	 .byte 0xc
 10235 483d 74000000 	 .4byte 0x74
 10236 4841 4B480000 	 .4byte 0x484b
 10237 4845 01       	 .uleb128 0x1
 10238 4846 36130000 	 .4byte 0x1336
 10239 484a 00       	 .byte 0
 10240 484b 1D       	 .uleb128 0x1d
 10241 484c 85120000 	 .4byte .LASF975
 10242 4850 56       	 .byte 0x56
 10243 4851 F101     	 .2byte 0x1f1
 10244 4853 0D       	 .byte 0xd
 10245 4854 5E480000 	 .4byte 0x485e
 10246 4858 01       	 .uleb128 0x1
 10247 4859 82150000 	 .4byte 0x1582
 10248 485d 00       	 .byte 0
ARM GAS   			page 185


 10249 485e 12       	 .uleb128 0x12
 10250 485f F72A0000 	 .4byte .LASF976
 10251 4863 56       	 .byte 0x56
 10252 4864 EC01     	 .2byte 0x1ec
 10253 4866 0C       	 .byte 0xc
 10254 4867 74000000 	 .4byte 0x74
 10255 486b 75480000 	 .4byte 0x4875
 10256 486f 01       	 .uleb128 0x1
 10257 4870 F6150000 	 .4byte 0x15f6
 10258 4874 00       	 .byte 0
 10259 4875 12       	 .uleb128 0x12
 10260 4876 EA1C0000 	 .4byte .LASF977
 10261 487a 56       	 .byte 0x56
 10262 487b 2402     	 .2byte 0x224
 10263 487d 0C       	 .byte 0xc
 10264 487e 74000000 	 .4byte 0x74
 10265 4882 96480000 	 .4byte 0x4896
 10266 4886 01       	 .uleb128 0x1
 10267 4887 82150000 	 .4byte 0x1582
 10268 488b 01       	 .uleb128 0x1
 10269 488c 850C0000 	 .4byte 0xc85
 10270 4890 01       	 .uleb128 0x1
 10271 4891 910C0000 	 .4byte 0xc91
 10272 4895 00       	 .byte 0
 10273 4896 12       	 .uleb128 0x12
 10274 4897 F7180000 	 .4byte .LASF978
 10275 489b 56       	 .byte 0x56
 10276 489c B303     	 .2byte 0x3b3
 10277 489e 0C       	 .byte 0xc
 10278 489f 74000000 	 .4byte 0x74
 10279 48a3 B2480000 	 .4byte 0x48b2
 10280 48a7 01       	 .uleb128 0x1
 10281 48a8 82150000 	 .4byte 0x1582
 10282 48ac 01       	 .uleb128 0x1
 10283 48ad A90C0000 	 .4byte 0xca9
 10284 48b1 00       	 .byte 0
 10285 48b2 12       	 .uleb128 0x12
 10286 48b3 3B130000 	 .4byte .LASF979
 10287 48b7 56       	 .byte 0x56
 10288 48b8 E603     	 .2byte 0x3e6
 10289 48ba 0C       	 .byte 0xc
 10290 48bb 74000000 	 .4byte 0x74
 10291 48bf CE480000 	 .4byte 0x48ce
 10292 48c3 01       	 .uleb128 0x1
 10293 48c4 82150000 	 .4byte 0x1582
 10294 48c8 01       	 .uleb128 0x1
 10295 48c9 82150000 	 .4byte 0x1582
 10296 48cd 00       	 .byte 0
 10297 48ce 12       	 .uleb128 0x12
 10298 48cf A30C0000 	 .4byte .LASF980
 10299 48d3 56       	 .byte 0x56
 10300 48d4 2F02     	 .2byte 0x22f
 10301 48d6 0C       	 .byte 0xc
 10302 48d7 74000000 	 .4byte 0x74
 10303 48db F9480000 	 .4byte 0x48f9
 10304 48df 01       	 .uleb128 0x1
 10305 48e0 82150000 	 .4byte 0x1582
ARM GAS   			page 186


 10306 48e4 01       	 .uleb128 0x1
 10307 48e5 3F030000 	 .4byte 0x33f
 10308 48e9 01       	 .uleb128 0x1
 10309 48ea C3000000 	 .4byte 0xc3
 10310 48ee 01       	 .uleb128 0x1
 10311 48ef A90C0000 	 .4byte 0xca9
 10312 48f3 01       	 .uleb128 0x1
 10313 48f4 790C0000 	 .4byte 0xc79
 10314 48f8 00       	 .byte 0
 10315 48f9 12       	 .uleb128 0x12
 10316 48fa 591C0000 	 .4byte .LASF981
 10317 48fe 2D       	 .byte 0x2d
 10318 48ff 3902     	 .2byte 0x239
 10319 4901 06       	 .byte 0x6
 10320 4902 F5060000 	 .4byte 0x6f5
 10321 4906 15490000 	 .4byte 0x4915
 10322 490a 01       	 .uleb128 0x1
 10323 490b 82150000 	 .4byte 0x1582
 10324 490f 01       	 .uleb128 0x1
 10325 4910 82150000 	 .4byte 0x1582
 10326 4914 00       	 .byte 0
 10327 4915 12       	 .uleb128 0x12
 10328 4916 CC300000 	 .4byte .LASF982
 10329 491a 56       	 .byte 0x56
 10330 491b 1702     	 .2byte 0x217
 10331 491d 0C       	 .byte 0xc
 10332 491e 74000000 	 .4byte 0x74
 10333 4922 3B490000 	 .4byte 0x493b
 10334 4926 01       	 .uleb128 0x1
 10335 4927 82150000 	 .4byte 0x1582
 10336 492b 01       	 .uleb128 0x1
 10337 492c 82150000 	 .4byte 0x1582
 10338 4930 01       	 .uleb128 0x1
 10339 4931 3F030000 	 .4byte 0x33f
 10340 4935 01       	 .uleb128 0x1
 10341 4936 C3000000 	 .4byte 0xc3
 10342 493a 00       	 .byte 0
 10343 493b 1D       	 .uleb128 0x1d
 10344 493c 431C0000 	 .4byte .LASF983
 10345 4940 56       	 .byte 0x56
 10346 4941 0502     	 .2byte 0x205
 10347 4943 0D       	 .byte 0xd
 10348 4944 4E490000 	 .4byte 0x494e
 10349 4948 01       	 .uleb128 0x1
 10350 4949 4E150000 	 .4byte 0x154e
 10351 494d 00       	 .byte 0
 10352 494e 1D       	 .uleb128 0x1d
 10353 494f 333C0000 	 .4byte .LASF984
 10354 4953 2D       	 .byte 0x2d
 10355 4954 1302     	 .2byte 0x213
 10356 4956 06       	 .byte 0x6
 10357 4957 61490000 	 .4byte 0x4961
 10358 495b 01       	 .uleb128 0x1
 10359 495c 91140000 	 .4byte 0x1491
 10360 4960 00       	 .byte 0
 10361 4961 1D       	 .uleb128 0x1d
 10362 4962 FA200000 	 .4byte .LASF985
ARM GAS   			page 187


 10363 4966 2D       	 .byte 0x2d
 10364 4967 0A02     	 .2byte 0x20a
 10365 4969 06       	 .byte 0x6
 10366 496a 74490000 	 .4byte 0x4974
 10367 496e 01       	 .uleb128 0x1
 10368 496f 91140000 	 .4byte 0x1491
 10369 4973 00       	 .byte 0
 10370 4974 10       	 .uleb128 0x10
 10371 4975 F4050000 	 .4byte .LASF986
 10372 4979 63       	 .byte 0x63
 10373 497a 37       	 .byte 0x37
 10374 497b 05       	 .byte 0x5
 10375 497c 74000000 	 .4byte 0x74
 10376 4980 8F490000 	 .4byte 0x498f
 10377 4984 01       	 .uleb128 0x1
 10378 4985 36130000 	 .4byte 0x1336
 10379 4989 01       	 .uleb128 0x1
 10380 498a 73030000 	 .4byte 0x373
 10381 498e 00       	 .byte 0
 10382 498f 12       	 .uleb128 0x12
 10383 4990 00320000 	 .4byte .LASF987
 10384 4994 56       	 .byte 0x56
 10385 4995 9A01     	 .2byte 0x19a
 10386 4997 0C       	 .byte 0xc
 10387 4998 74000000 	 .4byte 0x74
 10388 499c AB490000 	 .4byte 0x49ab
 10389 49a0 01       	 .uleb128 0x1
 10390 49a1 36130000 	 .4byte 0x1336
 10391 49a5 01       	 .uleb128 0x1
 10392 49a6 73030000 	 .4byte 0x373
 10393 49aa 00       	 .byte 0
 10394 49ab 12       	 .uleb128 0x12
 10395 49ac 202B0000 	 .4byte .LASF988
 10396 49b0 56       	 .byte 0x56
 10397 49b1 9F01     	 .2byte 0x19f
 10398 49b3 0C       	 .byte 0xc
 10399 49b4 74000000 	 .4byte 0x74
 10400 49b8 C7490000 	 .4byte 0x49c7
 10401 49bc 01       	 .uleb128 0x1
 10402 49bd 36130000 	 .4byte 0x1336
 10403 49c1 01       	 .uleb128 0x1
 10404 49c2 73030000 	 .4byte 0x373
 10405 49c6 00       	 .byte 0
 10406 49c7 34       	 .uleb128 0x34
 10407 49c8 091F0000 	 .4byte .LASF990
 10408 49cc 2D       	 .byte 0x2d
 10409 49cd 2A06     	 .2byte 0x62a
 10410 49cf 28       	 .uleb128 0x28
 10411 49d0 921C0000 	 .4byte .LASF991
 10412 49d4 53       	 .byte 0x53
 10413 49d5 45       	 .byte 0x45
 10414 49d6 10       	 .uleb128 0x10
 10415 49d7 84080000 	 .4byte .LASF992
 10416 49db 64       	 .byte 0x64
 10417 49dc 5F       	 .byte 0x5f
 10418 49dd 15       	 .byte 0x15
 10419 49de 730B0000 	 .4byte 0xb73
ARM GAS   			page 188


 10420 49e2 F6490000 	 .4byte 0x49f6
 10421 49e6 01       	 .uleb128 0x1
 10422 49e7 7F0B0000 	 .4byte 0xb7f
 10423 49eb 01       	 .uleb128 0x1
 10424 49ec 8B0B0000 	 .4byte 0xb8b
 10425 49f0 01       	 .uleb128 0x1
 10426 49f1 DB000000 	 .4byte 0xdb
 10427 49f5 00       	 .byte 0
 10428 49f6 10       	 .uleb128 0x10
 10429 49f7 3D070000 	 .4byte .LASF993
 10430 49fb 64       	 .byte 0x64
 10431 49fc 59       	 .byte 0x59
 10432 49fd 15       	 .byte 0x15
 10433 49fe 730B0000 	 .4byte 0xb73
 10434 4a02 164A0000 	 .4byte 0x4a16
 10435 4a06 01       	 .uleb128 0x1
 10436 4a07 7F0B0000 	 .4byte 0xb7f
 10437 4a0b 01       	 .uleb128 0x1
 10438 4a0c 8B0B0000 	 .4byte 0xb8b
 10439 4a10 01       	 .uleb128 0x1
 10440 4a11 DB000000 	 .4byte 0xdb
 10441 4a15 00       	 .byte 0
 10442 4a16 10       	 .uleb128 0x10
 10443 4a17 7B190000 	 .4byte .LASF994
 10444 4a1b 64       	 .byte 0x64
 10445 4a1c 53       	 .byte 0x53
 10446 4a1d 15       	 .byte 0x15
 10447 4a1e 730B0000 	 .4byte 0xb73
 10448 4a22 364A0000 	 .4byte 0x4a36
 10449 4a26 01       	 .uleb128 0x1
 10450 4a27 7F0B0000 	 .4byte 0xb7f
 10451 4a2b 01       	 .uleb128 0x1
 10452 4a2c 8B0B0000 	 .4byte 0xb8b
 10453 4a30 01       	 .uleb128 0x1
 10454 4a31 DB000000 	 .4byte 0xdb
 10455 4a35 00       	 .byte 0
 10456 4a36 10       	 .uleb128 0x10
 10457 4a37 7A020000 	 .4byte .LASF995
 10458 4a3b 64       	 .byte 0x64
 10459 4a3c 4D       	 .byte 0x4d
 10460 4a3d 15       	 .byte 0x15
 10461 4a3e 730B0000 	 .4byte 0xb73
 10462 4a42 564A0000 	 .4byte 0x4a56
 10463 4a46 01       	 .uleb128 0x1
 10464 4a47 7F0B0000 	 .4byte 0xb7f
 10465 4a4b 01       	 .uleb128 0x1
 10466 4a4c 8B0B0000 	 .4byte 0xb8b
 10467 4a50 01       	 .uleb128 0x1
 10468 4a51 DB000000 	 .4byte 0xdb
 10469 4a55 00       	 .byte 0
 10470 4a56 10       	 .uleb128 0x10
 10471 4a57 C42C0000 	 .4byte .LASF996
 10472 4a5b 64       	 .byte 0x64
 10473 4a5c 47       	 .byte 0x47
 10474 4a5d 15       	 .byte 0x15
 10475 4a5e 730B0000 	 .4byte 0xb73
 10476 4a62 764A0000 	 .4byte 0x4a76
ARM GAS   			page 189


 10477 4a66 01       	 .uleb128 0x1
 10478 4a67 7F0B0000 	 .4byte 0xb7f
 10479 4a6b 01       	 .uleb128 0x1
 10480 4a6c 8B0B0000 	 .4byte 0xb8b
 10481 4a70 01       	 .uleb128 0x1
 10482 4a71 DB000000 	 .4byte 0xdb
 10483 4a75 00       	 .byte 0
 10484 4a76 10       	 .uleb128 0x10
 10485 4a77 29040000 	 .4byte .LASF997
 10486 4a7b 64       	 .byte 0x64
 10487 4a7c 41       	 .byte 0x41
 10488 4a7d 15       	 .byte 0x15
 10489 4a7e 730B0000 	 .4byte 0xb73
 10490 4a82 964A0000 	 .4byte 0x4a96
 10491 4a86 01       	 .uleb128 0x1
 10492 4a87 7F0B0000 	 .4byte 0xb7f
 10493 4a8b 01       	 .uleb128 0x1
 10494 4a8c 8B0B0000 	 .4byte 0xb8b
 10495 4a90 01       	 .uleb128 0x1
 10496 4a91 DB000000 	 .4byte 0xdb
 10497 4a95 00       	 .byte 0
 10498 4a96 10       	 .uleb128 0x10
 10499 4a97 C5250000 	 .4byte .LASF998
 10500 4a9b 65       	 .byte 0x65
 10501 4a9c 5C       	 .byte 0x5c
 10502 4a9d 15       	 .byte 0x15
 10503 4a9e 730B0000 	 .4byte 0xb73
 10504 4aa2 B64A0000 	 .4byte 0x4ab6
 10505 4aa6 01       	 .uleb128 0x1
 10506 4aa7 7F0B0000 	 .4byte 0xb7f
 10507 4aab 01       	 .uleb128 0x1
 10508 4aac 8B0B0000 	 .4byte 0xb8b
 10509 4ab0 01       	 .uleb128 0x1
 10510 4ab1 DB000000 	 .4byte 0xdb
 10511 4ab5 00       	 .byte 0
 10512 4ab6 10       	 .uleb128 0x10
 10513 4ab7 26080000 	 .4byte .LASF999
 10514 4abb 65       	 .byte 0x65
 10515 4abc 56       	 .byte 0x56
 10516 4abd 15       	 .byte 0x15
 10517 4abe 730B0000 	 .4byte 0xb73
 10518 4ac2 D64A0000 	 .4byte 0x4ad6
 10519 4ac6 01       	 .uleb128 0x1
 10520 4ac7 7F0B0000 	 .4byte 0xb7f
 10521 4acb 01       	 .uleb128 0x1
 10522 4acc 8B0B0000 	 .4byte 0xb8b
 10523 4ad0 01       	 .uleb128 0x1
 10524 4ad1 DB000000 	 .4byte 0xdb
 10525 4ad5 00       	 .byte 0
 10526 4ad6 10       	 .uleb128 0x10
 10527 4ad7 B6400000 	 .4byte .LASF1000
 10528 4adb 65       	 .byte 0x65
 10529 4adc 50       	 .byte 0x50
 10530 4add 15       	 .byte 0x15
 10531 4ade 730B0000 	 .4byte 0xb73
 10532 4ae2 F64A0000 	 .4byte 0x4af6
 10533 4ae6 01       	 .uleb128 0x1
ARM GAS   			page 190


 10534 4ae7 7F0B0000 	 .4byte 0xb7f
 10535 4aeb 01       	 .uleb128 0x1
 10536 4aec 8B0B0000 	 .4byte 0xb8b
 10537 4af0 01       	 .uleb128 0x1
 10538 4af1 DB000000 	 .4byte 0xdb
 10539 4af5 00       	 .byte 0
 10540 4af6 10       	 .uleb128 0x10
 10541 4af7 B8240000 	 .4byte .LASF1001
 10542 4afb 65       	 .byte 0x65
 10543 4afc 4A       	 .byte 0x4a
 10544 4afd 15       	 .byte 0x15
 10545 4afe 730B0000 	 .4byte 0xb73
 10546 4b02 164B0000 	 .4byte 0x4b16
 10547 4b06 01       	 .uleb128 0x1
 10548 4b07 7F0B0000 	 .4byte 0xb7f
 10549 4b0b 01       	 .uleb128 0x1
 10550 4b0c 8B0B0000 	 .4byte 0xb8b
 10551 4b10 01       	 .uleb128 0x1
 10552 4b11 DB000000 	 .4byte 0xdb
 10553 4b15 00       	 .byte 0
 10554 4b16 10       	 .uleb128 0x10
 10555 4b17 360A0000 	 .4byte .LASF1002
 10556 4b1b 65       	 .byte 0x65
 10557 4b1c 44       	 .byte 0x44
 10558 4b1d 15       	 .byte 0x15
 10559 4b1e 730B0000 	 .4byte 0xb73
 10560 4b22 364B0000 	 .4byte 0x4b36
 10561 4b26 01       	 .uleb128 0x1
 10562 4b27 7F0B0000 	 .4byte 0xb7f
 10563 4b2b 01       	 .uleb128 0x1
 10564 4b2c 8B0B0000 	 .4byte 0xb8b
 10565 4b30 01       	 .uleb128 0x1
 10566 4b31 DB000000 	 .4byte 0xdb
 10567 4b35 00       	 .byte 0
 10568 4b36 10       	 .uleb128 0x10
 10569 4b37 FB330000 	 .4byte .LASF1003
 10570 4b3b 65       	 .byte 0x65
 10571 4b3c 3E       	 .byte 0x3e
 10572 4b3d 15       	 .byte 0x15
 10573 4b3e 730B0000 	 .4byte 0xb73
 10574 4b42 564B0000 	 .4byte 0x4b56
 10575 4b46 01       	 .uleb128 0x1
 10576 4b47 7F0B0000 	 .4byte 0xb7f
 10577 4b4b 01       	 .uleb128 0x1
 10578 4b4c 8B0B0000 	 .4byte 0xb8b
 10579 4b50 01       	 .uleb128 0x1
 10580 4b51 DB000000 	 .4byte 0xdb
 10581 4b55 00       	 .byte 0
 10582 4b56 10       	 .uleb128 0x10
 10583 4b57 99210000 	 .4byte .LASF1004
 10584 4b5b 66       	 .byte 0x66
 10585 4b5c A3       	 .byte 0xa3
 10586 4b5d 15       	 .byte 0x15
 10587 4b5e 730B0000 	 .4byte 0xb73
 10588 4b62 764B0000 	 .4byte 0x4b76
 10589 4b66 01       	 .uleb128 0x1
 10590 4b67 7F0B0000 	 .4byte 0xb7f
ARM GAS   			page 191


 10591 4b6b 01       	 .uleb128 0x1
 10592 4b6c 8B0B0000 	 .4byte 0xb8b
 10593 4b70 01       	 .uleb128 0x1
 10594 4b71 DB000000 	 .4byte 0xdb
 10595 4b75 00       	 .byte 0
 10596 4b76 10       	 .uleb128 0x10
 10597 4b77 E6490000 	 .4byte .LASF1005
 10598 4b7b 66       	 .byte 0x66
 10599 4b7c 90       	 .byte 0x90
 10600 4b7d 15       	 .byte 0x15
 10601 4b7e 730B0000 	 .4byte 0xb73
 10602 4b82 964B0000 	 .4byte 0x4b96
 10603 4b86 01       	 .uleb128 0x1
 10604 4b87 7F0B0000 	 .4byte 0xb7f
 10605 4b8b 01       	 .uleb128 0x1
 10606 4b8c 8B0B0000 	 .4byte 0xb8b
 10607 4b90 01       	 .uleb128 0x1
 10608 4b91 DB000000 	 .4byte 0xdb
 10609 4b95 00       	 .byte 0
 10610 4b96 10       	 .uleb128 0x10
 10611 4b97 7B170000 	 .4byte .LASF1006
 10612 4b9b 66       	 .byte 0x66
 10613 4b9c 7E       	 .byte 0x7e
 10614 4b9d 15       	 .byte 0x15
 10615 4b9e 730B0000 	 .4byte 0xb73
 10616 4ba2 B64B0000 	 .4byte 0x4bb6
 10617 4ba6 01       	 .uleb128 0x1
 10618 4ba7 7F0B0000 	 .4byte 0xb7f
 10619 4bab 01       	 .uleb128 0x1
 10620 4bac 8B0B0000 	 .4byte 0xb8b
 10621 4bb0 01       	 .uleb128 0x1
 10622 4bb1 DB000000 	 .4byte 0xdb
 10623 4bb5 00       	 .byte 0
 10624 4bb6 10       	 .uleb128 0x10
 10625 4bb7 7A1B0000 	 .4byte .LASF1007
 10626 4bbb 66       	 .byte 0x66
 10627 4bbc 6C       	 .byte 0x6c
 10628 4bbd 15       	 .byte 0x15
 10629 4bbe 730B0000 	 .4byte 0xb73
 10630 4bc2 D64B0000 	 .4byte 0x4bd6
 10631 4bc6 01       	 .uleb128 0x1
 10632 4bc7 7F0B0000 	 .4byte 0xb7f
 10633 4bcb 01       	 .uleb128 0x1
 10634 4bcc 8B0B0000 	 .4byte 0xb8b
 10635 4bd0 01       	 .uleb128 0x1
 10636 4bd1 DB000000 	 .4byte 0xdb
 10637 4bd5 00       	 .byte 0
 10638 4bd6 10       	 .uleb128 0x10
 10639 4bd7 92410000 	 .4byte .LASF1008
 10640 4bdb 66       	 .byte 0x66
 10641 4bdc 5A       	 .byte 0x5a
 10642 4bdd 15       	 .byte 0x15
 10643 4bde 730B0000 	 .4byte 0xb73
 10644 4be2 F64B0000 	 .4byte 0x4bf6
 10645 4be6 01       	 .uleb128 0x1
 10646 4be7 7F0B0000 	 .4byte 0xb7f
 10647 4beb 01       	 .uleb128 0x1
ARM GAS   			page 192


 10648 4bec 8B0B0000 	 .4byte 0xb8b
 10649 4bf0 01       	 .uleb128 0x1
 10650 4bf1 DB000000 	 .4byte 0xdb
 10651 4bf5 00       	 .byte 0
 10652 4bf6 10       	 .uleb128 0x10
 10653 4bf7 48260000 	 .4byte .LASF1009
 10654 4bfb 66       	 .byte 0x66
 10655 4bfc 48       	 .byte 0x48
 10656 4bfd 15       	 .byte 0x15
 10657 4bfe 730B0000 	 .4byte 0xb73
 10658 4c02 164C0000 	 .4byte 0x4c16
 10659 4c06 01       	 .uleb128 0x1
 10660 4c07 7F0B0000 	 .4byte 0xb7f
 10661 4c0b 01       	 .uleb128 0x1
 10662 4c0c 8B0B0000 	 .4byte 0xb8b
 10663 4c10 01       	 .uleb128 0x1
 10664 4c11 DB000000 	 .4byte 0xdb
 10665 4c15 00       	 .byte 0
 10666 4c16 28       	 .uleb128 0x28
 10667 4c17 530D0000 	 .4byte .LASF1010
 10668 4c1b 50       	 .byte 0x50
 10669 4c1c 5A       	 .byte 0x5a
 10670 4c1d 43       	 .uleb128 0x43
 10671 4c1e 50150000 	 .4byte .LASF1011
 10672 4c22 67       	 .byte 0x67
 10673 4c23 5D       	 .byte 0x5d
 10674 4c24 06       	 .byte 0x6
 10675 4c25 2F4C0000 	 .4byte 0x4c2f
 10676 4c29 01       	 .uleb128 0x1
 10677 4c2a 74000000 	 .4byte 0x74
 10678 4c2e 00       	 .byte 0
 10679 4c2f 12       	 .uleb128 0x12
 10680 4c30 052F0000 	 .4byte .LASF1012
 10681 4c34 13       	 .byte 0x13
 10682 4c35 5104     	 .2byte 0x451
 10683 4c37 13       	 .byte 0x13
 10684 4c38 68050000 	 .4byte 0x568
 10685 4c3c 464C0000 	 .4byte 0x4c46
 10686 4c40 01       	 .uleb128 0x1
 10687 4c41 49060000 	 .4byte 0x649
 10688 4c45 00       	 .byte 0
 10689 4c46 2B       	 .uleb128 0x2b
 10690 4c47 37290000 	 .4byte .LASF1014
 10691 4c4b 01       	 .byte 0x1
 10692 4c4c 28       	 .byte 0x28
 10693 4c4d 06       	 .byte 0x6
 10694 4c4e 74000000 	 .4byte 0x74
 10695 4c52 28       	 .uleb128 0x28
 10696 4c53 7E260000 	 .4byte .LASF1013
 10697 4c57 01       	 .byte 0x1
 10698 4c58 2A       	 .byte 0x2a
 10699 4c59 2B       	 .uleb128 0x2b
 10700 4c5a C3240000 	 .4byte .LASF1015
 10701 4c5e 01       	 .byte 0x1
 10702 4c5f 27       	 .byte 0x27
 10703 4c60 06       	 .byte 0x6
 10704 4c61 74000000 	 .4byte 0x74
ARM GAS   			page 193


 10705 4c65 2B       	 .uleb128 0x2b
 10706 4c66 212E0000 	 .4byte .LASF1016
 10707 4c6a 01       	 .byte 0x1
 10708 4c6b 29       	 .byte 0x29
 10709 4c6c 06       	 .byte 0x6
 10710 4c6d 74000000 	 .4byte 0x74
 10711 4c71 10       	 .uleb128 0x10
 10712 4c72 B9110000 	 .4byte .LASF1017
 10713 4c76 68       	 .byte 0x68
 10714 4c77 41       	 .byte 0x41
 10715 4c78 05       	 .byte 0x5
 10716 4c79 74000000 	 .4byte 0x74
 10717 4c7d 8C4C0000 	 .4byte 0x4c8c
 10718 4c81 01       	 .uleb128 0x1
 10719 4c82 DB000000 	 .4byte 0xdb
 10720 4c86 01       	 .uleb128 0x1
 10721 4c87 C3000000 	 .4byte 0xc3
 10722 4c8b 00       	 .byte 0
 10723 4c8c 10       	 .uleb128 0x10
 10724 4c8d 76380000 	 .4byte .LASF1018
 10725 4c91 08       	 .byte 0x8
 10726 4c92 CE       	 .byte 0xce
 10727 4c93 05       	 .byte 0x5
 10728 4c94 74000000 	 .4byte 0x74
 10729 4c98 A34C0000 	 .4byte 0x4ca3
 10730 4c9c 01       	 .uleb128 0x1
 10731 4c9d 3F030000 	 .4byte 0x33f
 10732 4ca1 44       	 .uleb128 0x44
 10733 4ca2 00       	 .byte 0
 10734 4ca3 2B       	 .uleb128 0x2b
 10735 4ca4 66020000 	 .4byte .LASF1019
 10736 4ca8 69       	 .byte 0x69
 10737 4ca9 53       	 .byte 0x53
 10738 4caa 0D       	 .byte 0xd
 10739 4cab 3F030000 	 .4byte 0x33f
 10740 4caf 1D       	 .uleb128 0x1d
 10741 4cb0 0F060000 	 .4byte .LASF1020
 10742 4cb4 21       	 .byte 0x21
 10743 4cb5 8602     	 .2byte 0x286
 10744 4cb7 06       	 .byte 0x6
 10745 4cb8 CC4C0000 	 .4byte 0x4ccc
 10746 4cbc 01       	 .uleb128 0x1
 10747 4cbd 62360000 	 .4byte 0x3662
 10748 4cc1 01       	 .uleb128 0x1
 10749 4cc2 8C2A0000 	 .4byte 0x2a8c
 10750 4cc6 01       	 .uleb128 0x1
 10751 4cc7 912A0000 	 .4byte 0x2a91
 10752 4ccb 00       	 .byte 0
 10753 4ccc 1D       	 .uleb128 0x1d
 10754 4ccd 27210000 	 .4byte .LASF1021
 10755 4cd1 21       	 .byte 0x21
 10756 4cd2 7802     	 .2byte 0x278
 10757 4cd4 06       	 .byte 0x6
 10758 4cd5 EE4C0000 	 .4byte 0x4cee
 10759 4cd9 01       	 .uleb128 0x1
 10760 4cda 62360000 	 .4byte 0x3662
 10761 4cde 01       	 .uleb128 0x1
ARM GAS   			page 194


 10762 4cdf 8C2A0000 	 .4byte 0x2a8c
 10763 4ce3 01       	 .uleb128 0x1
 10764 4ce4 84280000 	 .4byte 0x2884
 10765 4ce8 01       	 .uleb128 0x1
 10766 4ce9 962A0000 	 .4byte 0x2a96
 10767 4ced 00       	 .byte 0
 10768 4cee 1D       	 .uleb128 0x1d
 10769 4cef E7170000 	 .4byte .LASF1022
 10770 4cf3 21       	 .byte 0x21
 10771 4cf4 6602     	 .2byte 0x266
 10772 4cf6 06       	 .byte 0x6
 10773 4cf7 154D0000 	 .4byte 0x4d15
 10774 4cfb 01       	 .uleb128 0x1
 10775 4cfc 62360000 	 .4byte 0x3662
 10776 4d00 01       	 .uleb128 0x1
 10777 4d01 8C2A0000 	 .4byte 0x2a8c
 10778 4d05 01       	 .uleb128 0x1
 10779 4d06 84280000 	 .4byte 0x2884
 10780 4d0a 01       	 .uleb128 0x1
 10781 4d0b B3030000 	 .4byte 0x3b3
 10782 4d0f 01       	 .uleb128 0x1
 10783 4d10 962A0000 	 .4byte 0x2a96
 10784 4d14 00       	 .byte 0
 10785 4d15 1D       	 .uleb128 0x1d
 10786 4d16 CA1C0000 	 .4byte .LASF1023
 10787 4d1a 21       	 .byte 0x21
 10788 4d1b 5602     	 .2byte 0x256
 10789 4d1d 06       	 .byte 0x6
 10790 4d1e 2D4D0000 	 .4byte 0x4d2d
 10791 4d22 01       	 .uleb128 0x1
 10792 4d23 62360000 	 .4byte 0x3662
 10793 4d27 01       	 .uleb128 0x1
 10794 4d28 AD2E0000 	 .4byte 0x2ead
 10795 4d2c 00       	 .byte 0
 10796 4d2d 1B       	 .uleb128 0x1b
 10797 4d2e 03190000 	 .4byte .LASF1024
 10798 4d32 4C       	 .byte 0x4c
 10799 4d33 C9       	 .byte 0xc9
 10800 4d34 4D4D0000 	 .4byte 0x4d4d
 10801 4d38 01       	 .uleb128 0x1
 10802 4d39 62360000 	 .4byte 0x3662
 10803 4d3d 01       	 .uleb128 0x1
 10804 4d3e AD2E0000 	 .4byte 0x2ead
 10805 4d42 01       	 .uleb128 0x1
 10806 4d43 8C2A0000 	 .4byte 0x2a8c
 10807 4d47 01       	 .uleb128 0x1
 10808 4d48 91270000 	 .4byte 0x2791
 10809 4d4c 00       	 .byte 0
 10810 4d4d 12       	 .uleb128 0x12
 10811 4d4e 88030000 	 .4byte .LASF1025
 10812 4d52 21       	 .byte 0x21
 10813 4d53 D601     	 .2byte 0x1d6
 10814 4d55 12       	 .byte 0x12
 10815 4d56 91270000 	 .4byte 0x2791
 10816 4d5a 694D0000 	 .4byte 0x4d69
 10817 4d5e 01       	 .uleb128 0x1
 10818 4d5f 62360000 	 .4byte 0x3662
ARM GAS   			page 195


 10819 4d63 01       	 .uleb128 0x1
 10820 4d64 91270000 	 .4byte 0x2791
 10821 4d68 00       	 .byte 0
 10822 4d69 12       	 .uleb128 0x12
 10823 4d6a A2010000 	 .4byte .LASF1026
 10824 4d6e 21       	 .byte 0x21
 10825 4d6f C801     	 .2byte 0x1c8
 10826 4d71 12       	 .byte 0x12
 10827 4d72 91270000 	 .4byte 0x2791
 10828 4d76 854D0000 	 .4byte 0x4d85
 10829 4d7a 01       	 .uleb128 0x1
 10830 4d7b 62360000 	 .4byte 0x3662
 10831 4d7f 01       	 .uleb128 0x1
 10832 4d80 91270000 	 .4byte 0x2791
 10833 4d84 00       	 .byte 0
 10834 4d85 1B       	 .uleb128 0x1b
 10835 4d86 DE2C0000 	 .4byte .LASF1027
 10836 4d8a 4C       	 .byte 0x4c
 10837 4d8b BB       	 .byte 0xbb
 10838 4d8c A04D0000 	 .4byte 0x4da0
 10839 4d90 01       	 .uleb128 0x1
 10840 4d91 62360000 	 .4byte 0x3662
 10841 4d95 01       	 .uleb128 0x1
 10842 4d96 8C2A0000 	 .4byte 0x2a8c
 10843 4d9a 01       	 .uleb128 0x1
 10844 4d9b AD2E0000 	 .4byte 0x2ead
 10845 4d9f 00       	 .byte 0
 10846 4da0 1B       	 .uleb128 0x1b
 10847 4da1 94070000 	 .4byte .LASF1028
 10848 4da5 4C       	 .byte 0x4c
 10849 4da6 AE       	 .byte 0xae
 10850 4da7 BB4D0000 	 .4byte 0x4dbb
 10851 4dab 01       	 .uleb128 0x1
 10852 4dac 62360000 	 .4byte 0x3662
 10853 4db0 01       	 .uleb128 0x1
 10854 4db1 8C2A0000 	 .4byte 0x2a8c
 10855 4db5 01       	 .uleb128 0x1
 10856 4db6 AD2E0000 	 .4byte 0x2ead
 10857 4dba 00       	 .byte 0
 10858 4dbb 1B       	 .uleb128 0x1b
 10859 4dbc FC430000 	 .4byte .LASF1029
 10860 4dc0 4C       	 .byte 0x4c
 10861 4dc1 93       	 .byte 0x93
 10862 4dc2 D64D0000 	 .4byte 0x4dd6
 10863 4dc6 01       	 .uleb128 0x1
 10864 4dc7 62360000 	 .4byte 0x3662
 10865 4dcb 01       	 .uleb128 0x1
 10866 4dcc 8C2A0000 	 .4byte 0x2a8c
 10867 4dd0 01       	 .uleb128 0x1
 10868 4dd1 AD2E0000 	 .4byte 0x2ead
 10869 4dd5 00       	 .byte 0
 10870 4dd6 1B       	 .uleb128 0x1b
 10871 4dd7 E6310000 	 .4byte .LASF1030
 10872 4ddb 4C       	 .byte 0x4c
 10873 4ddc D7       	 .byte 0xd7
 10874 4ddd F14D0000 	 .4byte 0x4df1
 10875 4de1 01       	 .uleb128 0x1
ARM GAS   			page 196


 10876 4de2 62360000 	 .4byte 0x3662
 10877 4de6 01       	 .uleb128 0x1
 10878 4de7 8C2A0000 	 .4byte 0x2a8c
 10879 4deb 01       	 .uleb128 0x1
 10880 4dec AD2E0000 	 .4byte 0x2ead
 10881 4df0 00       	 .byte 0
 10882 4df1 1B       	 .uleb128 0x1b
 10883 4df2 16100000 	 .4byte .LASF1031
 10884 4df6 4C       	 .byte 0x4c
 10885 4df7 A2       	 .byte 0xa2
 10886 4df8 074E0000 	 .4byte 0x4e07
 10887 4dfc 01       	 .uleb128 0x1
 10888 4dfd 62360000 	 .4byte 0x3662
 10889 4e01 01       	 .uleb128 0x1
 10890 4e02 8C2A0000 	 .4byte 0x2a8c
 10891 4e06 00       	 .byte 0
 10892 4e07 1B       	 .uleb128 0x1b
 10893 4e08 BD200000 	 .4byte .LASF1032
 10894 4e0c 4C       	 .byte 0x4c
 10895 4e0d 8A       	 .byte 0x8a
 10896 4e0e 184E0000 	 .4byte 0x4e18
 10897 4e12 01       	 .uleb128 0x1
 10898 4e13 62360000 	 .4byte 0x3662
 10899 4e17 00       	 .byte 0
 10900 4e18 1B       	 .uleb128 0x1b
 10901 4e19 730E0000 	 .4byte .LASF1033
 10902 4e1d 48       	 .byte 0x48
 10903 4e1e D8       	 .byte 0xd8
 10904 4e1f 2E4E0000 	 .4byte 0x4e2e
 10905 4e23 01       	 .uleb128 0x1
 10906 4e24 35340000 	 .4byte 0x3435
 10907 4e28 01       	 .uleb128 0x1
 10908 4e29 F5060000 	 .4byte 0x6f5
 10909 4e2d 00       	 .byte 0
 10910 4e2e 1D       	 .uleb128 0x1d
 10911 4e2f 210E0000 	 .4byte .LASF1034
 10912 4e33 3F       	 .byte 0x3f
 10913 4e34 7601     	 .2byte 0x176
 10914 4e36 06       	 .byte 0x6
 10915 4e37 464E0000 	 .4byte 0x4e46
 10916 4e3b 01       	 .uleb128 0x1
 10917 4e3c 6D270000 	 .4byte 0x276d
 10918 4e40 01       	 .uleb128 0x1
 10919 4e41 59270000 	 .4byte 0x2759
 10920 4e45 00       	 .byte 0
 10921 4e46 12       	 .uleb128 0x12
 10922 4e47 8E3E0000 	 .4byte .LASF1035
 10923 4e4b 3F       	 .byte 0x3f
 10924 4e4c 6001     	 .2byte 0x160
 10925 4e4e 12       	 .byte 0x12
 10926 4e4f 59270000 	 .4byte 0x2759
 10927 4e53 5D4E0000 	 .4byte 0x4e5d
 10928 4e57 01       	 .uleb128 0x1
 10929 4e58 6D270000 	 .4byte 0x276d
 10930 4e5c 00       	 .byte 0
 10931 4e5d 28       	 .uleb128 0x28
 10932 4e5e B0190000 	 .4byte .LASF1036
ARM GAS   			page 197


 10933 4e62 45       	 .byte 0x45
 10934 4e63 6E       	 .byte 0x6e
 10935 4e64 1B       	 .uleb128 0x1b
 10936 4e65 330C0000 	 .4byte .LASF1037
 10937 4e69 6A       	 .byte 0x6a
 10938 4e6a 38       	 .byte 0x38
 10939 4e6b 7F4E0000 	 .4byte 0x4e7f
 10940 4e6f 01       	 .uleb128 0x1
 10941 4e70 670B0000 	 .4byte 0xb67
 10942 4e74 01       	 .uleb128 0x1
 10943 4e75 F5060000 	 .4byte 0x6f5
 10944 4e79 01       	 .uleb128 0x1
 10945 4e7a 5B0B0000 	 .4byte 0xb5b
 10946 4e7e 00       	 .byte 0
 10947 4e7f 1B       	 .uleb128 0x1b
 10948 4e80 723B0000 	 .4byte .LASF1038
 10949 4e84 48       	 .byte 0x48
 10950 4e85 BB       	 .byte 0xbb
 10951 4e86 904E0000 	 .4byte 0x4e90
 10952 4e8a 01       	 .uleb128 0x1
 10953 4e8b CF070000 	 .4byte 0x7cf
 10954 4e8f 00       	 .byte 0
 10955 4e90 1B       	 .uleb128 0x1b
 10956 4e91 AE1F0000 	 .4byte .LASF1039
 10957 4e95 48       	 .byte 0x48
 10958 4e96 C9       	 .byte 0xc9
 10959 4e97 A64E0000 	 .4byte 0x4ea6
 10960 4e9b 01       	 .uleb128 0x1
 10961 4e9c CF070000 	 .4byte 0x7cf
 10962 4ea0 01       	 .uleb128 0x1
 10963 4ea1 CF070000 	 .4byte 0x7cf
 10964 4ea5 00       	 .byte 0
 10965 4ea6 10       	 .uleb128 0x10
 10966 4ea7 F6420000 	 .4byte .LASF1040
 10967 4eab 48       	 .byte 0x48
 10968 4eac B6       	 .byte 0xb6
 10969 4ead 06       	 .byte 0x6
 10970 4eae F5060000 	 .4byte 0x6f5
 10971 4eb2 C14E0000 	 .4byte 0x4ec1
 10972 4eb6 01       	 .uleb128 0x1
 10973 4eb7 CF070000 	 .4byte 0x7cf
 10974 4ebb 01       	 .uleb128 0x1
 10975 4ebc CF070000 	 .4byte 0x7cf
 10976 4ec0 00       	 .byte 0
 10977 4ec1 1B       	 .uleb128 0x1b
 10978 4ec2 E50A0000 	 .4byte .LASF1041
 10979 4ec6 6B       	 .byte 0x6b
 10980 4ec7 70       	 .byte 0x70
 10981 4ec8 D24E0000 	 .4byte 0x4ed2
 10982 4ecc 01       	 .uleb128 0x1
 10983 4ecd CF070000 	 .4byte 0x7cf
 10984 4ed1 00       	 .byte 0
 10985 4ed2 28       	 .uleb128 0x28
 10986 4ed3 EB070000 	 .4byte .LASF1042
 10987 4ed7 6C       	 .byte 0x6c
 10988 4ed8 42       	 .byte 0x42
 10989 4ed9 45       	 .uleb128 0x45
ARM GAS   			page 198


 10990 4eda B4110000 	 .4byte .LASF1051
 10991 4ede 52       	 .byte 0x52
 10992 4edf 56       	 .byte 0x56
 10993 4ee0 0E       	 .byte 0xe
 10994 4ee1 00000000 	 .4byte .LFB430
 10995 4ee5 D4000000 	 .4byte .LFE430-.LFB430
 10996 4ee9 01       	 .uleb128 0x1
 10997 4eea 9C       	 .byte 0x9c
 10998 4eeb 86500000 	 .4byte 0x5086
 10999 4eef 46       	 .uleb128 0x46
 11000 4ef0 552F0000 	 .4byte .LASF1052
 11001 4ef4 01       	 .byte 0x1
 11002 4ef5 2F       	 .byte 0x2f
 11003 4ef6 26       	 .byte 0x26
 11004 4ef7 18070000 	 .4byte 0x718
 11005 4efb 10000000 	 .4byte .LLST0
 11006 4eff 0C000000 	 .4byte .LVUS0
 11007 4f03 47       	 .uleb128 0x47
 11008 4f04 9F250000 	 .4byte .LASF1043
 11009 4f08 01       	 .byte 0x1
 11010 4f09 31       	 .byte 0x31
 11011 4f0a 08       	 .byte 0x8
 11012 4f0b 74000000 	 .4byte 0x74
 11013 4f0f 29000000 	 .4byte .LLST1
 11014 4f13 25000000 	 .4byte .LVUS1
 11015 4f17 19       	 .uleb128 0x19
 11016 4f18 10000000 	 .4byte .LVL2
 11017 4f1c 86500000 	 .4byte 0x5086
 11018 4f20 2E4F0000 	 .4byte 0x4f2e
 11019 4f24 17       	 .uleb128 0x17
 11020 4f25 01       	 .uleb128 0x1
 11021 4f26 50       	 .byte 0x50
 11022 4f27 05       	 .uleb128 0x5
 11023 4f28 03       	 .byte 0x3
 11024 4f29 00000000 	 .4byte .LC0
 11025 4f2d 00       	 .byte 0
 11026 4f2e 19       	 .uleb128 0x19
 11027 4f2f 1C000000 	 .4byte .LVL3
 11028 4f33 86500000 	 .4byte 0x5086
 11029 4f37 454F0000 	 .4byte 0x4f45
 11030 4f3b 17       	 .uleb128 0x17
 11031 4f3c 01       	 .uleb128 0x1
 11032 4f3d 50       	 .byte 0x50
 11033 4f3e 05       	 .uleb128 0x5
 11034 4f3f 03       	 .byte 0x3
 11035 4f40 04000000 	 .4byte .LC1
 11036 4f44 00       	 .byte 0
 11037 4f45 19       	 .uleb128 0x19
 11038 4f46 28000000 	 .4byte .LVL4
 11039 4f4a 86500000 	 .4byte 0x5086
 11040 4f4e 5C4F0000 	 .4byte 0x4f5c
 11041 4f52 17       	 .uleb128 0x17
 11042 4f53 01       	 .uleb128 0x1
 11043 4f54 50       	 .byte 0x50
 11044 4f55 05       	 .uleb128 0x5
 11045 4f56 03       	 .byte 0x3
 11046 4f57 2C000000 	 .4byte .LC2
ARM GAS   			page 199


 11047 4f5b 00       	 .byte 0
 11048 4f5c 24       	 .uleb128 0x24
 11049 4f5d 2C000000 	 .4byte .LVL5
 11050 4f61 A34C0000 	 .4byte 0x4ca3
 11051 4f65 19       	 .uleb128 0x19
 11052 4f66 3C000000 	 .4byte .LVL6
 11053 4f6a 8C4C0000 	 .4byte 0x4c8c
 11054 4f6e 7C4F0000 	 .4byte 0x4f7c
 11055 4f72 17       	 .uleb128 0x17
 11056 4f73 01       	 .uleb128 0x1
 11057 4f74 50       	 .byte 0x50
 11058 4f75 05       	 .uleb128 0x5
 11059 4f76 03       	 .byte 0x3
 11060 4f77 44000000 	 .4byte .LC3
 11061 4f7b 00       	 .byte 0
 11062 4f7c 19       	 .uleb128 0x19
 11063 4f7d 44000000 	 .4byte .LVL7
 11064 4f81 8F500000 	 .4byte 0x508f
 11065 4f85 8F4F0000 	 .4byte 0x4f8f
 11066 4f89 17       	 .uleb128 0x17
 11067 4f8a 01       	 .uleb128 0x1
 11068 4f8b 50       	 .byte 0x50
 11069 4f8c 01       	 .uleb128 0x1
 11070 4f8d 3A       	 .byte 0x3a
 11071 4f8e 00       	 .byte 0
 11072 4f8f 19       	 .uleb128 0x19
 11073 4f90 54000000 	 .4byte .LVL8
 11074 4f94 8C4C0000 	 .4byte 0x4c8c
 11075 4f98 AC4F0000 	 .4byte 0x4fac
 11076 4f9c 17       	 .uleb128 0x17
 11077 4f9d 01       	 .uleb128 0x1
 11078 4f9e 50       	 .byte 0x50
 11079 4f9f 05       	 .uleb128 0x5
 11080 4fa0 03       	 .byte 0x3
 11081 4fa1 4C000000 	 .4byte .LC4
 11082 4fa5 17       	 .uleb128 0x17
 11083 4fa6 01       	 .uleb128 0x1
 11084 4fa7 51       	 .byte 0x51
 11085 4fa8 02       	 .uleb128 0x2
 11086 4fa9 08       	 .byte 0x8
 11087 4faa 64       	 .byte 0x64
 11088 4fab 00       	 .byte 0
 11089 4fac 19       	 .uleb128 0x19
 11090 4fad 60000000 	 .4byte .LVL9
 11091 4fb1 86500000 	 .4byte 0x5086
 11092 4fb5 C34F0000 	 .4byte 0x4fc3
 11093 4fb9 17       	 .uleb128 0x17
 11094 4fba 01       	 .uleb128 0x1
 11095 4fbb 50       	 .byte 0x50
 11096 4fbc 05       	 .uleb128 0x5
 11097 4fbd 03       	 .byte 0x3
 11098 4fbe 68000000 	 .4byte .LC5
 11099 4fc2 00       	 .byte 0
 11100 4fc3 19       	 .uleb128 0x19
 11101 4fc4 6C000000 	 .4byte .LVL10
 11102 4fc8 86500000 	 .4byte 0x5086
 11103 4fcc DA4F0000 	 .4byte 0x4fda
ARM GAS   			page 200


 11104 4fd0 17       	 .uleb128 0x17
 11105 4fd1 01       	 .uleb128 0x1
 11106 4fd2 50       	 .byte 0x50
 11107 4fd3 05       	 .uleb128 0x5
 11108 4fd4 03       	 .byte 0x3
 11109 4fd5 80000000 	 .4byte .LC6
 11110 4fd9 00       	 .byte 0
 11111 4fda 24       	 .uleb128 0x24
 11112 4fdb 80000000 	 .4byte .LVL11
 11113 4fdf 714C0000 	 .4byte 0x4c71
 11114 4fe3 19       	 .uleb128 0x19
 11115 4fe4 8C000000 	 .4byte .LVL12
 11116 4fe8 86500000 	 .4byte 0x5086
 11117 4fec FA4F0000 	 .4byte 0x4ffa
 11118 4ff0 17       	 .uleb128 0x17
 11119 4ff1 01       	 .uleb128 0x1
 11120 4ff2 50       	 .byte 0x50
 11121 4ff3 05       	 .uleb128 0x5
 11122 4ff4 03       	 .byte 0x3
 11123 4ff5 AC000000 	 .4byte .LC7
 11124 4ff9 00       	 .byte 0
 11125 4ffa 24       	 .uleb128 0x24
 11126 4ffb 90000000 	 .4byte .LVL13
 11127 4fff 654C0000 	 .4byte 0x4c65
 11128 5003 24       	 .uleb128 0x24
 11129 5004 94000000 	 .4byte .LVL14
 11130 5008 594C0000 	 .4byte 0x4c59
 11131 500c 24       	 .uleb128 0x24
 11132 500d 98000000 	 .4byte .LVL15
 11133 5011 524C0000 	 .4byte 0x4c52
 11134 5015 19       	 .uleb128 0x19
 11135 5016 A4000000 	 .4byte .LVL16
 11136 501a 86500000 	 .4byte 0x5086
 11137 501e 2C500000 	 .4byte 0x502c
 11138 5022 17       	 .uleb128 0x17
 11139 5023 01       	 .uleb128 0x1
 11140 5024 50       	 .byte 0x50
 11141 5025 05       	 .uleb128 0x5
 11142 5026 03       	 .byte 0x3
 11143 5027 C4000000 	 .4byte .LC8
 11144 502b 00       	 .byte 0
 11145 502c 24       	 .uleb128 0x24
 11146 502d A8000000 	 .4byte .LVL17
 11147 5031 464C0000 	 .4byte 0x4c46
 11148 5035 19       	 .uleb128 0x19
 11149 5036 B4000000 	 .4byte .LVL18
 11150 503a 86500000 	 .4byte 0x5086
 11151 503e 4C500000 	 .4byte 0x504c
 11152 5042 17       	 .uleb128 0x17
 11153 5043 01       	 .uleb128 0x1
 11154 5044 50       	 .byte 0x50
 11155 5045 05       	 .uleb128 0x5
 11156 5046 03       	 .byte 0x3
 11157 5047 E4000000 	 .4byte .LC9
 11158 504b 00       	 .byte 0
 11159 504c 19       	 .uleb128 0x19
 11160 504d BC000000 	 .4byte .LVL19
ARM GAS   			page 201


 11161 5051 2F4C0000 	 .4byte 0x4c2f
 11162 5055 5F500000 	 .4byte 0x505f
 11163 5059 17       	 .uleb128 0x17
 11164 505a 01       	 .uleb128 0x1
 11165 505b 50       	 .byte 0x50
 11166 505c 01       	 .uleb128 0x1
 11167 505d 30       	 .byte 0x30
 11168 505e 00       	 .byte 0
 11169 505f 19       	 .uleb128 0x19
 11170 5060 CC000000 	 .4byte .LVL22
 11171 5064 8C4C0000 	 .4byte 0x4c8c
 11172 5068 76500000 	 .4byte 0x5076
 11173 506c 17       	 .uleb128 0x17
 11174 506d 01       	 .uleb128 0x1
 11175 506e 50       	 .byte 0x50
 11176 506f 05       	 .uleb128 0x5
 11177 5070 03       	 .byte 0x3
 11178 5071 00010000 	 .4byte .LC10
 11179 5075 00       	 .byte 0
 11180 5076 48       	 .uleb128 0x48
 11181 5077 D4000000 	 .4byte .LVL23
 11182 507b 1D4C0000 	 .4byte 0x4c1d
 11183 507f 17       	 .uleb128 0x17
 11184 5080 01       	 .uleb128 0x1
 11185 5081 50       	 .byte 0x50
 11186 5082 01       	 .uleb128 0x1
 11187 5083 31       	 .byte 0x31
 11188 5084 00       	 .byte 0
 11189 5085 00       	 .byte 0
 11190 5086 35       	 .uleb128 0x35
 11191 5087 7F230000 	 .4byte .LASF1044
 11192 508b 01140000 	 .4byte .LASF1046
 11193 508f 35       	 .uleb128 0x35
 11194 5090 0D0F0000 	 .4byte .LASF1045
 11195 5094 9E000000 	 .4byte .LASF1047
 11196 5098 00       	 .byte 0
 11197              	 .section .debug_abbrev,"",%progbits
 11198              	.Ldebug_abbrev0:
 11199 0000 01       	 .uleb128 0x1
 11200 0001 05       	 .uleb128 0x5
 11201 0002 00       	 .byte 0
 11202 0003 49       	 .uleb128 0x49
 11203 0004 13       	 .uleb128 0x13
 11204 0005 00       	 .byte 0
 11205 0006 00       	 .byte 0
 11206 0007 02       	 .uleb128 0x2
 11207 0008 0D       	 .uleb128 0xd
 11208 0009 00       	 .byte 0
 11209 000a 03       	 .uleb128 0x3
 11210 000b 0E       	 .uleb128 0xe
 11211 000c 3A       	 .uleb128 0x3a
 11212 000d 0B       	 .uleb128 0xb
 11213 000e 3B       	 .uleb128 0x3b
 11214 000f 0B       	 .uleb128 0xb
 11215 0010 39       	 .uleb128 0x39
 11216 0011 0B       	 .uleb128 0xb
 11217 0012 49       	 .uleb128 0x49
ARM GAS   			page 202


 11218 0013 13       	 .uleb128 0x13
 11219 0014 38       	 .uleb128 0x38
 11220 0015 0B       	 .uleb128 0xb
 11221 0016 00       	 .byte 0
 11222 0017 00       	 .byte 0
 11223 0018 03       	 .uleb128 0x3
 11224 0019 0D       	 .uleb128 0xd
 11225 001a 00       	 .byte 0
 11226 001b 03       	 .uleb128 0x3
 11227 001c 0E       	 .uleb128 0xe
 11228 001d 3A       	 .uleb128 0x3a
 11229 001e 0B       	 .uleb128 0xb
 11230 001f 3B       	 .uleb128 0x3b
 11231 0020 05       	 .uleb128 0x5
 11232 0021 39       	 .uleb128 0x39
 11233 0022 0B       	 .uleb128 0xb
 11234 0023 49       	 .uleb128 0x49
 11235 0024 13       	 .uleb128 0x13
 11236 0025 38       	 .uleb128 0x38
 11237 0026 0B       	 .uleb128 0xb
 11238 0027 00       	 .byte 0
 11239 0028 00       	 .byte 0
 11240 0029 04       	 .uleb128 0x4
 11241 002a 16       	 .uleb128 0x16
 11242 002b 00       	 .byte 0
 11243 002c 03       	 .uleb128 0x3
 11244 002d 0E       	 .uleb128 0xe
 11245 002e 3A       	 .uleb128 0x3a
 11246 002f 0B       	 .uleb128 0xb
 11247 0030 3B       	 .uleb128 0x3b
 11248 0031 0B       	 .uleb128 0xb
 11249 0032 39       	 .uleb128 0x39
 11250 0033 0B       	 .uleb128 0xb
 11251 0034 49       	 .uleb128 0x49
 11252 0035 13       	 .uleb128 0x13
 11253 0036 00       	 .byte 0
 11254 0037 00       	 .byte 0
 11255 0038 05       	 .uleb128 0x5
 11256 0039 0F       	 .uleb128 0xf
 11257 003a 00       	 .byte 0
 11258 003b 0B       	 .uleb128 0xb
 11259 003c 21       	 .uleb128 0x21
 11260 003d 04       	 .sleb128 4
 11261 003e 49       	 .uleb128 0x49
 11262 003f 13       	 .uleb128 0x13
 11263 0040 00       	 .byte 0
 11264 0041 00       	 .byte 0
 11265 0042 06       	 .uleb128 0x6
 11266 0043 34       	 .uleb128 0x34
 11267 0044 00       	 .byte 0
 11268 0045 03       	 .uleb128 0x3
 11269 0046 0E       	 .uleb128 0xe
 11270 0047 3A       	 .uleb128 0x3a
 11271 0048 0B       	 .uleb128 0xb
 11272 0049 3B       	 .uleb128 0x3b
 11273 004a 0B       	 .uleb128 0xb
 11274 004b 39       	 .uleb128 0x39
ARM GAS   			page 203


 11275 004c 0B       	 .uleb128 0xb
 11276 004d 49       	 .uleb128 0x49
 11277 004e 13       	 .uleb128 0x13
 11278 004f 3F       	 .uleb128 0x3f
 11279 0050 19       	 .uleb128 0x19
 11280 0051 3C       	 .uleb128 0x3c
 11281 0052 19       	 .uleb128 0x19
 11282 0053 00       	 .byte 0
 11283 0054 00       	 .byte 0
 11284 0055 07       	 .uleb128 0x7
 11285 0056 28       	 .uleb128 0x28
 11286 0057 00       	 .byte 0
 11287 0058 03       	 .uleb128 0x3
 11288 0059 0E       	 .uleb128 0xe
 11289 005a 1C       	 .uleb128 0x1c
 11290 005b 0B       	 .uleb128 0xb
 11291 005c 00       	 .byte 0
 11292 005d 00       	 .byte 0
 11293 005e 08       	 .uleb128 0x8
 11294 005f 16       	 .uleb128 0x16
 11295 0060 00       	 .byte 0
 11296 0061 03       	 .uleb128 0x3
 11297 0062 0E       	 .uleb128 0xe
 11298 0063 3A       	 .uleb128 0x3a
 11299 0064 0B       	 .uleb128 0xb
 11300 0065 3B       	 .uleb128 0x3b
 11301 0066 05       	 .uleb128 0x5
 11302 0067 39       	 .uleb128 0x39
 11303 0068 0B       	 .uleb128 0xb
 11304 0069 49       	 .uleb128 0x49
 11305 006a 13       	 .uleb128 0x13
 11306 006b 00       	 .byte 0
 11307 006c 00       	 .byte 0
 11308 006d 09       	 .uleb128 0x9
 11309 006e 13       	 .uleb128 0x13
 11310 006f 01       	 .byte 0x1
 11311 0070 0B       	 .uleb128 0xb
 11312 0071 0B       	 .uleb128 0xb
 11313 0072 3A       	 .uleb128 0x3a
 11314 0073 0B       	 .uleb128 0xb
 11315 0074 3B       	 .uleb128 0x3b
 11316 0075 0B       	 .uleb128 0xb
 11317 0076 39       	 .uleb128 0x39
 11318 0077 0B       	 .uleb128 0xb
 11319 0078 01       	 .uleb128 0x1
 11320 0079 13       	 .uleb128 0x13
 11321 007a 00       	 .byte 0
 11322 007b 00       	 .byte 0
 11323 007c 0A       	 .uleb128 0xa
 11324 007d 01       	 .uleb128 0x1
 11325 007e 01       	 .byte 0x1
 11326 007f 49       	 .uleb128 0x49
 11327 0080 13       	 .uleb128 0x13
 11328 0081 01       	 .uleb128 0x1
 11329 0082 13       	 .uleb128 0x13
 11330 0083 00       	 .byte 0
 11331 0084 00       	 .byte 0
ARM GAS   			page 204


 11332 0085 0B       	 .uleb128 0xb
 11333 0086 26       	 .uleb128 0x26
 11334 0087 00       	 .byte 0
 11335 0088 49       	 .uleb128 0x49
 11336 0089 13       	 .uleb128 0x13
 11337 008a 00       	 .byte 0
 11338 008b 00       	 .byte 0
 11339 008c 0C       	 .uleb128 0xc
 11340 008d 15       	 .uleb128 0x15
 11341 008e 01       	 .byte 0x1
 11342 008f 27       	 .uleb128 0x27
 11343 0090 19       	 .uleb128 0x19
 11344 0091 49       	 .uleb128 0x49
 11345 0092 13       	 .uleb128 0x13
 11346 0093 01       	 .uleb128 0x1
 11347 0094 13       	 .uleb128 0x13
 11348 0095 00       	 .byte 0
 11349 0096 00       	 .byte 0
 11350 0097 0D       	 .uleb128 0xd
 11351 0098 21       	 .uleb128 0x21
 11352 0099 00       	 .byte 0
 11353 009a 49       	 .uleb128 0x49
 11354 009b 13       	 .uleb128 0x13
 11355 009c 2F       	 .uleb128 0x2f
 11356 009d 0B       	 .uleb128 0xb
 11357 009e 00       	 .byte 0
 11358 009f 00       	 .byte 0
 11359 00a0 0E       	 .uleb128 0xe
 11360 00a1 15       	 .uleb128 0x15
 11361 00a2 01       	 .byte 0x1
 11362 00a3 27       	 .uleb128 0x27
 11363 00a4 19       	 .uleb128 0x19
 11364 00a5 01       	 .uleb128 0x1
 11365 00a6 13       	 .uleb128 0x13
 11366 00a7 00       	 .byte 0
 11367 00a8 00       	 .byte 0
 11368 00a9 0F       	 .uleb128 0xf
 11369 00aa 34       	 .uleb128 0x34
 11370 00ab 00       	 .byte 0
 11371 00ac 47       	 .uleb128 0x47
 11372 00ad 13       	 .uleb128 0x13
 11373 00ae 3A       	 .uleb128 0x3a
 11374 00af 0B       	 .uleb128 0xb
 11375 00b0 3B       	 .uleb128 0x3b
 11376 00b1 0B       	 .uleb128 0xb
 11377 00b2 39       	 .uleb128 0x39
 11378 00b3 0B       	 .uleb128 0xb
 11379 00b4 02       	 .uleb128 0x2
 11380 00b5 18       	 .uleb128 0x18
 11381 00b6 00       	 .byte 0
 11382 00b7 00       	 .byte 0
 11383 00b8 10       	 .uleb128 0x10
 11384 00b9 2E       	 .uleb128 0x2e
 11385 00ba 01       	 .byte 0x1
 11386 00bb 3F       	 .uleb128 0x3f
 11387 00bc 19       	 .uleb128 0x19
 11388 00bd 03       	 .uleb128 0x3
ARM GAS   			page 205


 11389 00be 0E       	 .uleb128 0xe
 11390 00bf 3A       	 .uleb128 0x3a
 11391 00c0 0B       	 .uleb128 0xb
 11392 00c1 3B       	 .uleb128 0x3b
 11393 00c2 0B       	 .uleb128 0xb
 11394 00c3 39       	 .uleb128 0x39
 11395 00c4 0B       	 .uleb128 0xb
 11396 00c5 27       	 .uleb128 0x27
 11397 00c6 19       	 .uleb128 0x19
 11398 00c7 49       	 .uleb128 0x49
 11399 00c8 13       	 .uleb128 0x13
 11400 00c9 3C       	 .uleb128 0x3c
 11401 00ca 19       	 .uleb128 0x19
 11402 00cb 01       	 .uleb128 0x1
 11403 00cc 13       	 .uleb128 0x13
 11404 00cd 00       	 .byte 0
 11405 00ce 00       	 .byte 0
 11406 00cf 11       	 .uleb128 0x11
 11407 00d0 13       	 .uleb128 0x13
 11408 00d1 01       	 .byte 0x1
 11409 00d2 0B       	 .uleb128 0xb
 11410 00d3 0B       	 .uleb128 0xb
 11411 00d4 3A       	 .uleb128 0x3a
 11412 00d5 0B       	 .uleb128 0xb
 11413 00d6 3B       	 .uleb128 0x3b
 11414 00d7 05       	 .uleb128 0x5
 11415 00d8 39       	 .uleb128 0x39
 11416 00d9 0B       	 .uleb128 0xb
 11417 00da 01       	 .uleb128 0x1
 11418 00db 13       	 .uleb128 0x13
 11419 00dc 00       	 .byte 0
 11420 00dd 00       	 .byte 0
 11421 00de 12       	 .uleb128 0x12
 11422 00df 2E       	 .uleb128 0x2e
 11423 00e0 01       	 .byte 0x1
 11424 00e1 3F       	 .uleb128 0x3f
 11425 00e2 19       	 .uleb128 0x19
 11426 00e3 03       	 .uleb128 0x3
 11427 00e4 0E       	 .uleb128 0xe
 11428 00e5 3A       	 .uleb128 0x3a
 11429 00e6 0B       	 .uleb128 0xb
 11430 00e7 3B       	 .uleb128 0x3b
 11431 00e8 05       	 .uleb128 0x5
 11432 00e9 39       	 .uleb128 0x39
 11433 00ea 0B       	 .uleb128 0xb
 11434 00eb 27       	 .uleb128 0x27
 11435 00ec 19       	 .uleb128 0x19
 11436 00ed 49       	 .uleb128 0x49
 11437 00ee 13       	 .uleb128 0x13
 11438 00ef 3C       	 .uleb128 0x3c
 11439 00f0 19       	 .uleb128 0x19
 11440 00f1 01       	 .uleb128 0x1
 11441 00f2 13       	 .uleb128 0x13
 11442 00f3 00       	 .byte 0
 11443 00f4 00       	 .byte 0
 11444 00f5 13       	 .uleb128 0x13
 11445 00f6 13       	 .uleb128 0x13
ARM GAS   			page 206


 11446 00f7 01       	 .byte 0x1
 11447 00f8 03       	 .uleb128 0x3
 11448 00f9 0E       	 .uleb128 0xe
 11449 00fa 0B       	 .uleb128 0xb
 11450 00fb 0B       	 .uleb128 0xb
 11451 00fc 3A       	 .uleb128 0x3a
 11452 00fd 0B       	 .uleb128 0xb
 11453 00fe 3B       	 .uleb128 0x3b
 11454 00ff 0B       	 .uleb128 0xb
 11455 0100 39       	 .uleb128 0x39
 11456 0101 0B       	 .uleb128 0xb
 11457 0102 01       	 .uleb128 0x1
 11458 0103 13       	 .uleb128 0x13
 11459 0104 00       	 .byte 0
 11460 0105 00       	 .byte 0
 11461 0106 14       	 .uleb128 0x14
 11462 0107 34       	 .uleb128 0x34
 11463 0108 00       	 .byte 0
 11464 0109 03       	 .uleb128 0x3
 11465 010a 0E       	 .uleb128 0xe
 11466 010b 3A       	 .uleb128 0x3a
 11467 010c 0B       	 .uleb128 0xb
 11468 010d 3B       	 .uleb128 0x3b
 11469 010e 0B       	 .uleb128 0xb
 11470 010f 39       	 .uleb128 0x39
 11471 0110 0B       	 .uleb128 0xb
 11472 0111 49       	 .uleb128 0x49
 11473 0112 13       	 .uleb128 0x13
 11474 0113 02       	 .uleb128 0x2
 11475 0114 18       	 .uleb128 0x18
 11476 0115 00       	 .byte 0
 11477 0116 00       	 .byte 0
 11478 0117 15       	 .uleb128 0x15
 11479 0118 0D       	 .uleb128 0xd
 11480 0119 00       	 .byte 0
 11481 011a 03       	 .uleb128 0x3
 11482 011b 0E       	 .uleb128 0xe
 11483 011c 3A       	 .uleb128 0x3a
 11484 011d 0B       	 .uleb128 0xb
 11485 011e 3B       	 .uleb128 0x3b
 11486 011f 0B       	 .uleb128 0xb
 11487 0120 39       	 .uleb128 0x39
 11488 0121 0B       	 .uleb128 0xb
 11489 0122 49       	 .uleb128 0x49
 11490 0123 13       	 .uleb128 0x13
 11491 0124 00       	 .byte 0
 11492 0125 00       	 .byte 0
 11493 0126 16       	 .uleb128 0x16
 11494 0127 34       	 .uleb128 0x34
 11495 0128 00       	 .byte 0
 11496 0129 03       	 .uleb128 0x3
 11497 012a 0E       	 .uleb128 0xe
 11498 012b 3A       	 .uleb128 0x3a
 11499 012c 0B       	 .uleb128 0xb
 11500 012d 3B       	 .uleb128 0x3b
 11501 012e 05       	 .uleb128 0x5
 11502 012f 39       	 .uleb128 0x39
ARM GAS   			page 207


 11503 0130 0B       	 .uleb128 0xb
 11504 0131 49       	 .uleb128 0x49
 11505 0132 13       	 .uleb128 0x13
 11506 0133 3F       	 .uleb128 0x3f
 11507 0134 19       	 .uleb128 0x19
 11508 0135 3C       	 .uleb128 0x3c
 11509 0136 19       	 .uleb128 0x19
 11510 0137 00       	 .byte 0
 11511 0138 00       	 .byte 0
 11512 0139 17       	 .uleb128 0x17
 11513 013a 49       	 .uleb128 0x49
 11514 013b 00       	 .byte 0
 11515 013c 02       	 .uleb128 0x2
 11516 013d 18       	 .uleb128 0x18
 11517 013e 7E       	 .uleb128 0x7e
 11518 013f 18       	 .uleb128 0x18
 11519 0140 00       	 .byte 0
 11520 0141 00       	 .byte 0
 11521 0142 18       	 .uleb128 0x18
 11522 0143 13       	 .uleb128 0x13
 11523 0144 01       	 .byte 0x1
 11524 0145 03       	 .uleb128 0x3
 11525 0146 0E       	 .uleb128 0xe
 11526 0147 0B       	 .uleb128 0xb
 11527 0148 0B       	 .uleb128 0xb
 11528 0149 3A       	 .uleb128 0x3a
 11529 014a 0B       	 .uleb128 0xb
 11530 014b 3B       	 .uleb128 0x3b
 11531 014c 05       	 .uleb128 0x5
 11532 014d 39       	 .uleb128 0x39
 11533 014e 0B       	 .uleb128 0xb
 11534 014f 01       	 .uleb128 0x1
 11535 0150 13       	 .uleb128 0x13
 11536 0151 00       	 .byte 0
 11537 0152 00       	 .byte 0
 11538 0153 19       	 .uleb128 0x19
 11539 0154 48       	 .uleb128 0x48
 11540 0155 01       	 .byte 0x1
 11541 0156 7D       	 .uleb128 0x7d
 11542 0157 01       	 .uleb128 0x1
 11543 0158 7F       	 .uleb128 0x7f
 11544 0159 13       	 .uleb128 0x13
 11545 015a 01       	 .uleb128 0x1
 11546 015b 13       	 .uleb128 0x13
 11547 015c 00       	 .byte 0
 11548 015d 00       	 .byte 0
 11549 015e 1A       	 .uleb128 0x1a
 11550 015f 24       	 .uleb128 0x24
 11551 0160 00       	 .byte 0
 11552 0161 0B       	 .uleb128 0xb
 11553 0162 0B       	 .uleb128 0xb
 11554 0163 3E       	 .uleb128 0x3e
 11555 0164 0B       	 .uleb128 0xb
 11556 0165 03       	 .uleb128 0x3
 11557 0166 0E       	 .uleb128 0xe
 11558 0167 00       	 .byte 0
 11559 0168 00       	 .byte 0
ARM GAS   			page 208


 11560 0169 1B       	 .uleb128 0x1b
 11561 016a 2E       	 .uleb128 0x2e
 11562 016b 01       	 .byte 0x1
 11563 016c 3F       	 .uleb128 0x3f
 11564 016d 19       	 .uleb128 0x19
 11565 016e 03       	 .uleb128 0x3
 11566 016f 0E       	 .uleb128 0xe
 11567 0170 3A       	 .uleb128 0x3a
 11568 0171 0B       	 .uleb128 0xb
 11569 0172 3B       	 .uleb128 0x3b
 11570 0173 0B       	 .uleb128 0xb
 11571 0174 39       	 .uleb128 0x39
 11572 0175 21       	 .uleb128 0x21
 11573 0176 06       	 .sleb128 6
 11574 0177 27       	 .uleb128 0x27
 11575 0178 19       	 .uleb128 0x19
 11576 0179 3C       	 .uleb128 0x3c
 11577 017a 19       	 .uleb128 0x19
 11578 017b 01       	 .uleb128 0x1
 11579 017c 13       	 .uleb128 0x13
 11580 017d 00       	 .byte 0
 11581 017e 00       	 .byte 0
 11582 017f 1C       	 .uleb128 0x1c
 11583 0180 21       	 .uleb128 0x21
 11584 0181 00       	 .byte 0
 11585 0182 00       	 .byte 0
 11586 0183 00       	 .byte 0
 11587 0184 1D       	 .uleb128 0x1d
 11588 0185 2E       	 .uleb128 0x2e
 11589 0186 01       	 .byte 0x1
 11590 0187 3F       	 .uleb128 0x3f
 11591 0188 19       	 .uleb128 0x19
 11592 0189 03       	 .uleb128 0x3
 11593 018a 0E       	 .uleb128 0xe
 11594 018b 3A       	 .uleb128 0x3a
 11595 018c 0B       	 .uleb128 0xb
 11596 018d 3B       	 .uleb128 0x3b
 11597 018e 05       	 .uleb128 0x5
 11598 018f 39       	 .uleb128 0x39
 11599 0190 0B       	 .uleb128 0xb
 11600 0191 27       	 .uleb128 0x27
 11601 0192 19       	 .uleb128 0x19
 11602 0193 3C       	 .uleb128 0x3c
 11603 0194 19       	 .uleb128 0x19
 11604 0195 01       	 .uleb128 0x1
 11605 0196 13       	 .uleb128 0x13
 11606 0197 00       	 .byte 0
 11607 0198 00       	 .byte 0
 11608 0199 1E       	 .uleb128 0x1e
 11609 019a 0D       	 .uleb128 0xd
 11610 019b 00       	 .byte 0
 11611 019c 03       	 .uleb128 0x3
 11612 019d 0E       	 .uleb128 0xe
 11613 019e 3A       	 .uleb128 0x3a
 11614 019f 21       	 .uleb128 0x21
 11615 01a0 07       	 .sleb128 7
 11616 01a1 3B       	 .uleb128 0x3b
ARM GAS   			page 209


 11617 01a2 05       	 .uleb128 0x5
 11618 01a3 39       	 .uleb128 0x39
 11619 01a4 0B       	 .uleb128 0xb
 11620 01a5 49       	 .uleb128 0x49
 11621 01a6 13       	 .uleb128 0x13
 11622 01a7 38       	 .uleb128 0x38
 11623 01a8 05       	 .uleb128 0x5
 11624 01a9 00       	 .byte 0
 11625 01aa 00       	 .byte 0
 11626 01ab 1F       	 .uleb128 0x1f
 11627 01ac 04       	 .uleb128 0x4
 11628 01ad 01       	 .byte 0x1
 11629 01ae 3E       	 .uleb128 0x3e
 11630 01af 21       	 .uleb128 0x21
 11631 01b0 07       	 .sleb128 7
 11632 01b1 0B       	 .uleb128 0xb
 11633 01b2 21       	 .uleb128 0x21
 11634 01b3 04       	 .sleb128 4
 11635 01b4 49       	 .uleb128 0x49
 11636 01b5 13       	 .uleb128 0x13
 11637 01b6 3A       	 .uleb128 0x3a
 11638 01b7 0B       	 .uleb128 0xb
 11639 01b8 3B       	 .uleb128 0x3b
 11640 01b9 0B       	 .uleb128 0xb
 11641 01ba 39       	 .uleb128 0x39
 11642 01bb 21       	 .uleb128 0x21
 11643 01bc 0E       	 .sleb128 14
 11644 01bd 01       	 .uleb128 0x1
 11645 01be 13       	 .uleb128 0x13
 11646 01bf 00       	 .byte 0
 11647 01c0 00       	 .byte 0
 11648 01c1 20       	 .uleb128 0x20
 11649 01c2 17       	 .uleb128 0x17
 11650 01c3 01       	 .byte 0x1
 11651 01c4 0B       	 .uleb128 0xb
 11652 01c5 0B       	 .uleb128 0xb
 11653 01c6 3A       	 .uleb128 0x3a
 11654 01c7 0B       	 .uleb128 0xb
 11655 01c8 3B       	 .uleb128 0x3b
 11656 01c9 0B       	 .uleb128 0xb
 11657 01ca 39       	 .uleb128 0x39
 11658 01cb 0B       	 .uleb128 0xb
 11659 01cc 01       	 .uleb128 0x1
 11660 01cd 13       	 .uleb128 0x13
 11661 01ce 00       	 .byte 0
 11662 01cf 00       	 .byte 0
 11663 01d0 21       	 .uleb128 0x21
 11664 01d1 34       	 .uleb128 0x34
 11665 01d2 00       	 .byte 0
 11666 01d3 47       	 .uleb128 0x47
 11667 01d4 13       	 .uleb128 0x13
 11668 01d5 3A       	 .uleb128 0x3a
 11669 01d6 0B       	 .uleb128 0xb
 11670 01d7 3B       	 .uleb128 0x3b
 11671 01d8 0B       	 .uleb128 0xb
 11672 01d9 39       	 .uleb128 0x39
 11673 01da 0B       	 .uleb128 0xb
ARM GAS   			page 210


 11674 01db 49       	 .uleb128 0x49
 11675 01dc 13       	 .uleb128 0x13
 11676 01dd 02       	 .uleb128 0x2
 11677 01de 18       	 .uleb128 0x18
 11678 01df 00       	 .byte 0
 11679 01e0 00       	 .byte 0
 11680 01e1 22       	 .uleb128 0x22
 11681 01e2 0D       	 .uleb128 0xd
 11682 01e3 00       	 .byte 0
 11683 01e4 03       	 .uleb128 0x3
 11684 01e5 08       	 .uleb128 0x8
 11685 01e6 3A       	 .uleb128 0x3a
 11686 01e7 0B       	 .uleb128 0xb
 11687 01e8 3B       	 .uleb128 0x3b
 11688 01e9 0B       	 .uleb128 0xb
 11689 01ea 39       	 .uleb128 0x39
 11690 01eb 0B       	 .uleb128 0xb
 11691 01ec 49       	 .uleb128 0x49
 11692 01ed 13       	 .uleb128 0x13
 11693 01ee 38       	 .uleb128 0x38
 11694 01ef 0B       	 .uleb128 0xb
 11695 01f0 00       	 .byte 0
 11696 01f1 00       	 .byte 0
 11697 01f2 23       	 .uleb128 0x23
 11698 01f3 0D       	 .uleb128 0xd
 11699 01f4 00       	 .byte 0
 11700 01f5 03       	 .uleb128 0x3
 11701 01f6 0E       	 .uleb128 0xe
 11702 01f7 3A       	 .uleb128 0x3a
 11703 01f8 0B       	 .uleb128 0xb
 11704 01f9 3B       	 .uleb128 0x3b
 11705 01fa 05       	 .uleb128 0x5
 11706 01fb 39       	 .uleb128 0x39
 11707 01fc 0B       	 .uleb128 0xb
 11708 01fd 49       	 .uleb128 0x49
 11709 01fe 13       	 .uleb128 0x13
 11710 01ff 00       	 .byte 0
 11711 0200 00       	 .byte 0
 11712 0201 24       	 .uleb128 0x24
 11713 0202 48       	 .uleb128 0x48
 11714 0203 00       	 .byte 0
 11715 0204 7D       	 .uleb128 0x7d
 11716 0205 01       	 .uleb128 0x1
 11717 0206 7F       	 .uleb128 0x7f
 11718 0207 13       	 .uleb128 0x13
 11719 0208 00       	 .byte 0
 11720 0209 00       	 .byte 0
 11721 020a 25       	 .uleb128 0x25
 11722 020b 34       	 .uleb128 0x34
 11723 020c 00       	 .byte 0
 11724 020d 03       	 .uleb128 0x3
 11725 020e 0E       	 .uleb128 0xe
 11726 020f 3A       	 .uleb128 0x3a
 11727 0210 0B       	 .uleb128 0xb
 11728 0211 3B       	 .uleb128 0x3b
 11729 0212 0B       	 .uleb128 0xb
 11730 0213 39       	 .uleb128 0x39
ARM GAS   			page 211


 11731 0214 0B       	 .uleb128 0xb
 11732 0215 49       	 .uleb128 0x49
 11733 0216 13       	 .uleb128 0x13
 11734 0217 3F       	 .uleb128 0x3f
 11735 0218 19       	 .uleb128 0x19
 11736 0219 8801     	 .uleb128 0x88
 11737 021b 21       	 .uleb128 0x21
 11738 021c 04       	 .sleb128 4
 11739 021d 02       	 .uleb128 0x2
 11740 021e 18       	 .uleb128 0x18
 11741 021f 00       	 .byte 0
 11742 0220 00       	 .byte 0
 11743 0221 26       	 .uleb128 0x26
 11744 0222 0D       	 .uleb128 0xd
 11745 0223 00       	 .byte 0
 11746 0224 03       	 .uleb128 0x3
 11747 0225 0E       	 .uleb128 0xe
 11748 0226 3A       	 .uleb128 0x3a
 11749 0227 21       	 .uleb128 0x21
 11750 0228 C600     	 .sleb128 70
 11751 022a 3B       	 .uleb128 0x3b
 11752 022b 0B       	 .uleb128 0xb
 11753 022c 39       	 .uleb128 0x39
 11754 022d 0B       	 .uleb128 0xb
 11755 022e 49       	 .uleb128 0x49
 11756 022f 13       	 .uleb128 0x13
 11757 0230 38       	 .uleb128 0x38
 11758 0231 05       	 .uleb128 0x5
 11759 0232 00       	 .byte 0
 11760 0233 00       	 .byte 0
 11761 0234 27       	 .uleb128 0x27
 11762 0235 34       	 .uleb128 0x34
 11763 0236 00       	 .byte 0
 11764 0237 03       	 .uleb128 0x3
 11765 0238 0E       	 .uleb128 0xe
 11766 0239 3A       	 .uleb128 0x3a
 11767 023a 0B       	 .uleb128 0xb
 11768 023b 3B       	 .uleb128 0x3b
 11769 023c 05       	 .uleb128 0x5
 11770 023d 39       	 .uleb128 0x39
 11771 023e 0B       	 .uleb128 0xb
 11772 023f 49       	 .uleb128 0x49
 11773 0240 13       	 .uleb128 0x13
 11774 0241 02       	 .uleb128 0x2
 11775 0242 18       	 .uleb128 0x18
 11776 0243 00       	 .byte 0
 11777 0244 00       	 .byte 0
 11778 0245 28       	 .uleb128 0x28
 11779 0246 2E       	 .uleb128 0x2e
 11780 0247 00       	 .byte 0
 11781 0248 3F       	 .uleb128 0x3f
 11782 0249 19       	 .uleb128 0x19
 11783 024a 03       	 .uleb128 0x3
 11784 024b 0E       	 .uleb128 0xe
 11785 024c 3A       	 .uleb128 0x3a
 11786 024d 0B       	 .uleb128 0xb
 11787 024e 3B       	 .uleb128 0x3b
ARM GAS   			page 212


 11788 024f 0B       	 .uleb128 0xb
 11789 0250 39       	 .uleb128 0x39
 11790 0251 21       	 .uleb128 0x21
 11791 0252 06       	 .sleb128 6
 11792 0253 27       	 .uleb128 0x27
 11793 0254 19       	 .uleb128 0x19
 11794 0255 3C       	 .uleb128 0x3c
 11795 0256 19       	 .uleb128 0x19
 11796 0257 00       	 .byte 0
 11797 0258 00       	 .byte 0
 11798 0259 29       	 .uleb128 0x29
 11799 025a 04       	 .uleb128 0x4
 11800 025b 01       	 .byte 0x1
 11801 025c 3E       	 .uleb128 0x3e
 11802 025d 21       	 .uleb128 0x21
 11803 025e 07       	 .sleb128 7
 11804 025f 0B       	 .uleb128 0xb
 11805 0260 21       	 .uleb128 0x21
 11806 0261 04       	 .sleb128 4
 11807 0262 49       	 .uleb128 0x49
 11808 0263 13       	 .uleb128 0x13
 11809 0264 3A       	 .uleb128 0x3a
 11810 0265 0B       	 .uleb128 0xb
 11811 0266 3B       	 .uleb128 0x3b
 11812 0267 05       	 .uleb128 0x5
 11813 0268 39       	 .uleb128 0x39
 11814 0269 21       	 .uleb128 0x21
 11815 026a 0E       	 .sleb128 14
 11816 026b 01       	 .uleb128 0x1
 11817 026c 13       	 .uleb128 0x13
 11818 026d 00       	 .byte 0
 11819 026e 00       	 .byte 0
 11820 026f 2A       	 .uleb128 0x2a
 11821 0270 34       	 .uleb128 0x34
 11822 0271 00       	 .byte 0
 11823 0272 47       	 .uleb128 0x47
 11824 0273 13       	 .uleb128 0x13
 11825 0274 3A       	 .uleb128 0x3a
 11826 0275 0B       	 .uleb128 0xb
 11827 0276 3B       	 .uleb128 0x3b
 11828 0277 05       	 .uleb128 0x5
 11829 0278 39       	 .uleb128 0x39
 11830 0279 0B       	 .uleb128 0xb
 11831 027a 02       	 .uleb128 0x2
 11832 027b 18       	 .uleb128 0x18
 11833 027c 00       	 .byte 0
 11834 027d 00       	 .byte 0
 11835 027e 2B       	 .uleb128 0x2b
 11836 027f 2E       	 .uleb128 0x2e
 11837 0280 00       	 .byte 0
 11838 0281 3F       	 .uleb128 0x3f
 11839 0282 19       	 .uleb128 0x19
 11840 0283 03       	 .uleb128 0x3
 11841 0284 0E       	 .uleb128 0xe
 11842 0285 3A       	 .uleb128 0x3a
 11843 0286 0B       	 .uleb128 0xb
 11844 0287 3B       	 .uleb128 0x3b
ARM GAS   			page 213


 11845 0288 0B       	 .uleb128 0xb
 11846 0289 39       	 .uleb128 0x39
 11847 028a 0B       	 .uleb128 0xb
 11848 028b 27       	 .uleb128 0x27
 11849 028c 19       	 .uleb128 0x19
 11850 028d 49       	 .uleb128 0x49
 11851 028e 13       	 .uleb128 0x13
 11852 028f 3C       	 .uleb128 0x3c
 11853 0290 19       	 .uleb128 0x19
 11854 0291 00       	 .byte 0
 11855 0292 00       	 .byte 0
 11856 0293 2C       	 .uleb128 0x2c
 11857 0294 21       	 .uleb128 0x21
 11858 0295 00       	 .byte 0
 11859 0296 49       	 .uleb128 0x49
 11860 0297 13       	 .uleb128 0x13
 11861 0298 00       	 .byte 0
 11862 0299 00       	 .byte 0
 11863 029a 2D       	 .uleb128 0x2d
 11864 029b 0D       	 .uleb128 0xd
 11865 029c 00       	 .byte 0
 11866 029d 03       	 .uleb128 0x3
 11867 029e 08       	 .uleb128 0x8
 11868 029f 3A       	 .uleb128 0x3a
 11869 02a0 0B       	 .uleb128 0xb
 11870 02a1 3B       	 .uleb128 0x3b
 11871 02a2 05       	 .uleb128 0x5
 11872 02a3 39       	 .uleb128 0x39
 11873 02a4 0B       	 .uleb128 0xb
 11874 02a5 49       	 .uleb128 0x49
 11875 02a6 13       	 .uleb128 0x13
 11876 02a7 38       	 .uleb128 0x38
 11877 02a8 0B       	 .uleb128 0xb
 11878 02a9 00       	 .byte 0
 11879 02aa 00       	 .byte 0
 11880 02ab 2E       	 .uleb128 0x2e
 11881 02ac 21       	 .uleb128 0x21
 11882 02ad 00       	 .byte 0
 11883 02ae 49       	 .uleb128 0x49
 11884 02af 13       	 .uleb128 0x13
 11885 02b0 2F       	 .uleb128 0x2f
 11886 02b1 05       	 .uleb128 0x5
 11887 02b2 00       	 .byte 0
 11888 02b3 00       	 .byte 0
 11889 02b4 2F       	 .uleb128 0x2f
 11890 02b5 17       	 .uleb128 0x17
 11891 02b6 01       	 .byte 0x1
 11892 02b7 0B       	 .uleb128 0xb
 11893 02b8 0B       	 .uleb128 0xb
 11894 02b9 3A       	 .uleb128 0x3a
 11895 02ba 0B       	 .uleb128 0xb
 11896 02bb 3B       	 .uleb128 0x3b
 11897 02bc 05       	 .uleb128 0x5
 11898 02bd 39       	 .uleb128 0x39
 11899 02be 0B       	 .uleb128 0xb
 11900 02bf 01       	 .uleb128 0x1
 11901 02c0 13       	 .uleb128 0x13
ARM GAS   			page 214


 11902 02c1 00       	 .byte 0
 11903 02c2 00       	 .byte 0
 11904 02c3 30       	 .uleb128 0x30
 11905 02c4 35       	 .uleb128 0x35
 11906 02c5 00       	 .byte 0
 11907 02c6 49       	 .uleb128 0x49
 11908 02c7 13       	 .uleb128 0x13
 11909 02c8 00       	 .byte 0
 11910 02c9 00       	 .byte 0
 11911 02ca 31       	 .uleb128 0x31
 11912 02cb 13       	 .uleb128 0x13
 11913 02cc 00       	 .byte 0
 11914 02cd 03       	 .uleb128 0x3
 11915 02ce 0E       	 .uleb128 0xe
 11916 02cf 3C       	 .uleb128 0x3c
 11917 02d0 19       	 .uleb128 0x19
 11918 02d1 00       	 .byte 0
 11919 02d2 00       	 .byte 0
 11920 02d3 32       	 .uleb128 0x32
 11921 02d4 34       	 .uleb128 0x34
 11922 02d5 00       	 .byte 0
 11923 02d6 47       	 .uleb128 0x47
 11924 02d7 13       	 .uleb128 0x13
 11925 02d8 3B       	 .uleb128 0x3b
 11926 02d9 0B       	 .uleb128 0xb
 11927 02da 39       	 .uleb128 0x39
 11928 02db 0B       	 .uleb128 0xb
 11929 02dc 49       	 .uleb128 0x49
 11930 02dd 13       	 .uleb128 0x13
 11931 02de 02       	 .uleb128 0x2
 11932 02df 18       	 .uleb128 0x18
 11933 02e0 00       	 .byte 0
 11934 02e1 00       	 .byte 0
 11935 02e2 33       	 .uleb128 0x33
 11936 02e3 34       	 .uleb128 0x34
 11937 02e4 00       	 .byte 0
 11938 02e5 47       	 .uleb128 0x47
 11939 02e6 13       	 .uleb128 0x13
 11940 02e7 3A       	 .uleb128 0x3a
 11941 02e8 21       	 .uleb128 0x21
 11942 02e9 D700     	 .sleb128 87
 11943 02eb 3B       	 .uleb128 0x3b
 11944 02ec 05       	 .uleb128 0x5
 11945 02ed 39       	 .uleb128 0x39
 11946 02ee 0B       	 .uleb128 0xb
 11947 02ef 49       	 .uleb128 0x49
 11948 02f0 13       	 .uleb128 0x13
 11949 02f1 02       	 .uleb128 0x2
 11950 02f2 18       	 .uleb128 0x18
 11951 02f3 00       	 .byte 0
 11952 02f4 00       	 .byte 0
 11953 02f5 34       	 .uleb128 0x34
 11954 02f6 2E       	 .uleb128 0x2e
 11955 02f7 00       	 .byte 0
 11956 02f8 3F       	 .uleb128 0x3f
 11957 02f9 19       	 .uleb128 0x19
 11958 02fa 03       	 .uleb128 0x3
ARM GAS   			page 215


 11959 02fb 0E       	 .uleb128 0xe
 11960 02fc 3A       	 .uleb128 0x3a
 11961 02fd 0B       	 .uleb128 0xb
 11962 02fe 3B       	 .uleb128 0x3b
 11963 02ff 05       	 .uleb128 0x5
 11964 0300 39       	 .uleb128 0x39
 11965 0301 21       	 .uleb128 0x21
 11966 0302 06       	 .sleb128 6
 11967 0303 27       	 .uleb128 0x27
 11968 0304 19       	 .uleb128 0x19
 11969 0305 3C       	 .uleb128 0x3c
 11970 0306 19       	 .uleb128 0x19
 11971 0307 00       	 .byte 0
 11972 0308 00       	 .byte 0
 11973 0309 35       	 .uleb128 0x35
 11974 030a 2E       	 .uleb128 0x2e
 11975 030b 00       	 .byte 0
 11976 030c 3F       	 .uleb128 0x3f
 11977 030d 19       	 .uleb128 0x19
 11978 030e 3C       	 .uleb128 0x3c
 11979 030f 19       	 .uleb128 0x19
 11980 0310 6E       	 .uleb128 0x6e
 11981 0311 0E       	 .uleb128 0xe
 11982 0312 03       	 .uleb128 0x3
 11983 0313 0E       	 .uleb128 0xe
 11984 0314 3A       	 .uleb128 0x3a
 11985 0315 21       	 .uleb128 0x21
 11986 0316 ED00     	 .sleb128 109
 11987 0318 3B       	 .uleb128 0x3b
 11988 0319 21       	 .uleb128 0x21
 11989 031a 00       	 .sleb128 0
 11990 031b 00       	 .byte 0
 11991 031c 00       	 .byte 0
 11992 031d 36       	 .uleb128 0x36
 11993 031e 11       	 .uleb128 0x11
 11994 031f 01       	 .byte 0x1
 11995 0320 25       	 .uleb128 0x25
 11996 0321 0E       	 .uleb128 0xe
 11997 0322 13       	 .uleb128 0x13
 11998 0323 0B       	 .uleb128 0xb
 11999 0324 03       	 .uleb128 0x3
 12000 0325 0E       	 .uleb128 0xe
 12001 0326 1B       	 .uleb128 0x1b
 12002 0327 0E       	 .uleb128 0xe
 12003 0328 11       	 .uleb128 0x11
 12004 0329 01       	 .uleb128 0x1
 12005 032a 12       	 .uleb128 0x12
 12006 032b 06       	 .uleb128 0x6
 12007 032c 10       	 .uleb128 0x10
 12008 032d 17       	 .uleb128 0x17
 12009 032e 00       	 .byte 0
 12010 032f 00       	 .byte 0
 12011 0330 37       	 .uleb128 0x37
 12012 0331 24       	 .uleb128 0x24
 12013 0332 00       	 .byte 0
 12014 0333 0B       	 .uleb128 0xb
 12015 0334 0B       	 .uleb128 0xb
ARM GAS   			page 216


 12016 0335 3E       	 .uleb128 0x3e
 12017 0336 0B       	 .uleb128 0xb
 12018 0337 03       	 .uleb128 0x3
 12019 0338 08       	 .uleb128 0x8
 12020 0339 00       	 .byte 0
 12021 033a 00       	 .byte 0
 12022 033b 38       	 .uleb128 0x38
 12023 033c 0F       	 .uleb128 0xf
 12024 033d 00       	 .byte 0
 12025 033e 0B       	 .uleb128 0xb
 12026 033f 0B       	 .uleb128 0xb
 12027 0340 00       	 .byte 0
 12028 0341 00       	 .byte 0
 12029 0342 39       	 .uleb128 0x39
 12030 0343 13       	 .uleb128 0x13
 12031 0344 01       	 .byte 0x1
 12032 0345 03       	 .uleb128 0x3
 12033 0346 0E       	 .uleb128 0xe
 12034 0347 0B       	 .uleb128 0xb
 12035 0348 05       	 .uleb128 0x5
 12036 0349 3A       	 .uleb128 0x3a
 12037 034a 0B       	 .uleb128 0xb
 12038 034b 3B       	 .uleb128 0x3b
 12039 034c 05       	 .uleb128 0x5
 12040 034d 39       	 .uleb128 0x39
 12041 034e 0B       	 .uleb128 0xb
 12042 034f 01       	 .uleb128 0x1
 12043 0350 13       	 .uleb128 0x13
 12044 0351 00       	 .byte 0
 12045 0352 00       	 .byte 0
 12046 0353 3A       	 .uleb128 0x3a
 12047 0354 15       	 .uleb128 0x15
 12048 0355 00       	 .byte 0
 12049 0356 27       	 .uleb128 0x27
 12050 0357 19       	 .uleb128 0x19
 12051 0358 00       	 .byte 0
 12052 0359 00       	 .byte 0
 12053 035a 3B       	 .uleb128 0x3b
 12054 035b 26       	 .uleb128 0x26
 12055 035c 00       	 .byte 0
 12056 035d 00       	 .byte 0
 12057 035e 00       	 .byte 0
 12058 035f 3C       	 .uleb128 0x3c
 12059 0360 28       	 .uleb128 0x28
 12060 0361 00       	 .byte 0
 12061 0362 03       	 .uleb128 0x3
 12062 0363 0E       	 .uleb128 0xe
 12063 0364 1C       	 .uleb128 0x1c
 12064 0365 06       	 .uleb128 0x6
 12065 0366 00       	 .byte 0
 12066 0367 00       	 .byte 0
 12067 0368 3D       	 .uleb128 0x3d
 12068 0369 13       	 .uleb128 0x13
 12069 036a 00       	 .byte 0
 12070 036b 0B       	 .uleb128 0xb
 12071 036c 0B       	 .uleb128 0xb
 12072 036d 3A       	 .uleb128 0x3a
ARM GAS   			page 217


 12073 036e 0B       	 .uleb128 0xb
 12074 036f 3B       	 .uleb128 0x3b
 12075 0370 05       	 .uleb128 0x5
 12076 0371 39       	 .uleb128 0x39
 12077 0372 0B       	 .uleb128 0xb
 12078 0373 00       	 .byte 0
 12079 0374 00       	 .byte 0
 12080 0375 3E       	 .uleb128 0x3e
 12081 0376 34       	 .uleb128 0x34
 12082 0377 00       	 .byte 0
 12083 0378 47       	 .uleb128 0x47
 12084 0379 13       	 .uleb128 0x13
 12085 037a 3A       	 .uleb128 0x3a
 12086 037b 0B       	 .uleb128 0xb
 12087 037c 39       	 .uleb128 0x39
 12088 037d 0B       	 .uleb128 0xb
 12089 037e 02       	 .uleb128 0x2
 12090 037f 18       	 .uleb128 0x18
 12091 0380 00       	 .byte 0
 12092 0381 00       	 .byte 0
 12093 0382 3F       	 .uleb128 0x3f
 12094 0383 0D       	 .uleb128 0xd
 12095 0384 00       	 .byte 0
 12096 0385 03       	 .uleb128 0x3
 12097 0386 08       	 .uleb128 0x8
 12098 0387 3A       	 .uleb128 0x3a
 12099 0388 0B       	 .uleb128 0xb
 12100 0389 3B       	 .uleb128 0x3b
 12101 038a 05       	 .uleb128 0x5
 12102 038b 39       	 .uleb128 0x39
 12103 038c 0B       	 .uleb128 0xb
 12104 038d 49       	 .uleb128 0x49
 12105 038e 13       	 .uleb128 0x13
 12106 038f 00       	 .byte 0
 12107 0390 00       	 .byte 0
 12108 0391 40       	 .uleb128 0x40
 12109 0392 13       	 .uleb128 0x13
 12110 0393 01       	 .byte 0x1
 12111 0394 03       	 .uleb128 0x3
 12112 0395 0E       	 .uleb128 0xe
 12113 0396 0B       	 .uleb128 0xb
 12114 0397 05       	 .uleb128 0x5
 12115 0398 3A       	 .uleb128 0x3a
 12116 0399 0B       	 .uleb128 0xb
 12117 039a 3B       	 .uleb128 0x3b
 12118 039b 0B       	 .uleb128 0xb
 12119 039c 39       	 .uleb128 0x39
 12120 039d 0B       	 .uleb128 0xb
 12121 039e 01       	 .uleb128 0x1
 12122 039f 13       	 .uleb128 0x13
 12123 03a0 00       	 .byte 0
 12124 03a1 00       	 .byte 0
 12125 03a2 41       	 .uleb128 0x41
 12126 03a3 13       	 .uleb128 0x13
 12127 03a4 01       	 .byte 0x1
 12128 03a5 0B       	 .uleb128 0xb
 12129 03a6 05       	 .uleb128 0x5
ARM GAS   			page 218


 12130 03a7 3A       	 .uleb128 0x3a
 12131 03a8 0B       	 .uleb128 0xb
 12132 03a9 3B       	 .uleb128 0x3b
 12133 03aa 0B       	 .uleb128 0xb
 12134 03ab 39       	 .uleb128 0x39
 12135 03ac 0B       	 .uleb128 0xb
 12136 03ad 01       	 .uleb128 0x1
 12137 03ae 13       	 .uleb128 0x13
 12138 03af 00       	 .byte 0
 12139 03b0 00       	 .byte 0
 12140 03b1 42       	 .uleb128 0x42
 12141 03b2 34       	 .uleb128 0x34
 12142 03b3 00       	 .byte 0
 12143 03b4 03       	 .uleb128 0x3
 12144 03b5 0E       	 .uleb128 0xe
 12145 03b6 3A       	 .uleb128 0x3a
 12146 03b7 0B       	 .uleb128 0xb
 12147 03b8 3B       	 .uleb128 0x3b
 12148 03b9 05       	 .uleb128 0x5
 12149 03ba 39       	 .uleb128 0x39
 12150 03bb 0B       	 .uleb128 0xb
 12151 03bc 49       	 .uleb128 0x49
 12152 03bd 13       	 .uleb128 0x13
 12153 03be 3F       	 .uleb128 0x3f
 12154 03bf 19       	 .uleb128 0x19
 12155 03c0 8801     	 .uleb128 0x88
 12156 03c2 0B       	 .uleb128 0xb
 12157 03c3 02       	 .uleb128 0x2
 12158 03c4 18       	 .uleb128 0x18
 12159 03c5 00       	 .byte 0
 12160 03c6 00       	 .byte 0
 12161 03c7 43       	 .uleb128 0x43
 12162 03c8 2E       	 .uleb128 0x2e
 12163 03c9 01       	 .byte 0x1
 12164 03ca 3F       	 .uleb128 0x3f
 12165 03cb 19       	 .uleb128 0x19
 12166 03cc 03       	 .uleb128 0x3
 12167 03cd 0E       	 .uleb128 0xe
 12168 03ce 3A       	 .uleb128 0x3a
 12169 03cf 0B       	 .uleb128 0xb
 12170 03d0 3B       	 .uleb128 0x3b
 12171 03d1 0B       	 .uleb128 0xb
 12172 03d2 39       	 .uleb128 0x39
 12173 03d3 0B       	 .uleb128 0xb
 12174 03d4 27       	 .uleb128 0x27
 12175 03d5 19       	 .uleb128 0x19
 12176 03d6 8701     	 .uleb128 0x87
 12177 03d8 19       	 .uleb128 0x19
 12178 03d9 3C       	 .uleb128 0x3c
 12179 03da 19       	 .uleb128 0x19
 12180 03db 01       	 .uleb128 0x1
 12181 03dc 13       	 .uleb128 0x13
 12182 03dd 00       	 .byte 0
 12183 03de 00       	 .byte 0
 12184 03df 44       	 .uleb128 0x44
 12185 03e0 18       	 .uleb128 0x18
 12186 03e1 00       	 .byte 0
ARM GAS   			page 219


 12187 03e2 00       	 .byte 0
 12188 03e3 00       	 .byte 0
 12189 03e4 45       	 .uleb128 0x45
 12190 03e5 2E       	 .uleb128 0x2e
 12191 03e6 01       	 .byte 0x1
 12192 03e7 3F       	 .uleb128 0x3f
 12193 03e8 19       	 .uleb128 0x19
 12194 03e9 03       	 .uleb128 0x3
 12195 03ea 0E       	 .uleb128 0xe
 12196 03eb 3A       	 .uleb128 0x3a
 12197 03ec 0B       	 .uleb128 0xb
 12198 03ed 3B       	 .uleb128 0x3b
 12199 03ee 0B       	 .uleb128 0xb
 12200 03ef 39       	 .uleb128 0x39
 12201 03f0 0B       	 .uleb128 0xb
 12202 03f1 27       	 .uleb128 0x27
 12203 03f2 19       	 .uleb128 0x19
 12204 03f3 11       	 .uleb128 0x11
 12205 03f4 01       	 .uleb128 0x1
 12206 03f5 12       	 .uleb128 0x12
 12207 03f6 06       	 .uleb128 0x6
 12208 03f7 40       	 .uleb128 0x40
 12209 03f8 18       	 .uleb128 0x18
 12210 03f9 7A       	 .uleb128 0x7a
 12211 03fa 19       	 .uleb128 0x19
 12212 03fb 01       	 .uleb128 0x1
 12213 03fc 13       	 .uleb128 0x13
 12214 03fd 00       	 .byte 0
 12215 03fe 00       	 .byte 0
 12216 03ff 46       	 .uleb128 0x46
 12217 0400 05       	 .uleb128 0x5
 12218 0401 00       	 .byte 0
 12219 0402 03       	 .uleb128 0x3
 12220 0403 0E       	 .uleb128 0xe
 12221 0404 3A       	 .uleb128 0x3a
 12222 0405 0B       	 .uleb128 0xb
 12223 0406 3B       	 .uleb128 0x3b
 12224 0407 0B       	 .uleb128 0xb
 12225 0408 39       	 .uleb128 0x39
 12226 0409 0B       	 .uleb128 0xb
 12227 040a 49       	 .uleb128 0x49
 12228 040b 13       	 .uleb128 0x13
 12229 040c 02       	 .uleb128 0x2
 12230 040d 17       	 .uleb128 0x17
 12231 040e B742     	 .uleb128 0x2137
 12232 0410 17       	 .uleb128 0x17
 12233 0411 00       	 .byte 0
 12234 0412 00       	 .byte 0
 12235 0413 47       	 .uleb128 0x47
 12236 0414 34       	 .uleb128 0x34
 12237 0415 00       	 .byte 0
 12238 0416 03       	 .uleb128 0x3
 12239 0417 0E       	 .uleb128 0xe
 12240 0418 3A       	 .uleb128 0x3a
 12241 0419 0B       	 .uleb128 0xb
 12242 041a 3B       	 .uleb128 0x3b
 12243 041b 0B       	 .uleb128 0xb
ARM GAS   			page 220


 12244 041c 39       	 .uleb128 0x39
 12245 041d 0B       	 .uleb128 0xb
 12246 041e 49       	 .uleb128 0x49
 12247 041f 13       	 .uleb128 0x13
 12248 0420 02       	 .uleb128 0x2
 12249 0421 17       	 .uleb128 0x17
 12250 0422 B742     	 .uleb128 0x2137
 12251 0424 17       	 .uleb128 0x17
 12252 0425 00       	 .byte 0
 12253 0426 00       	 .byte 0
 12254 0427 48       	 .uleb128 0x48
 12255 0428 48       	 .uleb128 0x48
 12256 0429 01       	 .byte 0x1
 12257 042a 7D       	 .uleb128 0x7d
 12258 042b 01       	 .uleb128 0x1
 12259 042c 7F       	 .uleb128 0x7f
 12260 042d 13       	 .uleb128 0x13
 12261 042e 00       	 .byte 0
 12262 042f 00       	 .byte 0
 12263 0430 00       	 .byte 0
 12264              	 .section .debug_loclists,"",%progbits
 12265 0000 34000000 	 .4byte .Ldebug_loc3-.Ldebug_loc2
 12266              	.Ldebug_loc2:
 12267 0004 0500     	 .2byte 0x5
 12268 0006 04       	 .byte 0x4
 12269 0007 00       	 .byte 0
 12270 0008 00000000 	 .4byte 0
 12271              	.Ldebug_loc0:
 12272              	.LVUS0:
 12273 000c 00       	 .uleb128 0
 12274 000d 00       	 .uleb128 .LVU5
 12275 000e 00       	 .uleb128 .LVU5
 12276 000f 00       	 .uleb128 0
 12277              	.LLST0:
 12278 0010 04       	 .byte 0x4
 12279 0011 00       	 .uleb128 .LVL0-.Ltext0
 12280 0012 08       	 .uleb128 .LVL1-.Ltext0
 12281 0013 01       	 .uleb128 0x1
 12282 0014 50       	 .byte 0x50
 12283 0015 04       	 .byte 0x4
 12284 0016 08       	 .uleb128 .LVL1-.Ltext0
 12285 0017 D401     	 .uleb128 .LFE430-.Ltext0
 12286 0019 0A       	 .uleb128 0xa
 12287 001a A3       	 .byte 0xa3
 12288 001b 03       	 .uleb128 0x3
 12289 001c A5       	 .byte 0xa5
 12290 001d 00       	 .uleb128 0
 12291 001e 26       	 .uleb128 0x26
 12292 001f A8       	 .byte 0xa8
 12293 0020 2D       	 .uleb128 0x2d
 12294 0021 A8       	 .byte 0xa8
 12295 0022 00       	 .uleb128 0
 12296 0023 9F       	 .byte 0x9f
 12297 0024 00       	 .byte 0
 12298              	.LVUS1:
 12299 0025 00       	 .uleb128 .LVU28
 12300 0026 00       	 .uleb128 .LVU29
ARM GAS   			page 221


 12301 0027 00       	 .uleb128 .LVU29
 12302 0028 00       	 .uleb128 .LVU30
 12303              	.LLST1:
 12304 0029 04       	 .byte 0x4
 12305 002a C001     	 .uleb128 .LVL20-.Ltext0
 12306 002c C401     	 .uleb128 .LVL21-.Ltext0
 12307 002e 01       	 .uleb128 0x1
 12308 002f 50       	 .byte 0x50
 12309 0030 04       	 .byte 0x4
 12310 0031 C401     	 .uleb128 .LVL21-.Ltext0
 12311 0033 CB01     	 .uleb128 .LVL22-1-.Ltext0
 12312 0035 01       	 .uleb128 0x1
 12313 0036 51       	 .byte 0x51
 12314 0037 00       	 .byte 0
 12315              	.Ldebug_loc3:
 12316              	 .section .debug_aranges,"",%progbits
 12317 0000 1C000000 	 .4byte 0x1c
 12318 0004 0200     	 .2byte 0x2
 12319 0006 00000000 	 .4byte .Ldebug_info0
 12320 000a 04       	 .byte 0x4
 12321 000b 00       	 .byte 0
 12322 000c 0000     	 .2byte 0
 12323 000e 0000     	 .2byte 0
 12324 0010 00000000 	 .4byte .Ltext0
 12325 0014 D4000000 	 .4byte .Letext0-.Ltext0
 12326 0018 00000000 	 .4byte 0
 12327 001c 00000000 	 .4byte 0
 12328              	 .section .debug_line,"",%progbits
 12329              	.Ldebug_line0:
 12330 0000 D3080000 	 .section .debug_str,"MS",%progbits,1
 12330      03007008 
 12330      00000201 
 12330      FB0E0D00 
 12330      01010101 
 12331              	.LASF917:
 12332 0000 6D657373 	 .ascii "message_queue\000"
 12332      6167655F 
 12332      71756575 
 12332      6500
 12333              	.LASF722:
 12334 000e 4B65795F 	 .ascii "Key_value_pairs\000"
 12334      76616C75 
 12334      655F7061 
 12334      69727300 
 12335              	.LASF734:
 12336 001e 726F6F74 	 .ascii "root_directory\000"
 12336      5F646972 
 12336      6563746F 
 12336      727900
 12337              	.LASF365:
 12338 002d 665F6666 	 .ascii "f_ffree\000"
 12338      72656500 
 12339              	.LASF873:
 12340 0035 73746174 	 .ascii "stat_atime\000"
 12340      5F617469 
 12340      6D6500
 12341              	.LASF380:
ARM GAS   			page 222


 12342 0040 72656375 	 .ascii "recursionlevel\000"
 12342      7273696F 
 12342      6E6C6576 
 12342      656C00
 12343              	.LASF137:
 12344 004f 7274656D 	 .ascii "rtems_id\000"
 12344      735F6964 
 12344      00
 12345              	.LASF13:
 12346 0058 5F5F696E 	 .ascii "__int_least64_t\000"
 12346      745F6C65 
 12346      61737436 
 12346      345F7400 
 12347              	.LASF557:
 12348 0068 5045525F 	 .ascii "PER_CPU_WATCHDOG_MONOTONIC\000"
 12348      4350555F 
 12348      57415443 
 12348      48444F47 
 12348      5F4D4F4E 
 12349              	.LASF498:
 12350 0083 7274656D 	 .ascii "rtems_shell_MSDOSFMT_Alias\000"
 12350      735F7368 
 12350      656C6C5F 
 12350      4D53444F 
 12350      53464D54 
 12351              	.LASF1047:
 12352 009e 5F5F6275 	 .ascii "__builtin_putchar\000"
 12352      696C7469 
 12352      6E5F7075 
 12352      74636861 
 12352      7200
 12353              	.LASF639:
 12354 00b0 61637469 	 .ascii "actions\000"
 12354      6F6E7300 
 12355              	.LASF718:
 12356 00b8 54485245 	 .ascii "THREAD_API_RTEMS\000"
 12356      41445F41 
 12356      50495F52 
 12356      54454D53 
 12356      00
 12357              	.LASF939:
 12358 00c9 5469636B 	 .ascii "Ticker\000"
 12358      657200
 12359              	.LASF522:
 12360 00d0 7274656D 	 .ascii "rtems_shell_CPUINFO_Command\000"
 12360      735F7368 
 12360      656C6C5F 
 12360      43505549 
 12360      4E464F5F 
 12361              	.LASF857:
 12362 00ec 5F546872 	 .ascii "_Thread_Heads\000"
 12362      6561645F 
 12362      48656164 
 12362      7300
 12363              	.LASF966:
 12364 00fa 5F537461 	 .ascii "_Stack_Allocator_allocate_for_idle_workspace\000"
 12364      636B5F41 
ARM GAS   			page 223


 12364      6C6C6F63 
 12364      61746F72 
 12364      5F616C6C 
 12365              	.LASF731:
 12366 0127 54687265 	 .ascii "Thread_Capture_control\000"
 12366      61645F43 
 12366      61707475 
 12366      72655F63 
 12366      6F6E7472 
 12367              	.LASF788:
 12368 013e 53544154 	 .ascii "STATUS_CLASSIC_NOT_OWNER_OF_RESOURCE\000"
 12368      55535F43 
 12368      4C415353 
 12368      49435F4E 
 12368      4F545F4F 
 12369              	.LASF618:
 12370 0163 616C6C6F 	 .ascii "allocate\000"
 12370      63617465 
 12370      00
 12371              	.LASF346:
 12372 016c 7274656D 	 .ascii "rtems_filesystem_location_info_tt\000"
 12372      735F6669 
 12372      6C657379 
 12372      7374656D 
 12372      5F6C6F63 
 12373              	.LASF429:
 12374 018e 706F7369 	 .ascii "posix_sync_io\000"
 12374      785F7379 
 12374      6E635F69 
 12374      6F00
 12375              	.LASF237:
 12376 019c 6769645F 	 .ascii "gid_t\000"
 12376      7400
 12377              	.LASF1026:
 12378 01a2 5F536368 	 .ascii "_Scheduler_default_Map_priority\000"
 12378      6564756C 
 12378      65725F64 
 12378      65666175 
 12378      6C745F4D 
 12379              	.LASF424:
 12380 01c2 70697065 	 .ascii "pipe_buf\000"
 12380      5F627566 
 12380      00
 12381              	.LASF936:
 12382 01cb 436F7265 	 .ascii "Core_control\000"
 12382      5F636F6E 
 12382      74726F6C 
 12382      00
 12383              	.LASF409:
 12384 01d8 7274656D 	 .ascii "rtems_filesystem_ioctl_t\000"
 12384      735F6669 
 12384      6C657379 
 12384      7374656D 
 12384      5F696F63 
 12385              	.LASF95:
 12386 01f1 5254454D 	 .ascii "RTEMS_OBJECT_WAS_DELETED\000"
 12386      535F4F42 
ARM GAS   			page 224


 12386      4A454354 
 12386      5F574153 
 12386      5F44454C 
 12387              	.LASF488:
 12388 020a 7274656D 	 .ascii "rtems_shell_PWD_Command\000"
 12388      735F7368 
 12388      656C6C5F 
 12388      5057445F 
 12388      436F6D6D 
 12389              	.LASF5:
 12390 0222 5F5F7569 	 .ascii "__uint8_t\000"
 12390      6E74385F 
 12390      7400
 12391              	.LASF736:
 12392 022c 65756964 	 .ascii "euid\000"
 12392      00
 12393              	.LASF855:
 12394 0231 5F546872 	 .ascii "_Thread_Local_table\000"
 12394      6561645F 
 12394      4C6F6361 
 12394      6C5F7461 
 12394      626C6500 
 12395              	.LASF799:
 12396 0245 626C6F63 	 .ascii "block\000"
 12396      6B00
 12397              	.LASF227:
 12398 024b 7274656D 	 .ascii "rtems_driver_address_table\000"
 12398      735F6472 
 12398      69766572 
 12398      5F616464 
 12398      72657373 
 12399              	.LASF1019:
 12400 0266 7274656D 	 .ascii "rtems_version\000"
 12400      735F7665 
 12400      7273696F 
 12400      6E00
 12401              	.LASF146:
 12402 0274 5F426F6F 	 .ascii "_Bool\000"
 12402      6C00
 12403              	.LASF995:
 12404 027a 6465765F 	 .ascii "dev_zero_close\000"
 12404      7A65726F 
 12404      5F636C6F 
 12404      736500
 12405              	.LASF918:
 12406 0289 4D657373 	 .ascii "Message_queue_Control\000"
 12406      6167655F 
 12406      71756575 
 12406      655F436F 
 12406      6E74726F 
 12407              	.LASF951:
 12408 029f 5F53656D 	 .ascii "_Semaphore_Objects\000"
 12408      6170686F 
 12408      72655F4F 
 12408      626A6563 
 12408      747300
 12409              	.LASF780:
ARM GAS   			page 225


 12410 02b2 53544154 	 .ascii "STATUS_CLASSIC_INVALID_ID\000"
 12410      55535F43 
 12410      4C415353 
 12410      49435F49 
 12410      4E56414C 
 12411              	.LASF969:
 12412 02cc 494D4653 	 .ascii "IMFS_readlink\000"
 12412      5F726561 
 12412      646C696E 
 12412      6B00
 12413              	.LASF777:
 12414 02da 53544154 	 .ascii "STATUS_CLASSIC_INCORRECT_STATE\000"
 12414      55535F43 
 12414      4C415353 
 12414      49435F49 
 12414      4E434F52 
 12415              	.LASF44:
 12416 02f9 54696D65 	 .ascii "Timer\000"
 12416      7200
 12417              	.LASF407:
 12418 02ff 7274656D 	 .ascii "rtems_filesystem_write_t\000"
 12418      735F6669 
 12418      6C657379 
 12418      7374656D 
 12418      5F777269 
 12419              	.LASF155:
 12420 0318 6D6F6465 	 .ascii "mode_set\000"
 12420      5F736574 
 12420      00
 12421              	.LASF339:
 12422 0321 756E6D6F 	 .ascii "unmount_h\000"
 12422      756E745F 
 12422      6800
 12423              	.LASF950:
 12424 032b 5F53656D 	 .ascii "_Semaphore_Local_table\000"
 12424      6170686F 
 12424      72655F4C 
 12424      6F63616C 
 12424      5F746162 
 12425              	.LASF793:
 12426 0342 53544154 	 .ascii "STATUS_CLASSIC_TIMEOUT\000"
 12426      55535F43 
 12426      4C415353 
 12426      49435F54 
 12426      494D454F 
 12427              	.LASF766:
 12428 0359 54687265 	 .ascii "Thread_Information\000"
 12428      61645F49 
 12428      6E666F72 
 12428      6D617469 
 12428      6F6E00
 12429              	.LASF128:
 12430 036c 4F424A45 	 .ascii "OBJECTS_NO_API\000"
 12430      4354535F 
 12430      4E4F5F41 
 12430      504900
 12431              	.LASF738:
ARM GAS   			page 226


 12432 037b 6C6F6769 	 .ascii "login_buffer\000"
 12432      6E5F6275 
 12432      66666572 
 12432      00
 12433              	.LASF1025:
 12434 0388 5F536368 	 .ascii "_Scheduler_default_Unmap_priority\000"
 12434      6564756C 
 12434      65725F64 
 12434      65666175 
 12434      6C745F55 
 12435              	.LASF888:
 12436 03aa 64697265 	 .ascii "directory\000"
 12436      63746F72 
 12436      7900
 12437              	.LASF350:
 12438 03b4 68616E64 	 .ascii "handlers\000"
 12438      6C657273 
 12438      00
 12439              	.LASF491:
 12440 03bd 7274656D 	 .ascii "rtems_shell_MKDIR_Command\000"
 12440      735F7368 
 12440      656C6C5F 
 12440      4D4B4449 
 12440      525F436F 
 12441              	.LASF753:
 12442 03d7 5F546872 	 .ascii "_Thread_Control_add_on_count\000"
 12442      6561645F 
 12442      436F6E74 
 12442      726F6C5F 
 12442      6164645F 
 12443              	.LASF583:
 12444 03f4 73776170 	 .ascii "swapout_worker_priority\000"
 12444      6F75745F 
 12444      776F726B 
 12444      65725F70 
 12444      72696F72 
 12445              	.LASF562:
 12446 040c 696E7465 	 .ascii "interrupt_stack_low\000"
 12446      72727570 
 12446      745F7374 
 12446      61636B5F 
 12446      6C6F7700 
 12447              	.LASF67:
 12448 0420 75696E74 	 .ascii "uint16_t\000"
 12448      31365F74 
 12448      00
 12449              	.LASF997:
 12450 0429 6465765F 	 .ascii "dev_zero_initialize\000"
 12450      7A65726F 
 12450      5F696E69 
 12450      7469616C 
 12450      697A6500 
 12451              	.LASF244:
 12452 043d 6D617869 	 .ascii "maximum_priority\000"
 12452      6D756D5F 
 12452      7072696F 
 12452      72697479 
ARM GAS   			page 227


 12452      00
 12453              	.LASF906:
 12454 044e 434F5245 	 .ascii "CORE_message_queue_Control\000"
 12454      5F6D6573 
 12454      73616765 
 12454      5F717565 
 12454      75655F43 
 12455              	.LASF119:
 12456 0469 74696D65 	 .ascii "time_t\000"
 12456      5F7400
 12457              	.LASF427:
 12458 0470 706F7369 	 .ascii "posix_no_trunc\000"
 12458      785F6E6F 
 12458      5F747275 
 12458      6E6300
 12459              	.LASF200:
 12460 047f 6E657874 	 .ascii "next\000"
 12460      00
 12461              	.LASF878:
 12462 0484 494D4653 	 .ascii "IMFS_node_control_remove\000"
 12462      5F6E6F64 
 12462      655F636F 
 12462      6E74726F 
 12462      6C5F7265 
 12463              	.LASF587:
 12464 049d 72656164 	 .ascii "read_ahead_priority\000"
 12464      5F616865 
 12464      61645F70 
 12464      72696F72 
 12464      69747900 
 12465              	.LASF989:
 12466 04b1 7274656D 	 .ascii "rtems_filesystem_initialize\000"
 12466      735F6669 
 12466      6C657379 
 12466      7374656D 
 12466      5F696E69 
 12467              	.LASF28:
 12468 04cd 5F5F6F66 	 .ascii "__off_t\000"
 12468      665F7400 
 12469              	.LASF930:
 12470 04d5 434F5245 	 .ascii "CORE_recursive_mutex_Control\000"
 12470      5F726563 
 12470      75727369 
 12470      76655F6D 
 12470      75746578 
 12471              	.LASF870:
 12472 04f2 494D4653 	 .ascii "IMFS_jnode_tt\000"
 12472      5F6A6E6F 
 12472      64655F74 
 12472      7400
 12473              	.LASF335:
 12474 0500 63686F77 	 .ascii "chown_h\000"
 12474      6E5F6800 
 12475              	.LASF269:
 12476 0508 73745F73 	 .ascii "st_size\000"
 12476      697A6500 
 12477              	.LASF519:
ARM GAS   			page 228


 12478 0510 7274656D 	 .ascii "rtems_shell_I2CGET_Command\000"
 12478      735F7368 
 12478      656C6C5F 
 12478      49324347 
 12478      45545F43 
 12479              	.LASF126:
 12480 052b 4F626A65 	 .ascii "Objects_Id\000"
 12480      6374735F 
 12480      496400
 12481              	.LASF588:
 12482 0536 7274656D 	 .ascii "rtems_bdbuf_configuration\000"
 12482      735F6264 
 12482      6275665F 
 12482      636F6E66 
 12482      69677572 
 12483              	.LASF53:
 12484 0550 53746172 	 .ascii "Start\000"
 12484      7400
 12485              	.LASF619:
 12486 0556 6465616C 	 .ascii "deallocate\000"
 12486      6C6F6361 
 12486      746500
 12487              	.LASF254:
 12488 0561 54494D45 	 .ascii "TIMER_DORMANT\000"
 12488      525F444F 
 12488      524D414E 
 12488      5400
 12489              	.LASF844:
 12490 056f 5F525445 	 .ascii "_RTEMS_tasks_User_task_table\000"
 12490      4D535F74 
 12490      61736B73 
 12490      5F557365 
 12490      725F7461 
 12491              	.LASF581:
 12492 058c 73776170 	 .ascii "swap_block_hold\000"
 12492      5F626C6F 
 12492      636B5F68 
 12492      6F6C6400 
 12493              	.LASF824:
 12494 059c 4269745F 	 .ascii "Bit_map\000"
 12494      6D617000 
 12495              	.LASF574:
 12496 05a4 6B6E6F74 	 .ascii "knote\000"
 12496      6500
 12497              	.LASF97:
 12498 05aa 5254454D 	 .ascii "RTEMS_INVALID_ADDRESS\000"
 12498      535F494E 
 12498      56414C49 
 12498      445F4144 
 12498      44524553 
 12499              	.LASF632:
 12500 05c0 5052494F 	 .ascii "PRIORITY_ACTION_REMOVE\000"
 12500      52495459 
 12500      5F414354 
 12500      494F4E5F 
 12500      52454D4F 
 12501              	.LASF192:
ARM GAS   			page 229


 12502 05d7 74687265 	 .ascii "thread_delete\000"
 12502      61645F64 
 12502      656C6574 
 12502      6500
 12503              	.LASF893:
 12504 05e5 526F6F74 	 .ascii "Root_directory\000"
 12504      5F646972 
 12504      6563746F 
 12504      727900
 12505              	.LASF986:
 12506 05f4 7274656D 	 .ascii "rtems_rfs_rtems_initialise\000"
 12506      735F7266 
 12506      735F7274 
 12506      656D735F 
 12506      696E6974 
 12507              	.LASF1020:
 12508 060f 5F536368 	 .ascii "_Scheduler_default_Start_idle\000"
 12508      6564756C 
 12508      65725F64 
 12508      65666175 
 12508      6C745F53 
 12509              	.LASF93:
 12510 062d 5254454D 	 .ascii "RTEMS_TOO_MANY\000"
 12510      535F544F 
 12510      4F5F4D41 
 12510      4E5900
 12511              	.LASF48:
 12512 063c 69735F66 	 .ascii "is_fp\000"
 12512      7000
 12513              	.LASF897:
 12514 0642 494D4653 	 .ascii "IMFS_mknod_control_dir_default\000"
 12514      5F6D6B6E 
 12514      6F645F63 
 12514      6F6E7472 
 12514      6F6C5F64 
 12515              	.LASF360:
 12516 0661 665F6672 	 .ascii "f_frsize\000"
 12516      73697A65 
 12516      00
 12517              	.LASF34:
 12518 066a 46726565 	 .ascii "Free_chain\000"
 12518      5F636861 
 12518      696E00
 12519              	.LASF157:
 12520 0675 7274656D 	 .ascii "rtems_initialization_tasks_table\000"
 12520      735F696E 
 12520      69746961 
 12520      6C697A61 
 12520      74696F6E 
 12521              	.LASF382:
 12522 0696 726F6F74 	 .ascii "rootloc\000"
 12522      6C6F6300 
 12523              	.LASF546:
 12524 069e 726F7574 	 .ascii "routine\000"
 12524      696E6500 
 12525              	.LASF509:
 12526 06a6 7274656D 	 .ascii "rtems_shell_FDISK_Command\000"
ARM GAS   			page 230


 12526      735F7368 
 12526      656C6C5F 
 12526      46444953 
 12526      4B5F436F 
 12527              	.LASF212:
 12528 06c0 5F557365 	 .ascii "_User_extensions_Initial_extensions\000"
 12528      725F6578 
 12528      74656E73 
 12528      696F6E73 
 12528      5F496E69 
 12529              	.LASF535:
 12530 06e4 7274656D 	 .ascii "rtems_shell_EXIT_Alias\000"
 12530      735F7368 
 12530      656C6C5F 
 12530      45584954 
 12530      5F416C69 
 12531              	.LASF273:
 12532 06fb 73745F62 	 .ascii "st_blksize\000"
 12532      6C6B7369 
 12532      7A6500
 12533              	.LASF474:
 12534 0706 7274656D 	 .ascii "rtems_shell_WDUMP_Command\000"
 12534      735F7368 
 12534      656C6C5F 
 12534      5744554D 
 12534      505F436F 
 12535              	.LASF758:
 12536 0720 436F6E74 	 .ascii "Control\000"
 12536      726F6C00 
 12537              	.LASF110:
 12538 0728 5254454D 	 .ascii "RTEMS_NOT_CONFIGURED\000"
 12538      535F4E4F 
 12538      545F434F 
 12538      4E464947 
 12538      55524544 
 12539              	.LASF993:
 12540 073d 6465765F 	 .ascii "dev_zero_write\000"
 12540      7A65726F 
 12540      5F777269 
 12540      746500
 12541              	.LASF79:
 12542 074c 72656769 	 .ascii "register_r10\000"
 12542      73746572 
 12542      5F723130 
 12542      00
 12543              	.LASF573:
 12544 0759 53746174 	 .ascii "Stats\000"
 12544      7300
 12545              	.LASF356:
 12546 075f 64656665 	 .ascii "deferred_released_next\000"
 12546      72726564 
 12546      5F72656C 
 12546      65617365 
 12546      645F6E65 
 12547              	.LASF741:
 12548 0776 67726F75 	 .ascii "groups\000"
 12548      707300
ARM GAS   			page 231


 12549              	.LASF929:
 12550 077d 6E657374 	 .ascii "nest_level\000"
 12550      5F6C6576 
 12550      656C00
 12551              	.LASF154:
 12552 0788 656E7472 	 .ascii "entry_point\000"
 12552      795F706F 
 12552      696E7400 
 12553              	.LASF1028:
 12554 0794 5F536368 	 .ascii "_Scheduler_priority_Unblock\000"
 12554      6564756C 
 12554      65725F70 
 12554      72696F72 
 12554      6974795F 
 12555              	.LASF603:
 12556 07b0 4F424A45 	 .ascii "OBJECTS_RTEMS_REGIONS\000"
 12556      4354535F 
 12556      5254454D 
 12556      535F5245 
 12556      47494F4E 
 12557              	.LASF358:
 12558 07c6 73746174 	 .ascii "statvfs\000"
 12558      76667300 
 12559              	.LASF172:
 12560 07ce 5254454D 	 .ascii "RTEMS_FATAL_SOURCE_SMP\000"
 12560      535F4641 
 12560      54414C5F 
 12560      534F5552 
 12560      43455F53 
 12561              	.LASF234:
 12562 07e5 696E6F5F 	 .ascii "ino_t\000"
 12562      7400
 12563              	.LASF1042:
 12564 07eb 5F436C6F 	 .ascii "_Clock_Initialize\000"
 12564      636B5F49 
 12564      6E697469 
 12564      616C697A 
 12564      6500
 12565              	.LASF232:
 12566 07fd 6673626C 	 .ascii "fsblkcnt_t\000"
 12566      6B636E74 
 12566      5F7400
 12567              	.LASF430:
 12568 0808 706F7369 	 .ascii "posix_vdisable\000"
 12568      785F7664 
 12568      69736162 
 12568      6C6500
 12569              	.LASF255:
 12570 0817 54494D45 	 .ascii "TIMER_INTERVAL\000"
 12570      525F494E 
 12570      54455256 
 12570      414C00
 12571              	.LASF999:
 12572 0826 6E756C6C 	 .ascii "null_write\000"
 12572      5F777269 
 12572      746500
 12573              	.LASF843:
ARM GAS   			page 232


 12574 0831 5254454D 	 .ascii "RTEMS_API_Control\000"
 12574      535F4150 
 12574      495F436F 
 12574      6E74726F 
 12574      6C00
 12575              	.LASF249:
 12576 0843 7072696F 	 .ascii "priority\000"
 12576      72697479 
 12576      00
 12577              	.LASF267:
 12578 084c 73745F67 	 .ascii "st_gid\000"
 12578      696400
 12579              	.LASF882:
 12580 0853 6E6F6465 	 .ascii "node_control\000"
 12580      5F636F6E 
 12580      74726F6C 
 12580      00
 12581              	.LASF817:
 12582 0860 6D696E6F 	 .ascii "minor\000"
 12582      7200
 12583              	.LASF739:
 12584 0866 70677270 	 .ascii "pgrp\000"
 12584      00
 12585              	.LASF816:
 12586 086b 5072696F 	 .ascii "Priority_bit_map_Control\000"
 12586      72697479 
 12586      5F626974 
 12586      5F6D6170 
 12586      5F436F6E 
 12587              	.LASF992:
 12588 0884 6465765F 	 .ascii "dev_zero_control\000"
 12588      7A65726F 
 12588      5F636F6E 
 12588      74726F6C 
 12588      00
 12589              	.LASF553:
 12590 0895 43686169 	 .ascii "Chain\000"
 12590      6E00
 12591              	.LASF529:
 12592 089b 7274656D 	 .ascii "rtems_shell_RTEMS_Command\000"
 12592      735F7368 
 12592      656C6C5F 
 12592      5254454D 
 12592      535F436F 
 12593              	.LASF595:
 12594 08b5 4F424A45 	 .ascii "OBJECTS_INTERNAL_NO_CLASS\000"
 12594      4354535F 
 12594      494E5445 
 12594      524E414C 
 12594      5F4E4F5F 
 12595              	.LASF934:
 12596 08cf 434F5245 	 .ascii "CORE_semaphore_Control\000"
 12596      5F73656D 
 12596      6170686F 
 12596      72655F43 
 12596      6F6E7472 
 12597              	.LASF342:
ARM GAS   			page 233


 12598 08e6 73796D6C 	 .ascii "symlink_h\000"
 12598      696E6B5F 
 12598      6800
 12599              	.LASF438:
 12600 08f0 736F7572 	 .ascii "source\000"
 12600      636500
 12601              	.LASF970:
 12602 08f7 494D4653 	 .ascii "IMFS_symlink\000"
 12602      5F73796D 
 12602      6C696E6B 
 12602      00
 12603              	.LASF243:
 12604 0904 4F706572 	 .ascii "Operations\000"
 12604      6174696F 
 12604      6E7300
 12605              	.LASF248:
 12606 090f 4953525F 	 .ascii "ISR_lock_Context\000"
 12606      6C6F636B 
 12606      5F436F6E 
 12606      74657874 
 12606      00
 12607              	.LASF107:
 12608 0920 5254454D 	 .ascii "RTEMS_INVALID_PRIORITY\000"
 12608      535F494E 
 12608      56414C49 
 12608      445F5052 
 12608      494F5249 
 12609              	.LASF508:
 12610 0937 7274656D 	 .ascii "rtems_shell_BLKSTATS_Command\000"
 12610      735F7368 
 12610      656C6C5F 
 12610      424C4B53 
 12610      54415453 
 12611              	.LASF551:
 12612 0954 57617463 	 .ascii "Watchdog_Header\000"
 12612      68646F67 
 12612      5F486561 
 12612      64657200 
 12613              	.LASF957:
 12614 0964 5F504F53 	 .ascii "_POSIX_Keys_Key_value_pairs\000"
 12614      49585F4B 
 12614      6579735F 
 12614      4B65795F 
 12614      76616C75 
 12615              	.LASF967:
 12616 0980 7274656D 	 .ascii "rtems_filesystem_default_statvfs\000"
 12616      735F6669 
 12616      6C657379 
 12616      7374656D 
 12616      5F646566 
 12617              	.LASF265:
 12618 09a1 73745F6E 	 .ascii "st_nlink\000"
 12618      6C696E6B 
 12618      00
 12619              	.LASF746:
 12620 09aa 5F707265 	 .ascii "_previous\000"
 12620      76696F75 
ARM GAS   			page 234


 12620      7300
 12621              	.LASF461:
 12622 09b4 7274656D 	 .ascii "rtems_shell_VMSTAT_Command\000"
 12622      735F7368 
 12622      656C6C5F 
 12622      564D5354 
 12622      41545F43 
 12623              	.LASF530:
 12624 09cf 7274656D 	 .ascii "rtems_shell_MALLOC_INFO_Command\000"
 12624      735F7368 
 12624      656C6C5F 
 12624      4D414C4C 
 12624      4F435F49 
 12625              	.LASF272:
 12626 09ef 73745F63 	 .ascii "st_ctim\000"
 12626      74696D00 
 12627              	.LASF539:
 12628 09f7 7262655F 	 .ascii "rbe_right\000"
 12628      72696768 
 12628      7400
 12629              	.LASF207:
 12630 0a01 55736572 	 .ascii "User_extensions_Switch_control\000"
 12630      5F657874 
 12630      656E7369 
 12630      6F6E735F 
 12630      53776974 
 12631              	.LASF609:
 12632 0a20 4F424A45 	 .ascii "OBJECTS_POSIX_THREADS\000"
 12632      4354535F 
 12632      504F5349 
 12632      585F5448 
 12632      52454144 
 12633              	.LASF1002:
 12634 0a36 6E756C6C 	 .ascii "null_open\000"
 12634      5F6F7065 
 12634      6E00
 12635              	.LASF143:
 12636 0a40 53746163 	 .ascii "Stack_Allocator_allocate_for_idle\000"
 12636      6B5F416C 
 12636      6C6F6361 
 12636      746F725F 
 12636      616C6C6F 
 12637              	.LASF279:
 12638 0a62 52656769 	 .ascii "Registry_node\000"
 12638      73747279 
 12638      5F6E6F64 
 12638      6500
 12639              	.LASF147:
 12640 0a70 5F537461 	 .ascii "_Stack_Allocator_allocate_for_idle\000"
 12640      636B5F41 
 12640      6C6C6F63 
 12640      61746F72 
 12640      5F616C6C 
 12641              	.LASF228:
 12642 0a93 5F5F7369 	 .ascii "__sigset_t\000"
 12642      67736574 
 12642      5F7400
ARM GAS   			page 235


 12643              	.LASF528:
 12644 0a9e 7274656D 	 .ascii "rtems_shell_WKSPACE_INFO_Command\000"
 12644      735F7368 
 12644      656C6C5F 
 12644      574B5350 
 12644      4143455F 
 12645              	.LASF611:
 12646 0abf 4F424A45 	 .ascii "OBJECTS_POSIX_MESSAGE_QUEUES\000"
 12646      4354535F 
 12646      504F5349 
 12646      585F4D45 
 12646      53534147 
 12647              	.LASF851:
 12648 0adc 53706F72 	 .ascii "Sporadic\000"
 12648      61646963 
 12648      00
 12649              	.LASF1041:
 12650 0ae5 6E65776C 	 .ascii "newlib_terminate_hook\000"
 12650      69625F74 
 12650      65726D69 
 12650      6E617465 
 12650      5F686F6F 
 12651              	.LASF621:
 12652 0afb 6F626A65 	 .ascii "objects_per_block\000"
 12652      6374735F 
 12652      7065725F 
 12652      626C6F63 
 12652      6B00
 12653              	.LASF938:
 12654 0b0d 5F53656D 	 .ascii "_Semaphore_Information\000"
 12654      6170686F 
 12654      72655F49 
 12654      6E666F72 
 12654      6D617469 
 12655              	.LASF153:
 12656 0b24 61747472 	 .ascii "attribute_set\000"
 12656      69627574 
 12656      655F7365 
 12656      7400
 12657              	.LASF185:
 12658 0b32 55736572 	 .ascii "User_extensions_thread_begin_extension\000"
 12658      5F657874 
 12658      656E7369 
 12658      6F6E735F 
 12658      74687265 
 12659              	.LASF33:
 12660 0b59 48656164 	 .ascii "Heads\000"
 12660      7300
 12661              	.LASF366:
 12662 0b5f 665F6661 	 .ascii "f_favail\000"
 12662      7661696C 
 12662      00
 12663              	.LASF456:
 12664 0b68 7274656D 	 .ascii "rtems_shell_ROUTE_Command\000"
 12664      735F7368 
 12664      656C6C5F 
 12664      524F5554 
ARM GAS   			page 236


 12664      455F436F 
 12665              	.LASF484:
 12666 0b82 7274656D 	 .ascii "rtems_shell_ID_Command\000"
 12666      735F7368 
 12666      656C6C5F 
 12666      49445F43 
 12666      6F6D6D61 
 12667              	.LASF915:
 12668 0b99 496E6163 	 .ascii "Inactive_messages\000"
 12668      74697665 
 12668      5F6D6573 
 12668      73616765 
 12668      7300
 12669              	.LASF171:
 12670 0bab 5254454D 	 .ascii "RTEMS_FATAL_SOURCE_EXCEPTION\000"
 12670      535F4641 
 12670      54414C5F 
 12670      534F5552 
 12670      43455F45 
 12671              	.LASF132:
 12672 0bc8 4F424A45 	 .ascii "OBJECTS_FAKE_OBJECTS_API\000"
 12672      4354535F 
 12672      46414B45 
 12672      5F4F424A 
 12672      45435453 
 12673              	.LASF298:
 12674 0be1 6D745F70 	 .ascii "mt_point_node\000"
 12674      6F696E74 
 12674      5F6E6F64 
 12674      6500
 12675              	.LASF422:
 12676 0bef 6E616D65 	 .ascii "name_max\000"
 12676      5F6D6178 
 12676      00
 12677              	.LASF485:
 12678 0bf8 7274656D 	 .ascii "rtems_shell_TTY_Command\000"
 12678      735F7368 
 12678      656C6C5F 
 12678      5454595F 
 12678      436F6D6D 
 12679              	.LASF270:
 12680 0c10 73745F61 	 .ascii "st_atim\000"
 12680      74696D00 
 12681              	.LASF87:
 12682 0c18 7274656D 	 .ascii "rtems_mode\000"
 12682      735F6D6F 
 12682      646500
 12683              	.LASF124:
 12684 0c23 6E616D65 	 .ascii "name_u32\000"
 12684      5F753332 
 12684      00
 12685              	.LASF889:
 12686 0c2c 64657669 	 .ascii "device\000"
 12686      636500
 12687              	.LASF1037:
 12688 0c33 6273705F 	 .ascii "bsp_fatal_extension\000"
 12688      66617461 
ARM GAS   			page 237


 12688      6C5F6578 
 12688      74656E73 
 12688      696F6E00 
 12689              	.LASF152:
 12690 0c47 696E6974 	 .ascii "initial_priority\000"
 12690      69616C5F 
 12690      7072696F 
 12690      72697479 
 12690      00
 12691              	.LASF943:
 12692 0c58 73746F70 	 .ascii "stop_time\000"
 12692      5F74696D 
 12692      6500
 12693              	.LASF876:
 12694 0c62 696D6673 	 .ascii "imfs_memfile_bytes_per_block\000"
 12694      5F6D656D 
 12694      66696C65 
 12694      5F627974 
 12694      65735F70 
 12695              	.LASF517:
 12696 0c7f 7274656D 	 .ascii "rtems_shell_FLASHDEV_Command\000"
 12696      735F7368 
 12696      656C6C5F 
 12696      464C4153 
 12696      48444556 
 12697              	.LASF846:
 12698 0c9c 74687265 	 .ascii "thread\000"
 12698      616400
 12699              	.LASF980:
 12700 0ca3 494D4653 	 .ascii "IMFS_mknod\000"
 12700      5F6D6B6E 
 12700      6F6400
 12701              	.LASF201:
 12702 0cae 70726576 	 .ascii "previous\000"
 12702      696F7573 
 12702      00
 12703              	.LASF655:
 12704 0cb7 68656164 	 .ascii "heads\000"
 12704      7300
 12705              	.LASF571:
 12706 0cbd 57617463 	 .ascii "Watchdog\000"
 12706      68646F67 
 12706      00
 12707              	.LASF218:
 12708 0cc6 7274656D 	 .ascii "rtems_device_major_number\000"
 12708      735F6465 
 12708      76696365 
 12708      5F6D616A 
 12708      6F725F6E 
 12709              	.LASF378:
 12710 0ce0 746F6B65 	 .ascii "token\000"
 12710      6E00
 12711              	.LASF503:
 12712 0ce6 7274656D 	 .ascii "rtems_shell_UMASK_Command\000"
 12712      735F7368 
 12712      656C6C5F 
 12712      554D4153 
ARM GAS   			page 238


 12712      4B5F436F 
 12713              	.LASF774:
 12714 0d00 5F4C696E 	 .ascii "_Linker_set__Sysinit__User_extensions_Handler_initi"
 12714      6B65725F 
 12714      7365745F 
 12714      5F537973 
 12714      696E6974 
 12715 0d33 616C697A 	 .ascii "alization\000"
 12715      6174696F 
 12715      6E00
 12716              	.LASF198:
 12717 0d3d 55736572 	 .ascii "User_extensions_Table\000"
 12717      5F657874 
 12717      656E7369 
 12717      6F6E735F 
 12717      5461626C 
 12718              	.LASF1010:
 12719 0d53 5F525445 	 .ascii "_RTEMS_tasks_Initialize_user_task\000"
 12719      4D535F74 
 12719      61736B73 
 12719      5F496E69 
 12719      7469616C 
 12720              	.LASF191:
 12721 0d75 74687265 	 .ascii "thread_restart\000"
 12721      61645F72 
 12721      65737461 
 12721      727400
 12722              	.LASF910:
 12723 0d84 6D617869 	 .ascii "maximum_message_size\000"
 12723      6D756D5F 
 12723      6D657373 
 12723      6167655F 
 12723      73697A65 
 12724              	.LASF103:
 12725 0d99 5254454D 	 .ascii "RTEMS_ALREADY_SUSPENDED\000"
 12725      535F414C 
 12725      52454144 
 12725      595F5355 
 12725      5350454E 
 12726              	.LASF305:
 12727 0db1 74797065 	 .ascii "type\000"
 12727      00
 12728              	.LASF628:
 12729 0db6 5072696F 	 .ascii "Priority_Control\000"
 12729      72697479 
 12729      5F436F6E 
 12729      74726F6C 
 12729      00
 12730              	.LASF226:
 12731 0dc7 636F6E74 	 .ascii "control_entry\000"
 12731      726F6C5F 
 12731      656E7472 
 12731      7900
 12732              	.LASF702:
 12733 0dd5 6E6F6465 	 .ascii "nodes\000"
 12733      7300
 12734              	.LASF56:
ARM GAS   			page 239


 12735 0ddb 4B657973 	 .ascii "Keys\000"
 12735      00
 12736              	.LASF348:
 12737 0de0 6E6F6465 	 .ascii "node_access\000"
 12737      5F616363 
 12737      65737300 
 12738              	.LASF26:
 12739 0dec 5F5F7569 	 .ascii "__uid_t\000"
 12739      645F7400 
 12740              	.LASF891:
 12741 0df4 6669666F 	 .ascii "fifo\000"
 12741      00
 12742              	.LASF887:
 12743 0df9 494D4653 	 .ascii "IMFS_directory_t\000"
 12743      5F646972 
 12743      6563746F 
 12743      72795F74 
 12743      00
 12744              	.LASF6:
 12745 0e0a 5F5F7569 	 .ascii "__uint16_t\000"
 12745      6E743136 
 12745      5F7400
 12746              	.LASF820:
 12747 0e15 626C6F63 	 .ascii "block_major\000"
 12747      6B5F6D61 
 12747      6A6F7200 
 12748              	.LASF1034:
 12749 0e21 5F4F626A 	 .ascii "_Objects_Free_static\000"
 12749      65637473 
 12749      5F467265 
 12749      655F7374 
 12749      61746963 
 12750              	.LASF256:
 12751 0e36 54494D45 	 .ascii "TIMER_INTERVAL_ON_TASK\000"
 12751      525F494E 
 12751      54455256 
 12751      414C5F4F 
 12751      4E5F5441 
 12752              	.LASF252:
 12753 0e4d 7274656D 	 .ascii "rtems_signal_set\000"
 12753      735F7369 
 12753      676E616C 
 12753      5F736574 
 12753      00
 12754              	.LASF60:
 12755 0e5e 6C617374 	 .ascii "last_cleanup_context\000"
 12755      5F636C65 
 12755      616E7570 
 12755      5F636F6E 
 12755      74657874 
 12756              	.LASF1033:
 12757 0e73 7274656D 	 .ascii "rtems_stack_checker_reporter_quiet\000"
 12757      735F7374 
 12757      61636B5F 
 12757      63686563 
 12757      6B65725F 
 12758              	.LASF661:
ARM GAS   			page 240


 12759 0e96 54687265 	 .ascii "Thread_queue_Enqueue_callout\000"
 12759      61645F71 
 12759      75657565 
 12759      5F456E71 
 12759      75657565 
 12760              	.LASF830:
 12761 0eb3 53636865 	 .ascii "Scheduler_priority_Ready_queue\000"
 12761      64756C65 
 12761      725F7072 
 12761      696F7269 
 12761      74795F52 
 12762              	.LASF38:
 12763 0ed2 4F626A65 	 .ascii "Object\000"
 12763      637400
 12764              	.LASF806:
 12765 0ed9 72656C65 	 .ascii "release_job\000"
 12765      6173655F 
 12765      6A6F6200 
 12766              	.LASF163:
 12767 0ee5 494E5445 	 .ascii "INTERNAL_ERROR_RTEMS_API\000"
 12767      524E414C 
 12767      5F455252 
 12767      4F525F52 
 12767      54454D53 
 12768              	.LASF645:
 12769 0efe 53746174 	 .ascii "States_Control\000"
 12769      65735F43 
 12769      6F6E7472 
 12769      6F6C00
 12770              	.LASF1045:
 12771 0f0d 70757463 	 .ascii "putchar\000"
 12771      68617200 
 12772              	.LASF748:
 12773 0f15 49746572 	 .ascii "Iterator\000"
 12773      61746F72 
 12773      00
 12774              	.LASF295:
 12775 0f1e 66735F69 	 .ascii "fs_info\000"
 12775      6E666F00 
 12776              	.LASF451:
 12777 0f26 6D6F6465 	 .ascii "mode\000"
 12777      00
 12778              	.LASF920:
 12779 0f2b 62617365 	 .ascii "base_address\000"
 12779      5F616464 
 12779      72657373 
 12779      00
 12780              	.LASF477:
 12781 0f38 7274656D 	 .ascii "rtems_shell_MFILL_Command\000"
 12781      735F7368 
 12781      656C6C5F 
 12781      4D46494C 
 12781      4C5F436F 
 12782              	.LASF24:
 12783 0f52 5F5F6673 	 .ascii "__fsfilcnt_t\000"
 12783      66696C63 
 12783      6E745F74 
ARM GAS   			page 241


 12783      00
 12784              	.LASF397:
 12785 0f5f 7274656D 	 .ascii "rtems_filesystem_rmnod_t\000"
 12785      735F6669 
 12785      6C657379 
 12785      7374656D 
 12785      5F726D6E 
 12786              	.LASF911:
 12787 0f78 50656E64 	 .ascii "Pending_messages\000"
 12787      696E675F 
 12787      6D657373 
 12787      61676573 
 12787      00
 12788              	.LASF832:
 12789 0f89 53636865 	 .ascii "Scheduler_priority_Node\000"
 12789      64756C65 
 12789      725F7072 
 12789      696F7269 
 12789      74795F4E 
 12790              	.LASF804:
 12791 0fa1 6E6F6465 	 .ascii "node_initialize\000"
 12791      5F696E69 
 12791      7469616C 
 12791      697A6500 
 12792              	.LASF431:
 12793 0fb1 7274656D 	 .ascii "rtems_filesystem_limits_and_options_t\000"
 12793      735F6669 
 12793      6C657379 
 12793      7374656D 
 12793      5F6C696D 
 12794              	.LASF732:
 12795 0fd7 7274656D 	 .ascii "rtems_user_env_t\000"
 12795      735F7573 
 12795      65725F65 
 12795      6E765F74 
 12795      00
 12796              	.LASF954:
 12797 0fe8 4B65795F 	 .ascii "Key_node\000"
 12797      6E6F6465 
 12797      00
 12798              	.LASF344:
 12799 0ff1 72656E61 	 .ascii "rename_h\000"
 12799      6D655F68 
 12799      00
 12800              	.LASF52:
 12801 0ffa 6370755F 	 .ascii "cpu_time_used_at_last_reset\000"
 12801      74696D65 
 12801      5F757365 
 12801      645F6174 
 12801      5F6C6173 
 12802              	.LASF1031:
 12803 1016 5F536368 	 .ascii "_Scheduler_priority_Schedule\000"
 12803      6564756C 
 12803      65725F70 
 12803      72696F72 
 12803      6974795F 
 12804              	.LASF280:
ARM GAS   			page 242


 12805 1033 64697265 	 .ascii "direction\000"
 12805      6374696F 
 12805      6E00
 12806              	.LASF102:
 12807 103d 5254454D 	 .ascii "RTEMS_INCORRECT_STATE\000"
 12807      535F494E 
 12807      434F5252 
 12807      4543545F 
 12807      53544154 
 12808              	.LASF3:
 12809 1053 756E7369 	 .ascii "unsigned char\000"
 12809      676E6564 
 12809      20636861 
 12809      7200
 12810              	.LASF937:
 12811 1061 53656D61 	 .ascii "Semaphore_Control\000"
 12811      70686F72 
 12811      655F436F 
 12811      6E74726F 
 12811      6C00
 12812              	.LASF575:
 12813 1073 5265636F 	 .ascii "Record_Control\000"
 12813      72645F43 
 12813      6F6E7472 
 12813      6F6C00
 12814              	.LASF809:
 12815 1082 53636865 	 .ascii "Scheduler_Operations\000"
 12815      64756C65 
 12815      725F4F70 
 12815      65726174 
 12815      696F6E73 
 12816              	.LASF17:
 12817 1097 5F5F626C 	 .ascii "__blkcnt_t\000"
 12817      6B636E74 
 12817      5F7400
 12818              	.LASF341:
 12819 10a2 7574696D 	 .ascii "utimens_h\000"
 12819      656E735F 
 12819      6800
 12820              	.LASF459:
 12821 10ac 7274656D 	 .ascii "rtems_shell_TCPDUMP_Command\000"
 12821      735F7368 
 12821      656C6C5F 
 12821      54435044 
 12821      554D505F 
 12822              	.LASF545:
 12823 10c8 57617463 	 .ascii "Watchdog_Control\000"
 12823      68646F67 
 12823      5F436F6E 
 12823      74726F6C 
 12823      00
 12824              	.LASF624:
 12825 10d9 496E6163 	 .ascii "Inactive\000"
 12825      74697665 
 12825      00
 12826              	.LASF849:
 12827 10e2 73636865 	 .ascii "sched_ss_init_budget\000"
ARM GAS   			page 243


 12827      645F7373 
 12827      5F696E69 
 12827      745F6275 
 12827      64676574 
 12828              	.LASF511:
 12829 10f7 7274656D 	 .ascii "rtems_shell_HEXDUMP_Command\000"
 12829      735F7368 
 12829      656C6C5F 
 12829      48455844 
 12829      554D505F 
 12830              	.LASF415:
 12831 1113 7274656D 	 .ascii "rtems_filesystem_fcntl_t\000"
 12831      735F6669 
 12831      6C657379 
 12831      7374656D 
 12831      5F66636E 
 12832              	.LASF299:
 12833 112c 6D745F66 	 .ascii "mt_fs_root\000"
 12833      735F726F 
 12833      6F7400
 12834              	.LASF54:
 12835 1137 506F7374 	 .ascii "Post_switch_actions\000"
 12835      5F737769 
 12835      7463685F 
 12835      61637469 
 12835      6F6E7300 
 12836              	.LASF563:
 12837 114b 696E7465 	 .ascii "interrupt_stack_high\000"
 12837      72727570 
 12837      745F7374 
 12837      61636B5F 
 12837      68696768 
 12838              	.LASF524:
 12839 1160 7274656D 	 .ascii "rtems_shell_TOP_Command\000"
 12839      735F7368 
 12839      656C6C5F 
 12839      544F505F 
 12839      436F6D6D 
 12840              	.LASF715:
 12841 1178 54687265 	 .ascii "Thread_Wait_information\000"
 12841      61645F57 
 12841      6169745F 
 12841      696E666F 
 12841      726D6174 
 12842              	.LASF821:
 12843 1190 626C6F63 	 .ascii "block_minor\000"
 12843      6B5F6D69 
 12843      6E6F7200 
 12844              	.LASF719:
 12845 119c 54485245 	 .ascii "THREAD_API_POSIX\000"
 12845      41445F41 
 12845      50495F50 
 12845      4F534958 
 12845      00
 12846              	.LASF304:
 12847 11ad 74617267 	 .ascii "target\000"
 12847      657400
ARM GAS   			page 244


 12848              	.LASF1051:
 12849 11b4 496E6974 	 .ascii "Init\000"
 12849      00
 12850              	.LASF1017:
 12851 11b9 556E7461 	 .ascii "Untar_FromMemory\000"
 12851      725F4672 
 12851      6F6D4D65 
 12851      6D6F7279 
 12851      00
 12852              	.LASF552:
 12853 11ca 52425472 	 .ascii "RBTree\000"
 12853      656500
 12854              	.LASF371:
 12855 11d1 696F765F 	 .ascii "iov_base\000"
 12855      62617365 
 12855      00
 12856              	.LASF968:
 12857 11da 494D4653 	 .ascii "IMFS_rename\000"
 12857      5F72656E 
 12857      616D6500 
 12858              	.LASF577:
 12859 11e6 6D61785F 	 .ascii "max_read_ahead_blocks\000"
 12859      72656164 
 12859      5F616865 
 12859      61645F62 
 12859      6C6F636B 
 12860              	.LASF464:
 12861 11fc 7274656D 	 .ascii "rtems_shell_ALIAS_Command\000"
 12861      735F7368 
 12861      656C6C5F 
 12861      414C4941 
 12861      535F436F 
 12862              	.LASF942:
 12863 1216 73746172 	 .ascii "start_time\000"
 12863      745F7469 
 12863      6D6500
 12864              	.LASF164:
 12865 1221 494E5445 	 .ascii "INTERNAL_ERROR_POSIX_API\000"
 12865      524E414C 
 12865      5F455252 
 12865      4F525F50 
 12865      4F534958 
 12866              	.LASF64:
 12867 123a 6F66665F 	 .ascii "off_t\000"
 12867      7400
 12868              	.LASF202:
 12869 1240 4E6F6465 	 .ascii "Node\000"
 12869      00
 12870              	.LASF349:
 12871 1245 6E6F6465 	 .ascii "node_access_2\000"
 12871      5F616363 
 12871      6573735F 
 12871      3200
 12872              	.LASF510:
 12873 1253 7274656D 	 .ascii "rtems_shell_DD_Command\000"
 12873      735F7368 
 12873      656C6C5F 
ARM GAS   			page 245


 12873      44445F43 
 12873      6F6D6D61 
 12874              	.LASF787:
 12875 126a 53544154 	 .ascii "STATUS_CLASSIC_NOT_DEFINED\000"
 12875      55535F43 
 12875      4C415353 
 12875      49435F4E 
 12875      4F545F44 
 12876              	.LASF975:
 12877 1285 494D4653 	 .ascii "IMFS_node_free\000"
 12877      5F6E6F64 
 12877      655F6672 
 12877      656500
 12878              	.LASF905:
 12879 1294 5F4C696E 	 .ascii "_Linker_set__Sysinit_rtems_filesystem_initialize\000"
 12879      6B65725F 
 12879      7365745F 
 12879      5F537973 
 12879      696E6974 
 12880              	.LASF301:
 12881 12c5 77726974 	 .ascii "writeable\000"
 12881      6561626C 
 12881      6500
 12882              	.LASF70:
 12883 12cf 75696E74 	 .ascii "uint64_t\000"
 12883      36345F74 
 12883      00
 12884              	.LASF513:
 12885 12d8 7274656D 	 .ascii "rtems_shell_DF_Command\000"
 12885      735F7368 
 12885      656C6C5F 
 12885      44465F43 
 12885      6F6D6D61 
 12886              	.LASF22:
 12887 12ef 5F5F6D6F 	 .ascii "__mode_t\000"
 12887      64655F74 
 12887      00
 12888              	.LASF296:
 12889 12f8 696D6D75 	 .ascii "immutable_fs_info\000"
 12889      7461626C 
 12889      655F6673 
 12889      5F696E66 
 12889      6F00
 12890              	.LASF668:
 12891 130a 73636865 	 .ascii "scheduler_node\000"
 12891      64756C65 
 12891      725F6E6F 
 12891      646500
 12892              	.LASF338:
 12893 1319 6D6F756E 	 .ascii "mount_h\000"
 12893      745F6800 
 12894              	.LASF476:
 12895 1321 7274656D 	 .ascii "rtems_shell_MEDIT_Command\000"
 12895      735F7368 
 12895      656C6C5F 
 12895      4D454449 
 12895      545F436F 
ARM GAS   			page 246


 12896              	.LASF979:
 12897 133b 494D4653 	 .ascii "IMFS_rmnod\000"
 12897      5F726D6E 
 12897      6F6400
 12898              	.LASF142:
 12899 1346 53746163 	 .ascii "Stack_Control\000"
 12899      6B5F436F 
 12899      6E74726F 
 12899      6C00
 12900              	.LASF861:
 12901 1354 6273705F 	 .ascii "bsp_boot_cmdline\000"
 12901      626F6F74 
 12901      5F636D64 
 12901      6C696E65 
 12901      00
 12902              	.LASF576:
 12903 1365 7274656D 	 .ascii "rtems_bdbuf_config\000"
 12903      735F6264 
 12903      6275665F 
 12903      636F6E66 
 12903      696700
 12904              	.LASF572:
 12905 1378 7265636F 	 .ascii "record\000"
 12905      726400
 12906              	.LASF292:
 12907 137f 7274656D 	 .ascii "rtems_filesystem_mount_table_entry_t\000"
 12907      735F6669 
 12907      6C657379 
 12907      7374656D 
 12907      5F6D6F75 
 12908              	.LASF257:
 12909 13a4 54494D45 	 .ascii "TIMER_TIME_OF_DAY\000"
 12909      525F5449 
 12909      4D455F4F 
 12909      465F4441 
 12909      5900
 12910              	.LASF608:
 12911 13b6 4F424A45 	 .ascii "OBJECTS_POSIX_NO_CLASS\000"
 12911      4354535F 
 12911      504F5349 
 12911      585F4E4F 
 12911      5F434C41 
 12912              	.LASF776:
 12913 13cd 5F457874 	 .ascii "_Extension_Objects\000"
 12913      656E7369 
 12913      6F6E5F4F 
 12913      626A6563 
 12913      747300
 12914              	.LASF687:
 12915 13e0 4B696E64 	 .ascii "Kinds\000"
 12915      7300
 12916              	.LASF720:
 12917 13e6 54687265 	 .ascii "Thread_Action\000"
 12917      61645F41 
 12917      6374696F 
 12917      6E00
 12918              	.LASF847:
ARM GAS   			page 247


 12919 13f4 4C6F775F 	 .ascii "Low_priority\000"
 12919      7072696F 
 12919      72697479 
 12919      00
 12920              	.LASF1046:
 12921 1401 5F5F6275 	 .ascii "__builtin_puts\000"
 12921      696C7469 
 12921      6E5F7075 
 12921      747300
 12922              	.LASF501:
 12923 1410 7274656D 	 .ascii "rtems_shell_LN_Command\000"
 12923      735F7368 
 12923      656C6C5F 
 12923      4C4E5F43 
 12923      6F6D6D61 
 12924              	.LASF104:
 12925 1427 5254454D 	 .ascii "RTEMS_ILLEGAL_ON_SELF\000"
 12925      535F494C 
 12925      4C454741 
 12925      4C5F4F4E 
 12925      5F53454C 
 12926              	.LASF825:
 12927 143d 52656164 	 .ascii "Ready\000"
 12927      7900
 12928              	.LASF445:
 12929 1443 7274656D 	 .ascii "rtems_shell_cmd_t\000"
 12929      735F7368 
 12929      656C6C5F 
 12929      636D645F 
 12929      7400
 12930              	.LASF852:
 12931 1455 7369676E 	 .ascii "signals_unblocked\000"
 12931      616C735F 
 12931      756E626C 
 12931      6F636B65 
 12931      6400
 12932              	.LASF306:
 12933 1467 756E6D6F 	 .ascii "unmount_task\000"
 12933      756E745F 
 12933      7461736B 
 12933      00
 12934              	.LASF589:
 12935 1474 7274656D 	 .ascii "rtems_sysinit_handler\000"
 12935      735F7379 
 12935      73696E69 
 12935      745F6861 
 12935      6E646C65 
 12936              	.LASF928:
 12937 148a 4D757465 	 .ascii "Mutex\000"
 12937      7800
 12938              	.LASF377:
 12939 1490 70617468 	 .ascii "pathlen\000"
 12939      6C656E00 
 12940              	.LASF644:
 12941 1498 76616C75 	 .ascii "value\000"
 12941      6500
 12942              	.LASF284:
ARM GAS   			page 248


 12943 149e 7274656D 	 .ascii "rtems_chain_control\000"
 12943      735F6368 
 12943      61696E5F 
 12943      636F6E74 
 12943      726F6C00 
 12944              	.LASF531:
 12945 14b2 7274656D 	 .ascii "rtems_shell_RTRACE_Command\000"
 12945      735F7368 
 12945      656C6C5F 
 12945      52545241 
 12945      43455F43 
 12946              	.LASF633:
 12947 14cd 5052494F 	 .ascii "PRIORITY_ACTION_INVALID\000"
 12947      52495459 
 12947      5F414354 
 12947      494F4E5F 
 12947      494E5641 
 12948              	.LASF664:
 12949 14e5 41637469 	 .ascii "Actions\000"
 12949      6F6E7300 
 12950              	.LASF505:
 12951 14ed 7274656D 	 .ascii "rtems_shell_MOUNT_Command\000"
 12951      735F7368 
 12951      656C6C5F 
 12951      4D4F554E 
 12951      545F436F 
 12952              	.LASF489:
 12953 1507 7274656D 	 .ascii "rtems_shell_LS_Command\000"
 12953      735F7368 
 12953      656C6C5F 
 12953      4C535F43 
 12953      6F6D6D61 
 12954              	.LASF325:
 12955 151e 7274656D 	 .ascii "rtems_filesystem_operations_table\000"
 12955      735F6669 
 12955      6C657379 
 12955      7374656D 
 12955      5F6F7065 
 12956              	.LASF355:
 12957 1540 72656665 	 .ascii "reference_count\000"
 12957      72656E63 
 12957      655F636F 
 12957      756E7400 
 12958              	.LASF1011:
 12959 1550 65786974 	 .ascii "exit\000"
 12959      00
 12960              	.LASF326:
 12961 1555 5F727465 	 .ascii "_rtems_filesystem_operations_table\000"
 12961      6D735F66 
 12961      696C6573 
 12961      79737465 
 12961      6D5F6F70 
 12962              	.LASF879:
 12963 1578 494D4653 	 .ascii "IMFS_node_control_destroy\000"
 12963      5F6E6F64 
 12963      655F636F 
 12963      6E74726F 
ARM GAS   			page 249


 12963      6C5F6465 
 12964              	.LASF773:
 12965 1592 5F4C696E 	 .ascii "_Linker_set__Sysinit__Clock_Initialize\000"
 12965      6B65725F 
 12965      7365745F 
 12965      5F537973 
 12965      696E6974 
 12966              	.LASF785:
 12967 15b9 53544154 	 .ascii "STATUS_CLASSIC_INVALID_SIZE\000"
 12967      55535F43 
 12967      4C415353 
 12967      49435F49 
 12967      4E56414C 
 12968              	.LASF219:
 12969 15d5 7274656D 	 .ascii "rtems_device_minor_number\000"
 12969      735F6465 
 12969      76696365 
 12969      5F6D696E 
 12969      6F725F6E 
 12970              	.LASF246:
 12971 15ef 7274656D 	 .ascii "rtems_event_set\000"
 12971      735F6576 
 12971      656E745F 
 12971      73657400 
 12972              	.LASF558:
 12973 15ff 5045525F 	 .ascii "PER_CPU_WATCHDOG_COUNT\000"
 12973      4350555F 
 12973      57415443 
 12973      48444F47 
 12973      5F434F55 
 12974              	.LASF472:
 12975 1616 7274656D 	 .ascii "rtems_shell_UNSETENV_Command\000"
 12975      735F7368 
 12975      656C6C5F 
 12975      554E5345 
 12975      54454E56 
 12976              	.LASF92:
 12977 1633 5254454D 	 .ascii "RTEMS_INVALID_ID\000"
 12977      535F494E 
 12977      56414C49 
 12977      445F4944 
 12977      00
 12978              	.LASF253:
 12979 1644 7274656D 	 .ascii "rtems_asr_entry\000"
 12979      735F6173 
 12979      725F656E 
 12979      74727900 
 12980              	.LASF908:
 12981 1654 6D617869 	 .ascii "maximum_pending_messages\000"
 12981      6D756D5F 
 12981      70656E64 
 12981      696E675F 
 12981      6D657373 
 12982              	.LASF706:
 12983 166d 54687265 	 .ascii "Thread_Wait_information_Object_argument_type\000"
 12983      61645F57 
 12983      6169745F 
ARM GAS   			page 250


 12983      696E666F 
 12983      726D6174 
 12984              	.LASF858:
 12985 169a 5F525445 	 .ascii "_RTEMS_tasks_Local_table\000"
 12985      4D535F74 
 12985      61736B73 
 12985      5F4C6F63 
 12985      616C5F74 
 12986              	.LASF140:
 12987 16b3 73697A65 	 .ascii "size\000"
 12987      00
 12988              	.LASF699:
 12989 16b8 496E6974 	 .ascii "Initial_stack\000"
 12989      69616C5F 
 12989      73746163 
 12989      6B00
 12990              	.LASF789:
 12991 16c6 53544154 	 .ascii "STATUS_CLASSIC_OBJECT_WAS_DELETED\000"
 12991      55535F43 
 12991      4C415353 
 12991      49435F4F 
 12991      424A4543 
 12992              	.LASF601:
 12993 16e8 4F424A45 	 .ascii "OBJECTS_RTEMS_MESSAGE_QUEUES\000"
 12993      4354535F 
 12993      5254454D 
 12993      535F4D45 
 12993      53534147 
 12994              	.LASF105:
 12995 1705 5254454D 	 .ascii "RTEMS_ILLEGAL_ON_REMOTE_OBJECT\000"
 12995      535F494C 
 12995      4C454741 
 12995      4C5F4F4E 
 12995      5F52454D 
 12996              	.LASF125:
 12997 1724 4F626A65 	 .ascii "Objects_Name\000"
 12997      6374735F 
 12997      4E616D65 
 12997      00
 12998              	.LASF133:
 12999 1731 57617463 	 .ascii "Watchdog_Interval\000"
 12999      68646F67 
 12999      5F496E74 
 12999      65727661 
 12999      6C00
 13000              	.LASF278:
 13001 1743 43686169 	 .ascii "Chain_Iterator_direction\000"
 13001      6E5F4974 
 13001      65726174 
 13001      6F725F64 
 13001      69726563 
 13002              	.LASF584:
 13003 175c 7461736B 	 .ascii "task_stack_size\000"
 13003      5F737461 
 13003      636B5F73 
 13003      697A6500 
 13004              	.LASF704:
ARM GAS   			page 251


 13005 176c 6D757461 	 .ascii "mutable_object\000"
 13005      626C655F 
 13005      6F626A65 
 13005      637400
 13006              	.LASF1006:
 13007 177b 636F6E73 	 .ascii "console_read\000"
 13007      6F6C655F 
 13007      72656164 
 13007      00
 13008              	.LASF642:
 13009 1788 6F776E65 	 .ascii "owner\000"
 13009      7200
 13010              	.LASF43:
 13011 178e 57616974 	 .ascii "Wait\000"
 13011      00
 13012              	.LASF725:
 13013 1793 54687265 	 .ascii "Thread_Life_state\000"
 13013      61645F4C 
 13013      6966655F 
 13013      73746174 
 13013      6500
 13014              	.LASF20:
 13015 17a5 5F6F6666 	 .ascii "_off_t\000"
 13015      5F7400
 13016              	.LASF98:
 13017 17ac 5254454D 	 .ascii "RTEMS_INVALID_NUMBER\000"
 13017      535F494E 
 13017      56414C49 
 13017      445F4E55 
 13017      4D424552 
 13018              	.LASF744:
 13019 17c1 5F617267 	 .ascii "_arg\000"
 13019      00
 13020              	.LASF675:
 13021 17c6 54687265 	 .ascii "Thread_queue_Surrender_operation\000"
 13021      61645F71 
 13021      75657565 
 13021      5F537572 
 13021      72656E64 
 13022              	.LASF1022:
 13023 17e7 5F536368 	 .ascii "_Scheduler_default_Release_job\000"
 13023      6564756C 
 13023      65725F64 
 13023      65666175 
 13023      6C745F52 
 13024              	.LASF15:
 13025 1806 73697A65 	 .ascii "size_t\000"
 13025      5F7400
 13026              	.LASF973:
 13027 180d 494D4653 	 .ascii "IMFS_mount\000"
 13027      5F6D6F75 
 13027      6E7400
 13028              	.LASF23:
 13029 1818 5F5F6673 	 .ascii "__fsblkcnt_t\000"
 13029      626C6B63 
 13029      6E745F74 
 13029      00
ARM GAS   			page 252


 13030              	.LASF66:
 13031 1825 75696E74 	 .ascii "uint8_t\000"
 13031      385F7400 
 13032              	.LASF442:
 13033 182d 7274656D 	 .ascii "rtems_filesystem_mount_configuration\000"
 13033      735F6669 
 13033      6C657379 
 13033      7374656D 
 13033      5F6D6F75 
 13034              	.LASF416:
 13035 1852 7274656D 	 .ascii "rtems_filesystem_poll_t\000"
 13035      735F6669 
 13035      6C657379 
 13035      7374656D 
 13035      5F706F6C 
 13036              	.LASF363:
 13037 186a 665F6261 	 .ascii "f_bavail\000"
 13037      7661696C 
 13037      00
 13038              	.LASF523:
 13039 1873 7274656D 	 .ascii "rtems_shell_CPUUSE_Command\000"
 13039      735F7368 
 13039      656C6C5F 
 13039      43505555 
 13039      53455F43 
 13040              	.LASF169:
 13041 188e 5254454D 	 .ascii "RTEMS_FATAL_SOURCE_ASSERT\000"
 13041      535F4641 
 13041      54414C5F 
 13041      534F5552 
 13041      43455F41 
 13042              	.LASF622:
 13043 18a8 6F626A65 	 .ascii "object_size\000"
 13043      63745F73 
 13043      697A6500 
 13044              	.LASF204:
 13045 18b4 48656164 	 .ascii "Head\000"
 13045      00
 13046              	.LASF960:
 13047 18b9 504F5349 	 .ascii "POSIX_Keys_Control\000"
 13047      585F4B65 
 13047      79735F43 
 13047      6F6E7472 
 13047      6F6C00
 13048              	.LASF276:
 13049 18cc 43484149 	 .ascii "CHAIN_ITERATOR_FORWARD\000"
 13049      4E5F4954 
 13049      45524154 
 13049      4F525F46 
 13049      4F525741 
 13050              	.LASF162:
 13051 18e3 494E5445 	 .ascii "INTERNAL_ERROR_CORE\000"
 13051      524E414C 
 13051      5F455252 
 13051      4F525F43 
 13051      4F524500 
 13052              	.LASF978:
ARM GAS   			page 253


 13053 18f7 494D4653 	 .ascii "IMFS_fchmod\000"
 13053      5F666368 
 13053      6D6F6400 
 13054              	.LASF1024:
 13055 1903 5F536368 	 .ascii "_Scheduler_priority_Node_initialize\000"
 13055      6564756C 
 13055      65725F70 
 13055      72696F72 
 13055      6974795F 
 13056              	.LASF330:
 13057 1927 6C696E6B 	 .ascii "link_h\000"
 13057      5F6800
 13058              	.LASF408:
 13059 192e 7274656D 	 .ascii "rtems_filesystem_writev_t\000"
 13059      735F6669 
 13059      6C657379 
 13059      7374656D 
 13059      5F777269 
 13060              	.LASF763:
 13061 1948 696E6974 	 .ascii "initial\000"
 13061      69616C00 
 13062              	.LASF822:
 13063 1950 5072696F 	 .ascii "Priority_bit_map_Information\000"
 13063      72697479 
 13063      5F626974 
 13063      5F6D6170 
 13063      5F496E66 
 13064              	.LASF842:
 13065 196d 5369676E 	 .ascii "Signal_action\000"
 13065      616C5F61 
 13065      6374696F 
 13065      6E00
 13066              	.LASF994:
 13067 197b 6465765F 	 .ascii "dev_zero_read\000"
 13067      7A65726F 
 13067      5F726561 
 13067      6400
 13068              	.LASF667:
 13069 1989 51756575 	 .ascii "Queue\000"
 13069      6500
 13070              	.LASF388:
 13071 198f 7274656D 	 .ascii "rtems_filesystem_chown_t\000"
 13071      735F6669 
 13071      6C657379 
 13071      7374656D 
 13071      5F63686F 
 13072              	.LASF885:
 13073 19a8 456E7472 	 .ascii "Entries\000"
 13073      69657300 
 13074              	.LASF1036:
 13075 19b0 5F557365 	 .ascii "_User_extensions_Handler_initialization\000"
 13075      725F6578 
 13075      74656E73 
 13075      696F6E73 
 13075      5F48616E 
 13076              	.LASF547:
 13077 19d8 65787069 	 .ascii "expire\000"
ARM GAS   			page 254


 13077      726500
 13078              	.LASF751:
 13079 19df 54687265 	 .ascii "Thread_Control_add_on\000"
 13079      61645F43 
 13079      6F6E7472 
 13079      6F6C5F61 
 13079      64645F6F 
 13080              	.LASF45:
 13081 19f5 52656769 	 .ascii "Registers\000"
 13081      73746572 
 13081      7300
 13082              	.LASF129:
 13083 19ff 4F424A45 	 .ascii "OBJECTS_INTERNAL_API\000"
 13083      4354535F 
 13083      494E5445 
 13083      524E414C 
 13083      5F415049 
 13084              	.LASF823:
 13085 1a14 42617365 	 .ascii "Base\000"
 13085      00
 13086              	.LASF641:
 13087 1a19 53636865 	 .ascii "Scheduler_Node\000"
 13087      64756C65 
 13087      725F4E6F 
 13087      646500
 13088              	.LASF779:
 13089 1a28 53544154 	 .ascii "STATUS_CLASSIC_INVALID_ADDRESS\000"
 13089      55535F43 
 13089      4C415353 
 13089      49435F49 
 13089      4E56414C 
 13090              	.LASF952:
 13091 1a47 5F54696D 	 .ascii "_Timer_Local_table\000"
 13091      65725F4C 
 13091      6F63616C 
 13091      5F746162 
 13091      6C6500
 13092              	.LASF728:
 13093 1a5a 65786974 	 .ascii "exit_value\000"
 13093      5F76616C 
 13093      756500
 13094              	.LASF657:
 13095 1a65 7072696F 	 .ascii "priority_actions\000"
 13095      72697479 
 13095      5F616374 
 13095      696F6E73 
 13095      00
 13096              	.LASF500:
 13097 1a76 7274656D 	 .ascii "rtems_shell_RM_Command\000"
 13097      735F7368 
 13097      656C6C5F 
 13097      524D5F43 
 13097      6F6D6D61 
 13098              	.LASF149:
 13099 1a8d 7274656D 	 .ascii "rtems_task_entry\000"
 13099      735F7461 
 13099      736B5F65 
ARM GAS   			page 255


 13099      6E747279 
 13099      00
 13100              	.LASF953:
 13101 1a9e 5F54696D 	 .ascii "_Timer_Objects\000"
 13101      65725F4F 
 13101      626A6563 
 13101      747300
 13102              	.LASF688:
 13103 1aad 54687265 	 .ascii "Thread_Entry_information\000"
 13103      61645F45 
 13103      6E747279 
 13103      5F696E66 
 13103      6F726D61 
 13104              	.LASF652:
 13105 1ac6 74696D65 	 .ascii "timeout_absolute\000"
 13105      6F75745F 
 13105      6162736F 
 13105      6C757465 
 13105      00
 13106              	.LASF564:
 13107 1ad7 6973725F 	 .ascii "isr_nest_level\000"
 13107      6E657374 
 13107      5F6C6576 
 13107      656C00
 13108              	.LASF850:
 13109 1ae6 73636865 	 .ascii "sched_ss_max_repl\000"
 13109      645F7373 
 13109      5F6D6178 
 13109      5F726570 
 13109      6C00
 13110              	.LASF167:
 13111 1af8 5254454D 	 .ascii "RTEMS_FATAL_SOURCE_EXIT\000"
 13111      535F4641 
 13111      54414C5F 
 13111      534F5552 
 13111      43455F45 
 13112              	.LASF550:
 13113 1b10 66697273 	 .ascii "first\000"
 13113      7400
 13114              	.LASF449:
 13115 1b16 636F6D6D 	 .ascii "command\000"
 13115      616E6400 
 13116              	.LASF400:
 13117 1b1e 7274656D 	 .ascii "rtems_filesystem_readlink_t\000"
 13117      735F6669 
 13117      6C657379 
 13117      7374656D 
 13117      5F726561 
 13118              	.LASF697:
 13119 1b3a 6370755F 	 .ascii "cpu_budget_operations\000"
 13119      62756467 
 13119      65745F6F 
 13119      70657261 
 13119      74696F6E 
 13120              	.LASF838:
 13121 1b50 4576656E 	 .ascii "Event_Control\000"
 13121      745F436F 
ARM GAS   			page 256


 13121      6E74726F 
 13121      6C00
 13122              	.LASF328:
 13123 1b5e 756E6C6F 	 .ascii "unlock_h\000"
 13123      636B5F68 
 13123      00
 13124              	.LASF91:
 13125 1b67 5254454D 	 .ascii "RTEMS_INVALID_NAME\000"
 13125      535F494E 
 13125      56414C49 
 13125      445F4E41 
 13125      4D4500
 13126              	.LASF1007:
 13127 1b7a 636F6E73 	 .ascii "console_close\000"
 13127      6F6C655F 
 13127      636C6F73 
 13127      6500
 13128              	.LASF835:
 13129 1b88 7369676E 	 .ascii "signals_pending\000"
 13129      616C735F 
 13129      70656E64 
 13129      696E6700 
 13130              	.LASF391:
 13131 1b98 7274656D 	 .ascii "rtems_filesystem_mount_t\000"
 13131      735F6669 
 13131      6C657379 
 13131      7374656D 
 13131      5F6D6F75 
 13132              	.LASF714:
 13133 1bb1 73706172 	 .ascii "spare_heads\000"
 13133      655F6865 
 13133      61647300 
 13134              	.LASF630:
 13135 1bbd 5052494F 	 .ascii "PRIORITY_ACTION_ADD\000"
 13135      52495459 
 13135      5F414354 
 13135      494F4E5F 
 13135      41444400 
 13136              	.LASF671:
 13137 1bd1 54687265 	 .ascii "Thread_queue_Heads\000"
 13137      61645F71 
 13137      75657565 
 13137      5F486561 
 13137      647300
 13138              	.LASF890:
 13139 1be4 66696C65 	 .ascii "file\000"
 13139      00
 13140              	.LASF406:
 13141 1be9 7274656D 	 .ascii "rtems_filesystem_readv_t\000"
 13141      735F6669 
 13141      6C657379 
 13141      7374656D 
 13141      5F726561 
 13142              	.LASF286:
 13143 1c02 7274656D 	 .ascii "rtems_libio_tt\000"
 13143      735F6C69 
 13143      62696F5F 
ARM GAS   			page 257


 13143      747400
 13144              	.LASF743:
 13145 1c11 5F726F75 	 .ascii "_routine\000"
 13145      74696E65 
 13145      00
 13146              	.LASF36:
 13147 1c1a 5F546872 	 .ascii "_Thread_queue_Heads\000"
 13147      6561645F 
 13147      71756575 
 13147      655F4865 
 13147      61647300 
 13148              	.LASF203:
 13149 1c2e 66696C6C 	 .ascii "fill\000"
 13149      00
 13150              	.LASF798:
 13151 1c33 7969656C 	 .ascii "yield\000"
 13151      6400
 13152              	.LASF32:
 13153 1c39 5F5F6E6C 	 .ascii "__nlink_t\000"
 13153      696E6B5F 
 13153      7400
 13154              	.LASF983:
 13155 1c43 494D4653 	 .ascii "IMFS_eval_path\000"
 13155      5F657661 
 13155      6C5F7061 
 13155      746800
 13156              	.LASF263:
 13157 1c52 73745F69 	 .ascii "st_ino\000"
 13157      6E6F00
 13158              	.LASF981:
 13159 1c59 7274656D 	 .ascii "rtems_filesystem_default_are_nodes_equal\000"
 13159      735F6669 
 13159      6C657379 
 13159      7374656D 
 13159      5F646566 
 13160              	.LASF264:
 13161 1c82 73745F6D 	 .ascii "st_mode\000"
 13161      6F646500 
 13162              	.LASF315:
 13163 1c8a 66737461 	 .ascii "fstat_h\000"
 13163      745F6800 
 13164              	.LASF991:
 13165 1c92 5F494F5F 	 .ascii "_IO_Initialize_all_drivers\000"
 13165      496E6974 
 13165      69616C69 
 13165      7A655F61 
 13165      6C6C5F64 
 13166              	.LASF468:
 13167 1cad 7274656D 	 .ascii "rtems_shell_CMDCHMOD_Command\000"
 13167      735F7368 
 13167      656C6C5F 
 13167      434D4443 
 13167      484D4F44 
 13168              	.LASF1023:
 13169 1cca 5F536368 	 .ascii "_Scheduler_default_Node_destroy\000"
 13169      6564756C 
 13169      65725F64 
ARM GAS   			page 258


 13169      65666175 
 13169      6C745F4E 
 13170              	.LASF977:
 13171 1cea 494D4653 	 .ascii "IMFS_chown\000"
 13171      5F63686F 
 13171      776E00
 13172              	.LASF924:
 13173 1cf5 4D656D6F 	 .ascii "Memory\000"
 13173      727900
 13174              	.LASF394:
 13175 1cfc 7274656D 	 .ascii "rtems_filesystem_fsunmount_me_t\000"
 13175      735F6669 
 13175      6C657379 
 13175      7374656D 
 13175      5F667375 
 13176              	.LASF615:
 13177 1d1c 4F626A65 	 .ascii "Objects_Information\000"
 13177      6374735F 
 13177      496E666F 
 13177      726D6174 
 13177      696F6E00 
 13178              	.LASF690:
 13179 1d30 61745F63 	 .ascii "at_context_switch\000"
 13179      6F6E7465 
 13179      78745F73 
 13179      77697463 
 13179      6800
 13180              	.LASF439:
 13181 1d42 66696C65 	 .ascii "filesystemtype\000"
 13181      73797374 
 13181      656D7479 
 13181      706500
 13182              	.LASF932:
 13183 1d51 5072696F 	 .ascii "Priority_ceiling\000"
 13183      72697479 
 13183      5F636569 
 13183      6C696E67 
 13183      00
 13184              	.LASF469:
 13185 1d62 7274656D 	 .ascii "rtems_shell_LOGOFF_Command\000"
 13185      735F7368 
 13185      656C6C5F 
 13185      4C4F474F 
 13185      46465F43 
 13186              	.LASF613:
 13187 1d7d 4F424A45 	 .ascii "OBJECTS_POSIX_TIMERS\000"
 13187      4354535F 
 13187      504F5349 
 13187      585F5449 
 13187      4D455253 
 13188              	.LASF189:
 13189 1d92 74687265 	 .ascii "thread_create\000"
 13189      61645F63 
 13189      72656174 
 13189      6500
 13190              	.LASF418:
 13191 1da0 7274656D 	 .ascii "rtems_filesystem_mmap_t\000"
ARM GAS   			page 259


 13191      735F6669 
 13191      6C657379 
 13191      7374656D 
 13191      5F6D6D61 
 13192              	.LASF94:
 13193 1db8 5254454D 	 .ascii "RTEMS_TIMEOUT\000"
 13193      535F5449 
 13193      4D454F55 
 13193      5400
 13194              	.LASF492:
 13195 1dc6 7274656D 	 .ascii "rtems_shell_RMDIR_Command\000"
 13195      735F7368 
 13195      656C6C5F 
 13195      524D4449 
 13195      525F436F 
 13196              	.LASF307:
 13197 1de0 7274656D 	 .ascii "rtems_filesystem_file_handlers_r\000"
 13197      735F6669 
 13197      6C657379 
 13197      7374656D 
 13197      5F66696C 
 13198              	.LASF538:
 13199 1e01 7262655F 	 .ascii "rbe_left\000"
 13199      6C656674 
 13199      00
 13200              	.LASF659:
 13201 1e0a 65787472 	 .ascii "extract\000"
 13201      61637400 
 13202              	.LASF599:
 13203 1e12 4F424A45 	 .ascii "OBJECTS_RTEMS_TIMERS\000"
 13203      4354535F 
 13203      5254454D 
 13203      535F5449 
 13203      4D455253 
 13204              	.LASF399:
 13205 1e27 7274656D 	 .ascii "rtems_filesystem_symlink_t\000"
 13205      735F6669 
 13205      6C657379 
 13205      7374656D 
 13205      5F73796D 
 13206              	.LASF10:
 13207 1e42 5F5F696E 	 .ascii "__int64_t\000"
 13207      7436345F 
 13207      7400
 13208              	.LASF724:
 13209 1e4c 54687265 	 .ascii "Thread_Action_control\000"
 13209      61645F41 
 13209      6374696F 
 13209      6E5F636F 
 13209      6E74726F 
 13210              	.LASF767:
 13211 1e62 5F546872 	 .ascii "_Thread_Information\000"
 13211      6561645F 
 13211      496E666F 
 13211      726D6174 
 13211      696F6E00 
 13212              	.LASF46:
ARM GAS   			page 260


 13213 1e76 69735F69 	 .ascii "is_idle\000"
 13213      646C6500 
 13214              	.LASF12:
 13215 1e7e 5F5F7569 	 .ascii "__uint64_t\000"
 13215      6E743634 
 13215      5F7400
 13216              	.LASF707:
 13217 1e89 54687265 	 .ascii "Thread_Wait_flags\000"
 13217      61645F57 
 13217      6169745F 
 13217      666C6167 
 13217      7300
 13218              	.LASF867:
 13219 1e9b 7274656D 	 .ascii "rtems_libio_number_iops\000"
 13219      735F6C69 
 13219      62696F5F 
 13219      6E756D62 
 13219      65725F69 
 13220              	.LASF100:
 13221 1eb3 5254454D 	 .ascii "RTEMS_RESOURCE_IN_USE\000"
 13221      535F5245 
 13221      534F5552 
 13221      43455F49 
 13221      4E5F5553 
 13222              	.LASF565:
 13223 1ec9 74687265 	 .ascii "thread_dispatch_disable_level\000"
 13223      61645F64 
 13223      69737061 
 13223      7463685F 
 13223      64697361 
 13224              	.LASF916:
 13225 1ee7 434F5245 	 .ascii "CORE_message_queue_Notify_Handler\000"
 13225      5F6D6573 
 13225      73616765 
 13225      5F717565 
 13225      75655F4E 
 13226              	.LASF990:
 13227 1f09 7274656D 	 .ascii "rtems_libio_post_driver\000"
 13227      735F6C69 
 13227      62696F5F 
 13227      706F7374 
 13227      5F647269 
 13228              	.LASF61:
 13229 1f21 6C617374 	 .ascii "last_user_extensions_iterator\000"
 13229      5F757365 
 13229      725F6578 
 13229      74656E73 
 13229      696F6E73 
 13230              	.LASF465:
 13231 1f3f 7274656D 	 .ascii "rtems_shell_TIME_Command\000"
 13231      735F7368 
 13231      656C6C5F 
 13231      54494D45 
 13231      5F436F6D 
 13232              	.LASF795:
 13233 1f58 53544154 	 .ascii "STATUS_CLASSIC_UNSATISFIED\000"
 13233      55535F43 
ARM GAS   			page 261


 13233      4C415353 
 13233      49435F55 
 13233      4E534154 
 13234              	.LASF650:
 13235 1f73 656E7175 	 .ascii "enqueue_callout\000"
 13235      6575655F 
 13235      63616C6C 
 13235      6F757400 
 13236              	.LASF658:
 13237 1f83 656E7175 	 .ascii "enqueue\000"
 13237      65756500 
 13238              	.LASF131:
 13239 1f8b 4F424A45 	 .ascii "OBJECTS_POSIX_API\000"
 13239      4354535F 
 13239      504F5349 
 13239      585F4150 
 13239      4900
 13240              	.LASF283:
 13241 1f9d 7274656D 	 .ascii "rtems_chain_node\000"
 13241      735F6368 
 13241      61696E5F 
 13241      6E6F6465 
 13241      00
 13242              	.LASF1039:
 13243 1fae 7274656D 	 .ascii "rtems_stack_checker_switch_extension\000"
 13243      735F7374 
 13243      61636B5F 
 13243      63686563 
 13243      6B65725F 
 13244              	.LASF224:
 13245 1fd3 72656164 	 .ascii "read_entry\000"
 13245      5F656E74 
 13245      727900
 13246              	.LASF570:
 13247 1fde 6370755F 	 .ascii "cpu_usage_timestamp\000"
 13247      75736167 
 13247      655F7469 
 13247      6D657374 
 13247      616D7000 
 13248              	.LASF534:
 13249 1ff2 7274656D 	 .ascii "rtems_shell_CD_Alias\000"
 13249      735F7368 
 13249      656C6C5F 
 13249      43445F41 
 13249      6C696173 
 13250              	.LASF120:
 13251 2007 74696D65 	 .ascii "timespec\000"
 13251      73706563 
 13251      00
 13252              	.LASF117:
 13253 2010 5254454D 	 .ascii "RTEMS_PROXY_BLOCKING\000"
 13253      535F5052 
 13253      4F58595F 
 13253      424C4F43 
 13253      4B494E47 
 13254              	.LASF420:
 13255 2025 6D61785F 	 .ascii "max_canon\000"
ARM GAS   			page 262


 13255      63616E6F 
 13255      6E00
 13256              	.LASF568:
 13257 202f 65786563 	 .ascii "executing\000"
 13257      7574696E 
 13257      6700
 13258              	.LASF636:
 13259 2039 436F6E74 	 .ascii "Contributors\000"
 13259      72696275 
 13259      746F7273 
 13259      00
 13260              	.LASF784:
 13261 2046 53544154 	 .ascii "STATUS_CLASSIC_INVALID_PRIORITY\000"
 13261      55535F43 
 13261      4C415353 
 13261      49435F49 
 13261      4E56414C 
 13262              	.LASF138:
 13263 2066 7274656D 	 .ascii "rtems_name\000"
 13263      735F6E61 
 13263      6D6500
 13264              	.LASF332:
 13265 2071 6D6B6E6F 	 .ascii "mknod_h\000"
 13265      645F6800 
 13266              	.LASF594:
 13267 2079 4F626A65 	 .ascii "Objects_Control\000"
 13267      6374735F 
 13267      436F6E74 
 13267      726F6C00 
 13268              	.LASF808:
 13269 2089 73746172 	 .ascii "start_idle\000"
 13269      745F6964 
 13269      6C6500
 13270              	.LASF314:
 13271 2094 6C736565 	 .ascii "lseek_h\000"
 13271      6B5F6800 
 13272              	.LASF58:
 13273 209c 43617074 	 .ascii "Capture\000"
 13273      75726500 
 13274              	.LASF640:
 13275 20a4 5072696F 	 .ascii "Priority_Actions\000"
 13275      72697479 
 13275      5F416374 
 13275      696F6E73 
 13275      00
 13276              	.LASF740:
 13277 20b5 6E67726F 	 .ascii "ngroups\000"
 13277      75707300 
 13278              	.LASF1032:
 13279 20bd 5F536368 	 .ascii "_Scheduler_priority_Initialize\000"
 13279      6564756C 
 13279      65725F70 
 13279      72696F72 
 13279      6974795F 
 13280              	.LASF778:
 13281 20dc 53544154 	 .ascii "STATUS_CLASSIC_INTERNAL_ERROR\000"
 13281      55535F43 
ARM GAS   			page 263


 13281      4C415353 
 13281      49435F49 
 13281      4E544552 
 13282              	.LASF985:
 13283 20fa 7274656D 	 .ascii "rtems_filesystem_default_lock\000"
 13283      735F6669 
 13283      6C657379 
 13283      7374656D 
 13283      5F646566 
 13284              	.LASF914:
 13285 2118 6E6F7469 	 .ascii "notify_handler\000"
 13285      66795F68 
 13285      616E646C 
 13285      657200
 13286              	.LASF1021:
 13287 2127 5F536368 	 .ascii "_Scheduler_default_Cancel_job\000"
 13287      6564756C 
 13287      65725F64 
 13287      65666175 
 13287      6C745F43 
 13288              	.LASF266:
 13289 2145 73745F75 	 .ascii "st_uid\000"
 13289      696400
 13290              	.LASF963:
 13291 214c 5F504F53 	 .ascii "_POSIX_Keys_Objects\000"
 13291      49585F4B 
 13291      6579735F 
 13291      4F626A65 
 13291      63747300 
 13292              	.LASF231:
 13293 2160 626C6B73 	 .ascii "blksize_t\000"
 13293      697A655F 
 13293      7400
 13294              	.LASF318:
 13295 216a 66646174 	 .ascii "fdatasync_h\000"
 13295      6173796E 
 13295      635F6800 
 13296              	.LASF370:
 13297 2176 696F7665 	 .ascii "iovec\000"
 13297      6300
 13298              	.LASF754:
 13299 217c 5F546872 	 .ascii "_Thread_Initial_thread_count\000"
 13299      6561645F 
 13299      496E6974 
 13299      69616C5F 
 13299      74687265 
 13300              	.LASF1004:
 13301 2199 636F6E73 	 .ascii "console_control\000"
 13301      6F6C655F 
 13301      636F6E74 
 13301      726F6C00 
 13302              	.LASF721:
 13303 21a9 54687265 	 .ascii "Thread_Action_handler\000"
 13303      61645F41 
 13303      6374696F 
 13303      6E5F6861 
 13303      6E646C65 
ARM GAS   			page 264


 13304              	.LASF597:
 13305 21bf 4F424A45 	 .ascii "OBJECTS_CLASSIC_NO_CLASS\000"
 13305      4354535F 
 13305      434C4153 
 13305      5349435F 
 13305      4E4F5F43 
 13306              	.LASF925:
 13307 21d8 50617274 	 .ascii "Partition_Control\000"
 13307      6974696F 
 13307      6E5F436F 
 13307      6E74726F 
 13307      6C00
 13308              	.LASF495:
 13309 21ea 7274656D 	 .ascii "rtems_shell_CAT_Command\000"
 13309      735F7368 
 13309      656C6C5F 
 13309      4341545F 
 13309      436F6D6D 
 13310              	.LASF359:
 13311 2202 665F6273 	 .ascii "f_bsize\000"
 13311      697A6500 
 13312              	.LASF703:
 13313 220a 54687265 	 .ascii "Thread_Scheduler_control\000"
 13313      61645F53 
 13313      63686564 
 13313      756C6572 
 13313      5F636F6E 
 13314              	.LASF39:
 13315 2223 4A6F696E 	 .ascii "Join_queue\000"
 13315      5F717565 
 13315      756500
 13316              	.LASF723:
 13317 222e 54687265 	 .ascii "Thread_Keys_information\000"
 13317      61645F4B 
 13317      6579735F 
 13317      696E666F 
 13317      726D6174 
 13318              	.LASF225:
 13319 2246 77726974 	 .ascii "write_entry\000"
 13319      655F656E 
 13319      74727900 
 13320              	.LASF30:
 13321 2252 5F737369 	 .ascii "_ssize_t\000"
 13321      7A655F74 
 13321      00
 13322              	.LASF150:
 13323 225b 6E616D65 	 .ascii "name\000"
 13323      00
 13324              	.LASF446:
 13325 2260 7274656D 	 .ascii "rtems_shell_cmd_tt\000"
 13325      735F7368 
 13325      656C6C5F 
 13325      636D645F 
 13325      747400
 13326              	.LASF62:
 13327 2273 65787465 	 .ascii "extensions\000"
 13327      6E73696F 
ARM GAS   			page 265


 13327      6E7300
 13328              	.LASF403:
 13329 227e 7274656D 	 .ascii "rtems_filesystem_open_t\000"
 13329      735F6669 
 13329      6C657379 
 13329      7374656D 
 13329      5F6F7065 
 13330              	.LASF447:
 13331 2296 75736167 	 .ascii "usage\000"
 13331      6500
 13332              	.LASF402:
 13333 229c 7274656D 	 .ascii "rtems_filesystem_statvfs_t\000"
 13333      735F6669 
 13333      6C657379 
 13333      7374656D 
 13333      5F737461 
 13334              	.LASF814:
 13335 22b7 6D616A6F 	 .ascii "major_bit_map\000"
 13335      725F6269 
 13335      745F6D61 
 13335      7000
 13336              	.LASF334:
 13337 22c5 6663686D 	 .ascii "fchmod_h\000"
 13337      6F645F68 
 13337      00
 13338              	.LASF656:
 13339 22ce 54687265 	 .ascii "Thread_queue_Operations\000"
 13339      61645F71 
 13339      75657565 
 13339      5F4F7065 
 13339      72617469 
 13340              	.LASF566:
 13341 22e6 64697370 	 .ascii "dispatch_necessary\000"
 13341      61746368 
 13341      5F6E6563 
 13341      65737361 
 13341      727900
 13342              	.LASF902:
 13343 22f9 494D4653 	 .ascii "IMFS_root_ops\000"
 13343      5F726F6F 
 13343      745F6F70 
 13343      7300
 13344              	.LASF499:
 13345 2307 7274656D 	 .ascii "rtems_shell_MV_Command\000"
 13345      735F7368 
 13345      656C6C5F 
 13345      4D565F43 
 13345      6F6D6D61 
 13346              	.LASF37:
 13347 231e 5F546872 	 .ascii "_Thread_Control\000"
 13347      6561645F 
 13347      436F6E74 
 13347      726F6C00 
 13348              	.LASF414:
 13349 232e 7274656D 	 .ascii "rtems_filesystem_fdatasync_t\000"
 13349      735F6669 
 13349      6C657379 
ARM GAS   			page 266


 13349      7374656D 
 13349      5F666461 
 13350              	.LASF322:
 13351 234b 72656164 	 .ascii "readv_h\000"
 13351      765F6800 
 13352              	.LASF962:
 13353 2353 5F504F53 	 .ascii "_POSIX_Keys_Local_table\000"
 13353      49585F4B 
 13353      6579735F 
 13353      4C6F6361 
 13353      6C5F7461 
 13354              	.LASF670:
 13355 236b 4669666F 	 .ascii "Fifo\000"
 13355      00
 13356              	.LASF700:
 13357 2370 746C735F 	 .ascii "tls_area\000"
 13357      61726561 
 13357      00
 13358              	.LASF450:
 13359 2379 616C6961 	 .ascii "alias\000"
 13359      7300
 13360              	.LASF1044:
 13361 237f 70757473 	 .ascii "puts\000"
 13361      00
 13362              	.LASF801:
 13363 2384 75706461 	 .ascii "update_priority\000"
 13363      74655F70 
 13363      72696F72 
 13363      69747900 
 13364              	.LASF466:
 13365 2394 7274656D 	 .ascii "rtems_shell_CMDLS_Command\000"
 13365      735F7368 
 13365      656C6C5F 
 13365      434D444C 
 13365      535F436F 
 13366              	.LASF353:
 13367 23ae 7274656D 	 .ascii "rtems_filesystem_global_location_t\000"
 13367      735F6669 
 13367      6C657379 
 13367      7374656D 
 13367      5F676C6F 
 13368              	.LASF607:
 13369 23d1 4F424A45 	 .ascii "OBJECTS_RTEMS_BARRIERS\000"
 13369      4354535F 
 13369      5254454D 
 13369      535F4241 
 13369      52524945 
 13370              	.LASF881:
 13371 23e8 494D4653 	 .ascii "IMFS_node_control\000"
 13371      5F6E6F64 
 13371      655F636F 
 13371      6E74726F 
 13371      6C00
 13372              	.LASF948:
 13373 23fa 5F506172 	 .ascii "_Partition_Local_table\000"
 13373      74697469 
 13373      6F6E5F4C 
ARM GAS   			page 267


 13373      6F63616C 
 13373      5F746162 
 13374              	.LASF331:
 13375 2411 6172655F 	 .ascii "are_nodes_equal_h\000"
 13375      6E6F6465 
 13375      735F6571 
 13375      75616C5F 
 13375      6800
 13376              	.LASF506:
 13377 2423 7274656D 	 .ascii "rtems_shell_UNMOUNT_Command\000"
 13377      735F7368 
 13377      656C6C5F 
 13377      554E4D4F 
 13377      554E545F 
 13378              	.LASF178:
 13379 243f 496E7465 	 .ascii "Internal_errors_Source\000"
 13379      726E616C 
 13379      5F657272 
 13379      6F72735F 
 13379      536F7572 
 13380              	.LASF692:
 13381 2456 54687265 	 .ascii "Thread_CPU_budget_operations\000"
 13381      61645F43 
 13381      50555F62 
 13381      75646765 
 13381      745F6F70 
 13382              	.LASF367:
 13383 2473 665F6673 	 .ascii "f_fsid\000"
 13383      696400
 13384              	.LASF188:
 13385 247a 55736572 	 .ascii "User_extensions_thread_terminate_extension\000"
 13385      5F657874 
 13385      656E7369 
 13385      6F6E735F 
 13385      74687265 
 13386              	.LASF89:
 13387 24a5 5254454D 	 .ascii "RTEMS_TASK_EXITTED\000"
 13387      535F5441 
 13387      534B5F45 
 13387      58495454 
 13387      454400
 13388              	.LASF1001:
 13389 24b8 6E756C6C 	 .ascii "null_close\000"
 13389      5F636C6F 
 13389      736500
 13390              	.LASF1015:
 13391 24c3 726B695F 	 .ascii "rki_init_libbsd\000"
 13391      696E6974 
 13391      5F6C6962 
 13391      62736400 
 13392              	.LASF913:
 13393 24d3 66726565 	 .ascii "free_message_buffers\000"
 13393      5F6D6573 
 13393      73616765 
 13393      5F627566 
 13393      66657273 
 13394              	.LASF161:
ARM GAS   			page 268


 13395 24e8 5F546872 	 .ascii "_Thread_Idle_stack_size\000"
 13395      6561645F 
 13395      49646C65 
 13395      5F737461 
 13395      636B5F73 
 13396              	.LASF7:
 13397 2500 73686F72 	 .ascii "short unsigned int\000"
 13397      7420756E 
 13397      7369676E 
 13397      65642069 
 13397      6E7400
 13398              	.LASF2:
 13399 2513 7369676E 	 .ascii "signed char\000"
 13399      65642063 
 13399      68617200 
 13400              	.LASF490:
 13401 251f 7274656D 	 .ascii "rtems_shell_CHDIR_Command\000"
 13401      735F7368 
 13401      656C6C5F 
 13401      43484449 
 13401      525F436F 
 13402              	.LASF18:
 13403 2539 5F5F626C 	 .ascii "__blksize_t\000"
 13403      6B73697A 
 13403      655F7400 
 13404              	.LASF136:
 13405 2545 5F576174 	 .ascii "_Watchdog_Ticks_per_second\000"
 13405      6368646F 
 13405      675F5469 
 13405      636B735F 
 13405      7065725F 
 13406              	.LASF617:
 13407 2560 6C6F6361 	 .ascii "local_table\000"
 13407      6C5F7461 
 13407      626C6500 
 13408              	.LASF518:
 13409 256c 7274656D 	 .ascii "rtems_shell_I2CDETECT_Command\000"
 13409      735F7368 
 13409      656C6C5F 
 13409      49324344 
 13409      45544543 
 13410              	.LASF1049:
 13411 258a 2E2E2F2E 	 .ascii "../../src/rki_init.c\000"
 13411      2E2F7372 
 13411      632F726B 
 13411      695F696E 
 13411      69742E63 
 13412              	.LASF1043:
 13413 259f 73746174 	 .ascii "status\000"
 13413      757300
 13414              	.LASF527:
 13415 25a6 7274656D 	 .ascii "rtems_shell_PROFREPORT_Command\000"
 13415      735F7368 
 13415      656C6C5F 
 13415      50524F46 
 13415      5245504F 
 13416              	.LASF998:
ARM GAS   			page 269


 13417 25c5 6E756C6C 	 .ascii "null_control\000"
 13417      5F636F6E 
 13417      74726F6C 
 13417      00
 13418              	.LASF708:
 13419 25d2 636F756E 	 .ascii "count\000"
 13419      7400
 13420              	.LASF781:
 13421 25d8 53544154 	 .ascii "STATUS_CLASSIC_INVALID_NAME\000"
 13421      55535F43 
 13421      4C415353 
 13421      49435F49 
 13421      4E56414C 
 13422              	.LASF405:
 13423 25f4 7274656D 	 .ascii "rtems_filesystem_read_t\000"
 13423      735F6669 
 13423      6C657379 
 13423      7374656D 
 13423      5F726561 
 13424              	.LASF947:
 13425 260c 5F4D6573 	 .ascii "_Message_queue_Objects\000"
 13425      73616765 
 13425      5F717565 
 13425      75655F4F 
 13425      626A6563 
 13426              	.LASF627:
 13427 2623 696E6974 	 .ascii "initial_objects\000"
 13427      69616C5F 
 13427      6F626A65 
 13427      63747300 
 13428              	.LASF677:
 13429 2633 54687265 	 .ascii "Thread_queue_Control\000"
 13429      61645F71 
 13429      75657565 
 13429      5F436F6E 
 13429      74726F6C 
 13430              	.LASF1009:
 13431 2648 636F6E73 	 .ascii "console_initialize\000"
 13431      6F6C655F 
 13431      696E6974 
 13431      69616C69 
 13431      7A6500
 13432              	.LASF974:
 13433 265b 7274656D 	 .ascii "rtems_filesystem_default_fsunmount\000"
 13433      735F6669 
 13433      6C657379 
 13433      7374656D 
 13433      5F646566 
 13434              	.LASF1013:
 13435 267e 726B695F 	 .ascii "rki_start_network_services\000"
 13435      73746172 
 13435      745F6E65 
 13435      74776F72 
 13435      6B5F7365 
 13436              	.LASF458:
 13437 2699 7274656D 	 .ascii "rtems_shell_HOSTNAME_Command\000"
 13437      735F7368 
ARM GAS   			page 270


 13437      656C6C5F 
 13437      484F5354 
 13437      4E414D45 
 13438              	.LASF497:
 13439 26b6 7274656D 	 .ascii "rtems_shell_MSDOSFMT_Command\000"
 13439      735F7368 
 13439      656C6C5F 
 13439      4D53444F 
 13439      53464D54 
 13440              	.LASF812:
 13441 26d3 5F536368 	 .ascii "_Scheduler_Table\000"
 13441      6564756C 
 13441      65725F54 
 13441      61626C65 
 13441      00
 13442              	.LASF554:
 13443 26e4 5065725F 	 .ascii "Per_CPU_Stats\000"
 13443      4350555F 
 13443      53746174 
 13443      7300
 13444              	.LASF726:
 13445 26f2 73746174 	 .ascii "state\000"
 13445      6500
 13446              	.LASF229:
 13447 26f8 73696773 	 .ascii "sigset_t\000"
 13447      65745F74 
 13447      00
 13448              	.LASF602:
 13449 2701 4F424A45 	 .ascii "OBJECTS_RTEMS_PARTITIONS\000"
 13449      4354535F 
 13449      5254454D 
 13449      535F5041 
 13449      52544954 
 13450              	.LASF860:
 13451 271a 5F525445 	 .ascii "_RTEMS_tasks_Heads\000"
 13451      4D535F74 
 13451      61736B73 
 13451      5F486561 
 13451      647300
 13452              	.LASF49:
 13453 272d 7761735F 	 .ascii "was_created_with_inherited_scheduler\000"
 13453      63726561 
 13453      7465645F 
 13453      77697468 
 13453      5F696E68 
 13454              	.LASF452:
 13455 2752 7274656D 	 .ascii "rtems_shell_alias_t\000"
 13455      735F7368 
 13455      656C6C5F 
 13455      616C6961 
 13455      735F7400 
 13456              	.LASF168:
 13457 2766 5254454D 	 .ascii "RTEMS_FATAL_SOURCE_BSP\000"
 13457      535F4641 
 13457      54414C5F 
 13457      534F5552 
 13457      43455F42 
ARM GAS   			page 271


 13458              	.LASF600:
 13459 277d 4F424A45 	 .ascii "OBJECTS_RTEMS_SEMAPHORES\000"
 13459      4354535F 
 13459      5254454D 
 13459      535F5345 
 13459      4D415048 
 13460              	.LASF50:
 13461 2796 4350555F 	 .ascii "CPU_budget\000"
 13461      62756467 
 13461      657400
 13462              	.LASF826:
 13463 27a1 53636865 	 .ascii "Scheduler_priority_Context\000"
 13463      64756C65 
 13463      725F7072 
 13463      696F7269 
 13463      74795F43 
 13464              	.LASF877:
 13465 27bc 494D4653 	 .ascii "IMFS_node_control_initialize\000"
 13465      5F6E6F64 
 13465      655F636F 
 13465      6E74726F 
 13465      6C5F696E 
 13466              	.LASF376:
 13467 27d9 70617468 	 .ascii "path\000"
 13467      00
 13468              	.LASF241:
 13469 27de 5F536368 	 .ascii "_Scheduler_Control\000"
 13469      6564756C 
 13469      65725F43 
 13469      6F6E7472 
 13469      6F6C00
 13470              	.LASF759:
 13471 27f1 53636865 	 .ascii "Scheduler_nodes\000"
 13471      64756C65 
 13471      725F6E6F 
 13471      64657300 
 13472              	.LASF282:
 13473 2801 43686169 	 .ascii "Chain_Iterator\000"
 13473      6E5F4974 
 13473      65726174 
 13473      6F7200
 13474              	.LASF111:
 13475 2810 5254454D 	 .ascii "RTEMS_NOT_OWNER_OF_RESOURCE\000"
 13475      535F4E4F 
 13475      545F4F57 
 13475      4E45525F 
 13475      4F465F52 
 13476              	.LASF651:
 13477 282c 54696D65 	 .ascii "Timeout\000"
 13477      6F757400 
 13478              	.LASF827:
 13479 2834 63757272 	 .ascii "current_priority\000"
 13479      656E745F 
 13479      7072696F 
 13479      72697479 
 13479      00
 13480              	.LASF208:
ARM GAS   			page 272


 13481 2845 53776974 	 .ascii "Switch\000"
 13481      636800
 13482              	.LASF972:
 13483 284c 494D4653 	 .ascii "IMFS_unmount\000"
 13483      5F756E6D 
 13483      6F756E74 
 13483      00
 13484              	.LASF174:
 13485 2859 5254454D 	 .ascii "RTEMS_FATAL_SOURCE_INVALID_HEAP_FREE\000"
 13485      535F4641 
 13485      54414C5F 
 13485      534F5552 
 13485      43455F49 
 13486              	.LASF483:
 13487 287e 7274656D 	 .ascii "rtems_shell_SLEEP_Command\000"
 13487      735F7368 
 13487      656C6C5F 
 13487      534C4545 
 13487      505F436F 
 13488              	.LASF230:
 13489 2898 626C6B63 	 .ascii "blkcnt_t\000"
 13489      6E745F74 
 13489      00
 13490              	.LASF901:
 13491 28a1 494D4653 	 .ascii "IMFS_root_fs_info\000"
 13491      5F726F6F 
 13491      745F6673 
 13491      5F696E66 
 13491      6F00
 13492              	.LASF693:
 13493 28b3 6F706572 	 .ascii "operations\000"
 13493      6174696F 
 13493      6E7300
 13494              	.LASF537:
 13495 28be 54696D65 	 .ascii "Timestamp_Control\000"
 13495      7374616D 
 13495      705F436F 
 13495      6E74726F 
 13495      6C00
 13496              	.LASF455:
 13497 28d0 7274656D 	 .ascii "rtems_shell_IFCONFIG_Command\000"
 13497      735F7368 
 13497      656C6C5F 
 13497      4946434F 
 13497      4E464947 
 13498              	.LASF222:
 13499 28ed 6F70656E 	 .ascii "open_entry\000"
 13499      5F656E74 
 13499      727900
 13500              	.LASF783:
 13501 28f8 53544154 	 .ascii "STATUS_CLASSIC_INVALID_NUMBER\000"
 13501      55535F43 
 13501      4C415353 
 13501      49435F49 
 13501      4E56414C 
 13502              	.LASF113:
 13503 2916 5254454D 	 .ascii "RTEMS_INTERNAL_ERROR\000"
ARM GAS   			page 273


 13503      535F494E 
 13503      5445524E 
 13503      414C5F45 
 13503      52524F52 
 13504              	.LASF373:
 13505 292b 41746F6D 	 .ascii "Atomic_Uint\000"
 13505      69635F55 
 13505      696E7400 
 13506              	.LASF1014:
 13507 2937 726B695F 	 .ascii "rki_add_local_cmds\000"
 13507      6164645F 
 13507      6C6F6361 
 13507      6C5F636D 
 13507      647300
 13508              	.LASF317:
 13509 294a 6673796E 	 .ascii "fsync_h\000"
 13509      635F6800 
 13510              	.LASF646:
 13511 2952 54687265 	 .ascii "Thread_Control\000"
 13511      61645F43 
 13511      6F6E7472 
 13511      6F6C00
 13512              	.LASF182:
 13513 2961 55736572 	 .ascii "User_extensions_thread_start_extension\000"
 13513      5F657874 
 13513      656E7369 
 13513      6F6E735F 
 13513      74687265 
 13514              	.LASF109:
 13515 2988 5254454D 	 .ascii "RTEMS_INVALID_NODE\000"
 13515      535F494E 
 13515      56414C49 
 13515      445F4E4F 
 13515      444500
 13516              	.LASF209:
 13517 299b 43616C6C 	 .ascii "Callouts\000"
 13517      6F757473 
 13517      00
 13518              	.LASF340:
 13519 29a4 6673756E 	 .ascii "fsunmount_me_h\000"
 13519      6D6F756E 
 13519      745F6D65 
 13519      5F6800
 13520              	.LASF717:
 13521 29b3 54687265 	 .ascii "Thread_Timer_information\000"
 13521      61645F54 
 13521      696D6572 
 13521      5F696E66 
 13521      6F726D61 
 13522              	.LASF625:
 13523 29cc 696E6163 	 .ascii "inactive_per_block\000"
 13523      74697665 
 13523      5F706572 
 13523      5F626C6F 
 13523      636B00
 13524              	.LASF971:
 13525 29df 494D4653 	 .ascii "IMFS_utimens\000"
ARM GAS   			page 274


 13525      5F757469 
 13525      6D656E73 
 13525      00
 13526              	.LASF818:
 13527 29ec 72656164 	 .ascii "ready_major\000"
 13527      795F6D61 
 13527      6A6F7200 
 13528              	.LASF629:
 13529 29f8 5072696F 	 .ascii "Priority_Node\000"
 13529      72697479 
 13529      5F4E6F64 
 13529      6500
 13530              	.LASF765:
 13531 2a06 54687265 	 .ascii "Thread_queue_heads\000"
 13531      61645F71 
 13531      75657565 
 13531      5F686561 
 13531      647300
 13532              	.LASF580:
 13533 2a19 73776170 	 .ascii "swapout_period\000"
 13533      6F75745F 
 13533      70657269 
 13533      6F6400
 13534              	.LASF880:
 13535 2a28 6E6F6465 	 .ascii "node_remove\000"
 13535      5F72656D 
 13535      6F766500 
 13536              	.LASF294:
 13537 2a34 6D745F6E 	 .ascii "mt_node\000"
 13537      6F646500 
 13538              	.LASF29:
 13539 2a3c 6C6F6E67 	 .ascii "long int\000"
 13539      20696E74 
 13539      00
 13540              	.LASF831:
 13541 2a45 52656164 	 .ascii "Ready_queue\000"
 13541      795F7175 
 13541      65756500 
 13542              	.LASF211:
 13543 2a51 5F557365 	 .ascii "_User_extensions_Initial_count\000"
 13543      725F6578 
 13543      74656E73 
 13543      696F6E73 
 13543      5F496E69 
 13544              	.LASF810:
 13545 2a70 53636865 	 .ascii "Scheduler_Context\000"
 13545      64756C65 
 13545      725F436F 
 13545      6E746578 
 13545      7400
 13546              	.LASF959:
 13547 2a82 64657374 	 .ascii "destructor\000"
 13547      72756374 
 13547      6F7200
 13548              	.LASF390:
 13549 2a8d 7274656D 	 .ascii "rtems_filesystem_freenode_t\000"
 13549      735F6669 
ARM GAS   			page 275


 13549      6C657379 
 13549      7374656D 
 13549      5F667265 
 13550              	.LASF653:
 13551 2aa9 64656164 	 .ascii "deadlock_callout\000"
 13551      6C6F636B 
 13551      5F63616C 
 13551      6C6F7574 
 13551      00
 13552              	.LASF894:
 13553 2aba 6D6B6E6F 	 .ascii "mknod_controls\000"
 13553      645F636F 
 13553      6E74726F 
 13553      6C7300
 13554              	.LASF872:
 13555 2ac9 6E616D65 	 .ascii "namelen\000"
 13555      6C656E00 
 13556              	.LASF151:
 13557 2ad1 73746163 	 .ascii "stack_size\000"
 13557      6B5F7369 
 13557      7A6500
 13558              	.LASF909:
 13559 2adc 6E756D62 	 .ascii "number_of_pending_messages\000"
 13559      65725F6F 
 13559      665F7065 
 13559      6E64696E 
 13559      675F6D65 
 13560              	.LASF976:
 13561 2af7 494D4653 	 .ascii "IMFS_node_clone\000"
 13561      5F6E6F64 
 13561      655F636C 
 13561      6F6E6500 
 13562              	.LASF764:
 13563 2b07 4F626A65 	 .ascii "Objects\000"
 13563      63747300 
 13564              	.LASF559:
 13565 2b0f 7469636B 	 .ascii "ticks\000"
 13565      7300
 13566              	.LASF875:
 13567 2b15 73746174 	 .ascii "stat_ctime\000"
 13567      5F637469 
 13567      6D6500
 13568              	.LASF988:
 13569 2b20 494D4653 	 .ascii "IMFS_initialize_support\000"
 13569      5F696E69 
 13569      7469616C 
 13569      697A655F 
 13569      73757070 
 13570              	.LASF819:
 13571 2b38 72656164 	 .ascii "ready_minor\000"
 13571      795F6D69 
 13571      6E6F7200 
 13572              	.LASF116:
 13573 2b44 5254454D 	 .ascii "RTEMS_INTERRUPTED\000"
 13573      535F494E 
 13573      54455252 
 13573      55505445 
ARM GAS   			page 276


 13573      4400
 13574              	.LASF242:
 13575 2b56 636F6E74 	 .ascii "context\000"
 13575      65787400 
 13576              	.LASF742:
 13577 2b5e 5F707468 	 .ascii "_pthread_cleanup_context\000"
 13577      72656164 
 13577      5F636C65 
 13577      616E7570 
 13577      5F636F6E 
 13578              	.LASF660:
 13579 2b77 73757272 	 .ascii "surrender\000"
 13579      656E6465 
 13579      7200
 13580              	.LASF591:
 13581 2b81 7274656D 	 .ascii "rtems_sysinit_item\000"
 13581      735F7379 
 13581      73696E69 
 13581      745F6974 
 13581      656D00
 13582              	.LASF760:
 13583 2b94 4150495F 	 .ascii "API_RTEMS\000"
 13583      5254454D 
 13583      5300
 13584              	.LASF300:
 13585 2b9e 6D6F756E 	 .ascii "mounted\000"
 13585      74656400 
 13586              	.LASF941:
 13587 2ba6 75736572 	 .ascii "user_data\000"
 13587      5F646174 
 13587      6100
 13588              	.LASF907:
 13589 2bb0 57616974 	 .ascii "Wait_queue\000"
 13589      5F717565 
 13589      756500
 13590              	.LASF68:
 13591 2bbb 75696E74 	 .ascii "uint32_t\000"
 13591      33325F74 
 13591      00
 13592              	.LASF548:
 13593 2bc4 57617463 	 .ascii "Watchdog_Service_routine_entry\000"
 13593      68646F67 
 13593      5F536572 
 13593      76696365 
 13593      5F726F75 
 13594              	.LASF25:
 13595 2be3 5F5F7069 	 .ascii "__pid_t\000"
 13595      645F7400 
 13596              	.LASF696:
 13597 2beb 456E7472 	 .ascii "Entry\000"
 13597      7900
 13598              	.LASF478:
 13599 2bf1 7274656D 	 .ascii "rtems_shell_MMOVE_Command\000"
 13599      735F7368 
 13599      656C6C5F 
 13599      4D4D4F56 
 13599      455F436F 
ARM GAS   			page 277


 13600              	.LASF694:
 13601 2c0b 61766169 	 .ascii "available\000"
 13601      6C61626C 
 13601      6500
 13602              	.LASF410:
 13603 2c15 7274656D 	 .ascii "rtems_filesystem_lseek_t\000"
 13603      735F6669 
 13603      6C657379 
 13603      7374656D 
 13603      5F6C7365 
 13604              	.LASF71:
 13605 2c2e 75696E74 	 .ascii "uintptr_t\000"
 13605      7074725F 
 13605      7400
 13606              	.LASF486:
 13607 2c38 7274656D 	 .ascii "rtems_shell_WHOAMI_Command\000"
 13607      735F7368 
 13607      656C6C5F 
 13607      57484F41 
 13607      4D495F43 
 13608              	.LASF856:
 13609 2c53 5F546872 	 .ascii "_Thread_Objects\000"
 13609      6561645F 
 13609      4F626A65 
 13609      63747300 
 13610              	.LASF433:
 13611 2c63 5254454D 	 .ascii "RTEMS_FILESYSTEM_READ_WRITE\000"
 13611      535F4649 
 13611      4C455359 
 13611      5354454D 
 13611      5F524541 
 13612              	.LASF665:
 13613 2c7f 75706461 	 .ascii "update_count\000"
 13613      74655F63 
 13613      6F756E74 
 13613      00
 13614              	.LASF493:
 13615 2c8c 7274656D 	 .ascii "rtems_shell_CHROOT_Command\000"
 13615      735F7368 
 13615      656C6C5F 
 13615      4348524F 
 13615      4F545F43 
 13616              	.LASF434:
 13617 2ca7 5254454D 	 .ascii "RTEMS_FILESYSTEM_BAD_OPTIONS\000"
 13617      535F4649 
 13617      4C455359 
 13617      5354454D 
 13617      5F424144 
 13618              	.LASF996:
 13619 2cc4 6465765F 	 .ascii "dev_zero_open\000"
 13619      7A65726F 
 13619      5F6F7065 
 13619      6E00
 13620              	.LASF16:
 13621 2cd2 6C6F6E67 	 .ascii "long double\000"
 13621      20646F75 
 13621      626C6500 
ARM GAS   			page 278


 13622              	.LASF1027:
 13623 2cde 5F536368 	 .ascii "_Scheduler_priority_Update_priority\000"
 13623      6564756C 
 13623      65725F70 
 13623      72696F72 
 13623      6974795F 
 13624              	.LASF896:
 13625 2d02 494D4653 	 .ascii "IMFS_mount_data\000"
 13625      5F6D6F75 
 13625      6E745F64 
 13625      61746100 
 13626              	.LASF51:
 13627 2d12 6370755F 	 .ascii "cpu_time_used\000"
 13627      74696D65 
 13627      5F757365 
 13627      6400
 13628              	.LASF372:
 13629 2d20 696F765F 	 .ascii "iov_len\000"
 13629      6C656E00 
 13630              	.LASF361:
 13631 2d28 665F626C 	 .ascii "f_blocks\000"
 13631      6F636B73 
 13631      00
 13632              	.LASF525:
 13633 2d31 7274656D 	 .ascii "rtems_shell_STACKUSE_Command\000"
 13633      735F7368 
 13633      656C6C5F 
 13633      53544143 
 13633      4B555345 
 13634              	.LASF281:
 13635 2d4e 706F7369 	 .ascii "position\000"
 13635      74696F6E 
 13635      00
 13636              	.LASF310:
 13637 2d57 636C6F73 	 .ascii "close_h\000"
 13637      655F6800 
 13638              	.LASF643:
 13639 2d5f 5072696F 	 .ascii "Priority\000"
 13639      72697479 
 13639      00
 13640              	.LASF31:
 13641 2d68 6C6F6E67 	 .ascii "long unsigned int\000"
 13641      20756E73 
 13641      69676E65 
 13641      6420696E 
 13641      7400
 13642              	.LASF179:
 13643 2d7a 496E7465 	 .ascii "Internal_errors_t\000"
 13643      726E616C 
 13643      5F657272 
 13643      6F72735F 
 13643      7400
 13644              	.LASF148:
 13645 2d8c 7274656D 	 .ascii "rtems_task_argument\000"
 13645      735F7461 
 13645      736B5F61 
 13645      7267756D 
ARM GAS   			page 279


 13645      656E7400 
 13646              	.LASF463:
 13647 2da0 7274656D 	 .ascii "rtems_shell_HELP_Command\000"
 13647      735F7368 
 13647      656C6C5F 
 13647      48454C50 
 13647      5F436F6D 
 13648              	.LASF945:
 13649 2db9 5F54696D 	 .ascii "_Timer_Information\000"
 13649      65725F49 
 13649      6E666F72 
 13649      6D617469 
 13649      6F6E00
 13650              	.LASF772:
 13651 2dcc 53746163 	 .ascii "Stack_checker_Reporter\000"
 13651      6B5F6368 
 13651      65636B65 
 13651      725F5265 
 13651      706F7274 
 13652              	.LASF260:
 13653 2de3 7274656D 	 .ascii "rtems_timer_service_routine_entry\000"
 13653      735F7469 
 13653      6D65725F 
 13653      73657276 
 13653      6963655F 
 13654              	.LASF679:
 13655 2e05 656E7472 	 .ascii "entry\000"
 13655      7900
 13656              	.LASF964:
 13657 2e0b 5F62696E 	 .ascii "_binary_tarfile_start\000"
 13657      6172795F 
 13657      74617266 
 13657      696C655F 
 13657      73746172 
 13658              	.LASF1016:
 13659 2e21 726B695F 	 .ascii "rki_setup_filesystems\000"
 13659      73657475 
 13659      705F6669 
 13659      6C657379 
 13659      7374656D 
 13660              	.LASF354:
 13661 2e37 6C6F6361 	 .ascii "location\000"
 13661      74696F6E 
 13661      00
 13662              	.LASF542:
 13663 2e40 52425472 	 .ascii "RBTree_Node\000"
 13663      65655F4E 
 13663      6F646500 
 13664              	.LASF479:
 13665 2e4c 7274656D 	 .ascii "rtems_shell_JOEL_Command\000"
 13665      735F7368 
 13665      656C6C5F 
 13665      4A4F454C 
 13665      5F436F6D 
 13666              	.LASF750:
 13667 2e65 736F7572 	 .ascii "source_offset\000"
 13667      63655F6F 
ARM GAS   			page 280


 13667      66667365 
 13667      7400
 13668              	.LASF737:
 13669 2e73 65676964 	 .ascii "egid\000"
 13669      00
 13670              	.LASF593:
 13671 2e78 46726565 	 .ascii "Freechain_Control\000"
 13671      63686169 
 13671      6E5F436F 
 13671      6E74726F 
 13671      6C00
 13672              	.LASF762:
 13673 2e8a 54687265 	 .ascii "Thread_queue_Configured_heads\000"
 13673      61645F71 
 13673      75657565 
 13673      5F436F6E 
 13673      66696775 
 13674              	.LASF401:
 13675 2ea8 7274656D 	 .ascii "rtems_filesystem_rename_t\000"
 13675      735F6669 
 13675      6C657379 
 13675      7374656D 
 13675      5F72656E 
 13676              	.LASF596:
 13677 2ec2 4F424A45 	 .ascii "OBJECTS_INTERNAL_THREADS\000"
 13677      4354535F 
 13677      494E5445 
 13677      524E414C 
 13677      5F544852 
 13678              	.LASF514:
 13679 2edb 7274656D 	 .ascii "rtems_shell_MD5_Command\000"
 13679      735F7368 
 13679      656C6C5F 
 13679      4D44355F 
 13679      436F6D6D 
 13680              	.LASF840:
 13681 2ef3 53797374 	 .ascii "System_event\000"
 13681      656D5F65 
 13681      76656E74 
 13681      00
 13682              	.LASF63:
 13683 2f00 63686172 	 .ascii "char\000"
 13683      00
 13684              	.LASF1012:
 13685 2f05 7274656D 	 .ascii "rtems_task_delete\000"
 13685      735F7461 
 13685      736B5F64 
 13685      656C6574 
 13685      6500
 13686              	.LASF321:
 13687 2f17 6B716669 	 .ascii "kqfilter_h\000"
 13687      6C746572 
 13687      5F6800
 13688              	.LASF106:
 13689 2f22 5254454D 	 .ascii "RTEMS_CALLED_FROM_ISR\000"
 13689      535F4341 
 13689      4C4C4544 
ARM GAS   			page 281


 13689      5F46524F 
 13689      4D5F4953 
 13690              	.LASF727:
 13691 2f38 70656E64 	 .ascii "pending_life_change_requests\000"
 13691      696E675F 
 13691      6C696665 
 13691      5F636861 
 13691      6E67655F 
 13692              	.LASF1052:
 13693 2f55 69676E6F 	 .ascii "ignored\000"
 13693      72656400 
 13694              	.LASF862:
 13695 2f5d 5F4C696E 	 .ascii "_Linker_set__Sysinit__RTEMS_tasks_Initialize_user_t"
 13695      6B65725F 
 13695      7365745F 
 13695      5F537973 
 13695      696E6974 
 13696 2f90 61736B00 	 .ascii "ask\000"
 13697              	.LASF444:
 13698 2f94 7274656D 	 .ascii "rtems_shell_command_t\000"
 13698      735F7368 
 13698      656C6C5F 
 13698      636F6D6D 
 13698      616E645F 
 13699              	.LASF437:
 13700 2faa 7274656D 	 .ascii "rtems_filesystem_table\000"
 13700      735F6669 
 13700      6C657379 
 13700      7374656D 
 13700      5F746162 
 13701              	.LASF899:
 13702 2fc1 494D4653 	 .ascii "IMFS_mknod_control_memfile\000"
 13702      5F6D6B6E 
 13702      6F645F63 
 13702      6F6E7472 
 13702      6F6C5F6D 
 13703              	.LASF586:
 13704 2fdc 62756666 	 .ascii "buffer_max\000"
 13704      65725F6D 
 13704      617800
 13705              	.LASF475:
 13706 2fe7 7274656D 	 .ascii "rtems_shell_LDUMP_Command\000"
 13706      735F7368 
 13706      656C6C5F 
 13706      4C44554D 
 13706      505F436F 
 13707              	.LASF674:
 13708 3001 54687265 	 .ascii "Thread_queue_Extract_operation\000"
 13708      61645F71 
 13708      75657565 
 13708      5F457874 
 13708      72616374 
 13709              	.LASF520:
 13710 3020 7274656D 	 .ascii "rtems_shell_I2CSET_Command\000"
 13710      735F7368 
 13710      656C6C5F 
 13710      49324353 
ARM GAS   			page 282


 13710      45545F43 
 13711              	.LASF19:
 13712 303b 5F5F6465 	 .ascii "__dev_t\000"
 13712      765F7400 
 13713              	.LASF80:
 13714 3043 72656769 	 .ascii "register_fp\000"
 13714      73746572 
 13714      5F667000 
 13715              	.LASF837:
 13716 304f 70656E64 	 .ascii "pending_events\000"
 13716      696E675F 
 13716      6576656E 
 13716      747300
 13717              	.LASF41:
 13718 305e 5265616C 	 .ascii "Real_priority\000"
 13718      5F707269 
 13718      6F726974 
 13718      7900
 13719              	.LASF392:
 13720 306c 7274656D 	 .ascii "rtems_filesystem_fsmount_me_t\000"
 13720      735F6669 
 13720      6C657379 
 13720      7374656D 
 13720      5F66736D 
 13721              	.LASF158:
 13722 308a 7274656D 	 .ascii "rtems_tcb\000"
 13722      735F7463 
 13722      6200
 13723              	.LASF411:
 13724 3094 7274656D 	 .ascii "rtems_filesystem_fstat_t\000"
 13724      735F6669 
 13724      6C657379 
 13724      7374656D 
 13724      5F667374 
 13725              	.LASF682:
 13726 30ad 54687265 	 .ascii "Thread_Entry_pointer\000"
 13726      61645F45 
 13726      6E747279 
 13726      5F706F69 
 13726      6E746572 
 13727              	.LASF940:
 13728 30c2 7468655F 	 .ascii "the_class\000"
 13728      636C6173 
 13728      7300
 13729              	.LASF982:
 13730 30cc 494D4653 	 .ascii "IMFS_link\000"
 13730      5F6C696E 
 13730      6B00
 13731              	.LASF177:
 13732 30d6 5254454D 	 .ascii "RTEMS_FATAL_SOURCE_LAST\000"
 13732      535F4641 
 13732      54414C5F 
 13732      534F5552 
 13732      43455F4C 
 13733              	.LASF186:
 13734 30ee 55736572 	 .ascii "User_extensions_thread_exitted_extension\000"
 13734      5F657874 
ARM GAS   			page 283


 13734      656E7369 
 13734      6F6E735F 
 13734      74687265 
 13735              	.LASF790:
 13736 3117 53544154 	 .ascii "STATUS_CLASSIC_PROXY_BLOCKING\000"
 13736      55535F43 
 13736      4C415353 
 13736      49435F50 
 13736      524F5859 
 13737              	.LASF47:
 13738 3135 69735F70 	 .ascii "is_preemptible\000"
 13738      7265656D 
 13738      70746962 
 13738      6C6500
 13739              	.LASF864:
 13740 3144 5F494F5F 	 .ascii "_IO_Driver_address_table\000"
 13740      44726976 
 13740      65725F61 
 13740      64647265 
 13740      73735F74 
 13741              	.LASF457:
 13742 315d 7274656D 	 .ascii "rtems_shell_NETSTAT_Command\000"
 13742      735F7368 
 13742      656C6C5F 
 13742      4E455453 
 13742      5441545F 
 13743              	.LASF135:
 13744 3179 5F576174 	 .ascii "_Watchdog_Nanoseconds_per_tick\000"
 13744      6368646F 
 13744      675F4E61 
 13744      6E6F7365 
 13744      636F6E64 
 13745              	.LASF638:
 13746 3198 6E6F6465 	 .ascii "node\000"
 13746      00
 13747              	.LASF623:
 13748 319d 6E616D65 	 .ascii "name_length\000"
 13748      5F6C656E 
 13748      67746800 
 13749              	.LASF14:
 13750 31a9 5F5F7569 	 .ascii "__uintptr_t\000"
 13750      6E747074 
 13750      725F7400 
 13751              	.LASF419:
 13752 31b5 6C696E6B 	 .ascii "link_max\000"
 13752      5F6D6178 
 13752      00
 13753              	.LASF184:
 13754 31be 55736572 	 .ascii "User_extensions_thread_switch_extension\000"
 13754      5F657874 
 13754      656E7369 
 13754      6F6E735F 
 13754      74687265 
 13755              	.LASF1030:
 13756 31e6 5F536368 	 .ascii "_Scheduler_priority_Yield\000"
 13756      6564756C 
 13756      65725F70 
ARM GAS   			page 284


 13756      72696F72 
 13756      6974795F 
 13757              	.LASF987:
 13758 3200 494D4653 	 .ascii "IMFS_initialize\000"
 13758      5F696E69 
 13758      7469616C 
 13758      697A6500 
 13759              	.LASF614:
 13760 3210 4F424A45 	 .ascii "OBJECTS_POSIX_SHMS\000"
 13760      4354535F 
 13760      504F5349 
 13760      585F5348 
 13760      4D5300
 13761              	.LASF428:
 13762 3223 706F7369 	 .ascii "posix_prio_io\000"
 13762      785F7072 
 13762      696F5F69 
 13762      6F00
 13763              	.LASF923:
 13764 3231 6E756D62 	 .ascii "number_of_used_blocks\000"
 13764      65725F6F 
 13764      665F7573 
 13764      65645F62 
 13764      6C6F636B 
 13765              	.LASF797:
 13766 3247 73636865 	 .ascii "schedule\000"
 13766      64756C65 
 13766      00
 13767              	.LASF250:
 13768 3250 62756666 	 .ascii "buffer\000"
 13768      657200
 13769              	.LASF620:
 13770 3257 696E6163 	 .ascii "inactive\000"
 13770      74697665 
 13770      00
 13771              	.LASF72:
 13772 3260 7274656D 	 .ascii "rtems_attribute\000"
 13772      735F6174 
 13772      74726962 
 13772      75746500 
 13773              	.LASF99:
 13774 3270 5254454D 	 .ascii "RTEMS_NOT_DEFINED\000"
 13774      535F4E4F 
 13774      545F4445 
 13774      46494E45 
 13774      4400
 13775              	.LASF791:
 13776 3282 53544154 	 .ascii "STATUS_CLASSIC_RESOURCE_IN_USE\000"
 13776      55535F43 
 13776      4C415353 
 13776      49435F52 
 13776      45534F55 
 13777              	.LASF206:
 13778 32a1 43686169 	 .ascii "Chain_Control\000"
 13778      6E5F436F 
 13778      6E74726F 
 13778      6C00
ARM GAS   			page 285


 13779              	.LASF796:
 13780 32af 53636865 	 .ascii "Scheduler_Control\000"
 13780      64756C65 
 13780      725F436F 
 13780      6E74726F 
 13780      6C00
 13781              	.LASF582:
 13782 32c1 73776170 	 .ascii "swapout_workers\000"
 13782      6F75745F 
 13782      776F726B 
 13782      65727300 
 13783              	.LASF460:
 13784 32d1 7274656D 	 .ascii "rtems_shell_SYSCTL_Command\000"
 13784      735F7368 
 13784      656C6C5F 
 13784      53595343 
 13784      544C5F43 
 13785              	.LASF313:
 13786 32ec 696F6374 	 .ascii "ioctl_h\000"
 13786      6C5F6800 
 13787              	.LASF240:
 13788 32f4 6E6C696E 	 .ascii "nlink_t\000"
 13788      6B5F7400 
 13789              	.LASF481:
 13790 32fc 7274656D 	 .ascii "rtems_shell_ECHO_Command\000"
 13790      735F7368 
 13790      656C6C5F 
 13790      4543484F 
 13790      5F436F6D 
 13791              	.LASF949:
 13792 3315 5F506172 	 .ascii "_Partition_Objects\000"
 13792      74697469 
 13792      6F6E5F4F 
 13792      626A6563 
 13792      747300
 13793              	.LASF848:
 13794 3328 73636865 	 .ascii "sched_ss_repl_period\000"
 13794      645F7373 
 13794      5F726570 
 13794      6C5F7065 
 13794      72696F64 
 13795              	.LASF854:
 13796 333d 436F6E66 	 .ascii "Configuration_Scheduler_node\000"
 13796      69677572 
 13796      6174696F 
 13796      6E5F5363 
 13796      68656475 
 13797              	.LASF308:
 13798 335a 5F727465 	 .ascii "_rtems_filesystem_file_handlers_r\000"
 13798      6D735F66 
 13798      696C6573 
 13798      79737465 
 13798      6D5F6669 
 13799              	.LASF730:
 13800 337c 636F6E74 	 .ascii "control\000"
 13800      726F6C00 
 13801              	.LASF141:
ARM GAS   			page 286


 13802 3384 61726561 	 .ascii "area\000"
 13802      00
 13803              	.LASF757:
 13804 3389 54687265 	 .ascii "Thread_Configured_control\000"
 13804      61645F43 
 13804      6F6E6669 
 13804      67757265 
 13804      645F636F 
 13805              	.LASF448:
 13806 33a3 746F7069 	 .ascii "topic\000"
 13806      6300
 13807              	.LASF634:
 13808 33a9 5072696F 	 .ascii "Priority_Action_type\000"
 13808      72697479 
 13808      5F416374 
 13808      696F6E5F 
 13808      74797065 
 13809              	.LASF199:
 13810 33be 43686169 	 .ascii "Chain_Node\000"
 13810      6E5F4E6F 
 13810      646500
 13811              	.LASF771:
 13812 33c9 53746163 	 .ascii "Stack_checker_Reporter_handler\000"
 13812      6B5F6368 
 13812      65636B65 
 13812      725F5265 
 13812      706F7274 
 13813              	.LASF312:
 13814 33e8 77726974 	 .ascii "write_h\000"
 13814      655F6800 
 13815              	.LASF336:
 13816 33f0 636C6F6E 	 .ascii "clonenod_h\000"
 13816      656E6F64 
 13816      5F6800
 13817              	.LASF1003:
 13818 33fb 6E756C6C 	 .ascii "null_initialize\000"
 13818      5F696E69 
 13818      7469616C 
 13818      697A6500 
 13819              	.LASF900:
 13820 340b 494D4653 	 .ascii "IMFS_mknod_control_enosys\000"
 13820      5F6D6B6E 
 13820      6F645F63 
 13820      6F6E7472 
 13820      6F6C5F65 
 13821              	.LASF362:
 13822 3425 665F6266 	 .ascii "f_bfree\000"
 13822      72656500 
 13823              	.LASF944:
 13824 342d 54696D65 	 .ascii "Timer_Control\000"
 13824      725F436F 
 13824      6E74726F 
 13824      6C00
 13825              	.LASF293:
 13826 343b 7274656D 	 .ascii "rtems_filesystem_mount_table_entry_tt\000"
 13826      735F6669 
 13826      6C657379 
ARM GAS   			page 287


 13826      7374656D 
 13826      5F6D6F75 
 13827              	.LASF931:
 13828 3461 52656375 	 .ascii "Recursive\000"
 13828      72736976 
 13828      6500
 13829              	.LASF610:
 13830 346b 4F424A45 	 .ascii "OBJECTS_POSIX_KEYS\000"
 13830      4354535F 
 13830      504F5349 
 13830      585F4B45 
 13830      595300
 13831              	.LASF69:
 13832 347e 696E7436 	 .ascii "int64_t\000"
 13832      345F7400 
 13833              	.LASF666:
 13834 3486 75706461 	 .ascii "update\000"
 13834      746500
 13835              	.LASF775:
 13836 348d 5F457874 	 .ascii "_Extension_Local_table\000"
 13836      656E7369 
 13836      6F6E5F4C 
 13836      6F63616C 
 13836      5F746162 
 13837              	.LASF883:
 13838 34a4 6E6F6465 	 .ascii "node_size\000"
 13838      5F73697A 
 13838      6500
 13839              	.LASF892:
 13840 34ae 494D4653 	 .ascii "IMFS_mknod_controls\000"
 13840      5F6D6B6E 
 13840      6F645F63 
 13840      6F6E7472 
 13840      6F6C7300 
 13841              	.LASF396:
 13842 34c2 7274656D 	 .ascii "rtems_filesystem_mknod_t\000"
 13842      735F6669 
 13842      6C657379 
 13842      7374656D 
 13842      5F6D6B6E 
 13843              	.LASF768:
 13844 34db 45787465 	 .ascii "Extension\000"
 13844      6E73696F 
 13844      6E00
 13845              	.LASF616:
 13846 34e5 6D617869 	 .ascii "maximum_id\000"
 13846      6D756D5F 
 13846      696400
 13847              	.LASF467:
 13848 34f0 7274656D 	 .ascii "rtems_shell_CMDCHOWN_Command\000"
 13848      735F7368 
 13848      656C6C5F 
 13848      434D4443 
 13848      484F574E 
 13849              	.LASF320:
 13850 350d 706F6C6C 	 .ascii "poll_h\000"
 13850      5F6800
ARM GAS   			page 288


 13851              	.LASF782:
 13852 3514 53544154 	 .ascii "STATUS_CLASSIC_INVALID_NODE\000"
 13852      55535F43 
 13852      4C415353 
 13852      49435F49 
 13852      4E56414C 
 13853              	.LASF560:
 13854 3530 48656164 	 .ascii "Header\000"
 13854      657200
 13855              	.LASF57:
 13856 3537 4C696665 	 .ascii "Life\000"
 13856      00
 13857              	.LASF829:
 13858 353c 5072696F 	 .ascii "Priority_map\000"
 13858      72697479 
 13858      5F6D6170 
 13858      00
 13859              	.LASF85:
 13860 3549 436F6E74 	 .ascii "Context_Control\000"
 13860      6578745F 
 13860      436F6E74 
 13860      726F6C00 
 13861              	.LASF144:
 13862 3559 7274656D 	 .ascii "rtems_minimum_stack_size\000"
 13862      735F6D69 
 13862      6E696D75 
 13862      6D5F7374 
 13862      61636B5F 
 13863              	.LASF935:
 13864 3572 53656D61 	 .ascii "Semaphore\000"
 13864      70686F72 
 13864      6500
 13865              	.LASF285:
 13866 357c 7274656D 	 .ascii "rtems_libio_t\000"
 13866      735F6C69 
 13866      62696F5F 
 13866      7400
 13867              	.LASF648:
 13868 358a 4C6F636B 	 .ascii "Lock_context\000"
 13868      5F636F6E 
 13868      74657874 
 13868      00
 13869              	.LASF749:
 13870 3597 64657374 	 .ascii "destination_offset\000"
 13870      696E6174 
 13870      696F6E5F 
 13870      6F666673 
 13870      657400
 13871              	.LASF536:
 13872 35aa 7274656D 	 .ascii "rtems_shell_Initial_aliases\000"
 13872      735F7368 
 13872      656C6C5F 
 13872      496E6974 
 13872      69616C5F 
 13873              	.LASF173:
 13874 35c6 5254454D 	 .ascii "RTEMS_FATAL_SOURCE_PANIC\000"
 13874      535F4641 
ARM GAS   			page 289


 13874      54414C5F 
 13874      534F5552 
 13874      43455F50 
 13875              	.LASF869:
 13876 35df 494D4653 	 .ascii "IMFS_jnode_t\000"
 13876      5F6A6E6F 
 13876      64655F74 
 13876      00
 13877              	.LASF393:
 13878 35ec 7274656D 	 .ascii "rtems_filesystem_unmount_t\000"
 13878      735F6669 
 13878      6C657379 
 13878      7374656D 
 13878      5F756E6D 
 13879              	.LASF357:
 13880 3607 64656665 	 .ascii "deferred_released_count\000"
 13880      72726564 
 13880      5F72656C 
 13880      65617365 
 13880      645F636F 
 13881              	.LASF504:
 13882 361f 7274656D 	 .ascii "rtems_shell_LSOF_Command\000"
 13882      735F7368 
 13882      656C6C5F 
 13882      4C534F46 
 13882      5F436F6D 
 13883              	.LASF480:
 13884 3638 7274656D 	 .ascii "rtems_shell_DATE_Command\000"
 13884      735F7368 
 13884      656C6C5F 
 13884      44415445 
 13884      5F436F6D 
 13885              	.LASF384:
 13886 3651 7274656D 	 .ascii "rtems_filesystem_eval_path_context_t\000"
 13886      735F6669 
 13886      6C657379 
 13886      7374656D 
 13886      5F657661 
 13887              	.LASF123:
 13888 3676 6E616D65 	 .ascii "name_p\000"
 13888      5F7000
 13889              	.LASF747:
 13890 367d 55736572 	 .ascii "User_extensions_Iterator\000"
 13890      5F657874 
 13890      656E7369 
 13890      6F6E735F 
 13890      49746572 
 13891              	.LASF904:
 13892 3696 494D4653 	 .ascii "IMFS_root_mount_data\000"
 13892      5F726F6F 
 13892      745F6D6F 
 13892      756E745F 
 13892      64617461 
 13893              	.LASF669:
 13894 36ab 54687265 	 .ascii "Thread_queue_Priority_queue\000"
 13894      61645F71 
 13894      75657565 
ARM GAS   			page 290


 13894      5F507269 
 13894      6F726974 
 13895              	.LASF88:
 13896 36c7 5254454D 	 .ascii "RTEMS_SUCCESSFUL\000"
 13896      535F5355 
 13896      43434553 
 13896      5346554C 
 13896      00
 13897              	.LASF268:
 13898 36d8 73745F72 	 .ascii "st_rdev\000"
 13898      64657600 
 13899              	.LASF770:
 13900 36e0 5F457874 	 .ascii "_Extension_Information\000"
 13900      656E7369 
 13900      6F6E5F49 
 13900      6E666F72 
 13900      6D617469 
 13901              	.LASF297:
 13902 36f7 6C6F6361 	 .ascii "location_chain\000"
 13902      74696F6E 
 13902      5F636861 
 13902      696E00
 13903              	.LASF426:
 13904 3706 706F7369 	 .ascii "posix_chown_restrictions\000"
 13904      785F6368 
 13904      6F776E5F 
 13904      72657374 
 13904      72696374 
 13905              	.LASF262:
 13906 371f 73745F64 	 .ascii "st_dev\000"
 13906      657600
 13907              	.LASF1050:
 13908 3726 2F686F6D 	 .ascii "/home/eol/git/open_sv/rki2/build/bbb-libbsd-cfs\000"
 13908      652F656F 
 13908      6C2F6769 
 13908      742F6F70 
 13908      656E5F73 
 13909              	.LASF65:
 13910 3756 7373697A 	 .ascii "ssize_t\000"
 13910      655F7400 
 13911              	.LASF375:
 13912 375e 7274656D 	 .ascii "rtems_filesystem_mt_entry_unlock_t\000"
 13912      735F6669 
 13912      6C657379 
 13912      7374656D 
 13912      5F6D745F 
 13913              	.LASF343:
 13914 3781 72656164 	 .ascii "readlink_h\000"
 13914      6C696E6B 
 13914      5F6800
 13915              	.LASF345:
 13916 378c 73746174 	 .ascii "statvfs_h\000"
 13916      7666735F 
 13916      6800
 13917              	.LASF815:
 13918 3796 6269745F 	 .ascii "bit_map\000"
 13918      6D617000 
ARM GAS   			page 291


 13919              	.LASF170:
 13920 379e 5254454D 	 .ascii "RTEMS_FATAL_SOURCE_STACK_CHECKER\000"
 13920      535F4641 
 13920      54414C5F 
 13920      534F5552 
 13920      43455F53 
 13921              	.LASF83:
 13922 37bf 6973725F 	 .ascii "isr_dispatch_disable\000"
 13922      64697370 
 13922      61746368 
 13922      5F646973 
 13922      61626C65 
 13923              	.LASF676:
 13924 37d4 54687265 	 .ascii "Thread_queue_First_operation\000"
 13924      61645F71 
 13924      75657565 
 13924      5F466972 
 13924      73745F6F 
 13925              	.LASF654:
 13926 37f1 54687265 	 .ascii "Thread_queue_Queue\000"
 13926      61645F71 
 13926      75657565 
 13926      5F517565 
 13926      756500
 13927              	.LASF752:
 13928 3804 5F546872 	 .ascii "_Thread_Control_add_ons\000"
 13928      6561645F 
 13928      436F6E74 
 13928      726F6C5F 
 13928      6164645F 
 13929              	.LASF453:
 13930 381c 7274656D 	 .ascii "rtems_shell_ARP_Command\000"
 13930      735F7368 
 13930      656C6C5F 
 13930      4152505F 
 13930      436F6D6D 
 13931              	.LASF8:
 13932 3834 5F5F696E 	 .ascii "__int32_t\000"
 13932      7433325F 
 13932      7400
 13933              	.LASF567:
 13934 383e 72657365 	 .ascii "reserved_for_executing_alignment\000"
 13934      72766564 
 13934      5F666F72 
 13934      5F657865 
 13934      63757469 
 13935              	.LASF290:
 13936 385f 64617461 	 .ascii "data0\000"
 13936      3000
 13937              	.LASF291:
 13938 3865 64617461 	 .ascii "data1\000"
 13938      3100
 13939              	.LASF9:
 13940 386b 5F5F7569 	 .ascii "__uint32_t\000"
 13940      6E743332 
 13940      5F7400
 13941              	.LASF1018:
ARM GAS   			page 292


 13942 3876 7072696E 	 .ascii "printf\000"
 13942      746600
 13943              	.LASF833:
 13944 387d 5F436F6E 	 .ascii "_Configuration_Scheduler_priority_dflt\000"
 13944      66696775 
 13944      72617469 
 13944      6F6E5F53 
 13944      63686564 
 13945              	.LASF441:
 13946 38a4 64617461 	 .ascii "data\000"
 13946      00
 13947              	.LASF845:
 13948 38a9 5F525445 	 .ascii "_RTEMS_tasks_Information\000"
 13948      4D535F74 
 13948      61736B73 
 13948      5F496E66 
 13948      6F726D61 
 13949              	.LASF96:
 13950 38c2 5254454D 	 .ascii "RTEMS_INVALID_SIZE\000"
 13950      535F494E 
 13950      56414C49 
 13950      445F5349 
 13950      5A4500
 13951              	.LASF626:
 13952 38d5 6F626A65 	 .ascii "object_blocks\000"
 13952      63745F62 
 13952      6C6F636B 
 13952      7300
 13953              	.LASF635:
 13954 38e3 5072696F 	 .ascii "Priority_Aggregation\000"
 13954      72697479 
 13954      5F416767 
 13954      72656761 
 13954      74696F6E 
 13955              	.LASF946:
 13956 38f8 5F4D6573 	 .ascii "_Message_queue_Local_table\000"
 13956      73616765 
 13956      5F717565 
 13956      75655F4C 
 13956      6F63616C 
 13957              	.LASF82:
 13958 3913 72656769 	 .ascii "register_lr\000"
 13958      73746572 
 13958      5F6C7200 
 13959              	.LASF194:
 13960 391f 74687265 	 .ascii "thread_begin\000"
 13960      61645F62 
 13960      6567696E 
 13960      00
 13961              	.LASF159:
 13962 392c 4953525F 	 .ascii "ISR_Level\000"
 13962      4C657665 
 13962      6C00
 13963              	.LASF705:
 13964 3936 696D6D75 	 .ascii "immutable_object\000"
 13964      7461626C 
 13964      655F6F62 
ARM GAS   			page 293


 13964      6A656374 
 13964      00
 13965              	.LASF590:
 13966 3947 68616E64 	 .ascii "handler\000"
 13966      6C657200 
 13967              	.LASF55:
 13968 394f 4150495F 	 .ascii "API_Extensions\000"
 13968      45787465 
 13968      6E73696F 
 13968      6E7300
 13969              	.LASF515:
 13970 395e 7274656D 	 .ascii "rtems_shell_RTC_Command\000"
 13970      735F7368 
 13970      656C6C5F 
 13970      5254435F 
 13970      436F6D6D 
 13971              	.LASF482:
 13972 3976 7274656D 	 .ascii "rtems_shell_EDIT_Command\000"
 13972      735F7368 
 13972      656C6C5F 
 13972      45444954 
 13972      5F436F6D 
 13973              	.LASF247:
 13974 398f 6973725F 	 .ascii "isr_level\000"
 13974      6C657665 
 13974      6C00
 13975              	.LASF898:
 13976 3999 494D4653 	 .ascii "IMFS_mknod_control_device\000"
 13976      5F6D6B6E 
 13976      6F645F63 
 13976      6F6E7472 
 13976      6F6C5F64 
 13977              	.LASF735:
 13978 39b3 756D6173 	 .ascii "umask\000"
 13978      6B00
 13979              	.LASF114:
 13980 39b9 5254454D 	 .ascii "RTEMS_NO_MEMORY\000"
 13980      535F4E4F 
 13980      5F4D454D 
 13980      4F525900 
 13981              	.LASF507:
 13982 39c9 7274656D 	 .ascii "rtems_shell_BLKSYNC_Command\000"
 13982      735F7368 
 13982      656C6C5F 
 13982      424C4B53 
 13982      594E435F 
 13983              	.LASF196:
 13984 39e5 66617461 	 .ascii "fatal\000"
 13984      6C00
 13985              	.LASF794:
 13986 39eb 53544154 	 .ascii "STATUS_CLASSIC_TOO_MANY\000"
 13986      55535F43 
 13986      4C415353 
 13986      49435F54 
 13986      4F4F5F4D 
 13987              	.LASF221:
 13988 3a03 696E6974 	 .ascii "initialization_entry\000"
ARM GAS   			page 294


 13988      69616C69 
 13988      7A617469 
 13988      6F6E5F65 
 13988      6E747279 
 13989              	.LASF40:
 13990 3a18 63757272 	 .ascii "current_state\000"
 13990      656E745F 
 13990      73746174 
 13990      6500
 13991              	.LASF130:
 13992 3a26 4F424A45 	 .ascii "OBJECTS_CLASSIC_API\000"
 13992      4354535F 
 13992      434C4153 
 13992      5349435F 
 13992      41504900 
 13993              	.LASF919:
 13994 3a3a 5F4D6573 	 .ascii "_Message_queue_Information\000"
 13994      73616765 
 13994      5F717565 
 13994      75655F49 
 13994      6E666F72 
 13995              	.LASF160:
 13996 3a55 5F495352 	 .ascii "_ISR_Stack_area_begin\000"
 13996      5F537461 
 13996      636B5F61 
 13996      7265615F 
 13996      62656769 
 13997              	.LASF709:
 13998 3a6b 72657475 	 .ascii "return_argument\000"
 13998      726E5F61 
 13998      7267756D 
 13998      656E7400 
 13999              	.LASF672:
 14000 3a7b 54687265 	 .ascii "Thread_queue_Priority_actions_operation\000"
 14000      61645F71 
 14000      75657565 
 14000      5F507269 
 14000      6F726974 
 14001              	.LASF316:
 14002 3aa3 66747275 	 .ascii "ftruncate_h\000"
 14002      6E636174 
 14002      655F6800 
 14003              	.LASF933:
 14004 3aaf 434F5245 	 .ascii "CORE_ceiling_mutex_Control\000"
 14004      5F636569 
 14004      6C696E67 
 14004      5F6D7574 
 14004      65785F43 
 14005              	.LASF585:
 14006 3aca 62756666 	 .ascii "buffer_min\000"
 14006      65725F6D 
 14006      696E00
 14007              	.LASF324:
 14008 3ad5 6D6D6170 	 .ascii "mmap_h\000"
 14008      5F6800
 14009              	.LASF197:
 14010 3adc 74687265 	 .ascii "thread_terminate\000"
ARM GAS   			page 295


 14010      61645F74 
 14010      65726D69 
 14010      6E617465 
 14010      00
 14011              	.LASF921:
 14012 3aed 6C696D69 	 .ascii "limit_address\000"
 14012      745F6164 
 14012      64726573 
 14012      7300
 14013              	.LASF27:
 14014 3afb 5F5F6769 	 .ascii "__gid_t\000"
 14014      645F7400 
 14015              	.LASF181:
 14016 3b03 55736572 	 .ascii "User_extensions_thread_delete_extension\000"
 14016      5F657874 
 14016      656E7369 
 14016      6F6E735F 
 14016      74687265 
 14017              	.LASF903:
 14018 3b2b 494D4653 	 .ascii "IMFS_root_mknod_controls\000"
 14018      5F726F6F 
 14018      745F6D6B 
 14018      6E6F645F 
 14018      636F6E74 
 14019              	.LASF578:
 14020 3b44 6D61785F 	 .ascii "max_write_blocks\000"
 14020      77726974 
 14020      655F626C 
 14020      6F636B73 
 14020      00
 14021              	.LASF217:
 14022 3b55 7274656D 	 .ascii "rtems_device_driver\000"
 14022      735F6465 
 14022      76696365 
 14022      5F647269 
 14022      76657200 
 14023              	.LASF544:
 14024 3b69 7262685F 	 .ascii "rbh_root\000"
 14024      726F6F74 
 14024      00
 14025              	.LASF1038:
 14026 3b72 7274656D 	 .ascii "rtems_stack_checker_begin_extension\000"
 14026      735F7374 
 14026      61636B5F 
 14026      63686563 
 14026      6B65725F 
 14027              	.LASF502:
 14028 3b96 7274656D 	 .ascii "rtems_shell_MKNOD_Command\000"
 14028      735F7368 
 14028      656C6C5F 
 14028      4D4B4E4F 
 14028      445F436F 
 14029              	.LASF685:
 14030 3bb0 506F696E 	 .ascii "Pointer\000"
 14030      74657200 
 14031              	.LASF471:
 14032 3bb8 7274656D 	 .ascii "rtems_shell_GETENV_Command\000"
ARM GAS   			page 296


 14032      735F7368 
 14032      656C6C5F 
 14032      47455445 
 14032      4E565F43 
 14033              	.LASF811:
 14034 3bd3 656D7074 	 .ascii "empty\000"
 14034      7900
 14035              	.LASF713:
 14036 3bd9 71756575 	 .ascii "queue\000"
 14036      6500
 14037              	.LASF195:
 14038 3bdf 74687265 	 .ascii "thread_exitted\000"
 14038      61645F65 
 14038      78697474 
 14038      656400
 14039              	.LASF695:
 14040 3bee 54687265 	 .ascii "Thread_CPU_budget_control\000"
 14040      61645F43 
 14040      50555F62 
 14040      75646765 
 14040      745F636F 
 14041              	.LASF166:
 14042 3c08 5254454D 	 .ascii "RTEMS_FATAL_SOURCE_APPLICATION\000"
 14042      535F4641 
 14042      54414C5F 
 14042      534F5552 
 14042      43455F41 
 14043              	.LASF329:
 14044 3c27 6576616C 	 .ascii "eval_path_h\000"
 14044      5F706174 
 14044      685F6800 
 14045              	.LASF984:
 14046 3c33 7274656D 	 .ascii "rtems_filesystem_default_unlock\000"
 14046      735F6669 
 14046      6C657379 
 14046      7374656D 
 14046      5F646566 
 14047              	.LASF239:
 14048 3c53 6D6F6465 	 .ascii "mode_t\000"
 14048      5F7400
 14049              	.LASF90:
 14050 3c5a 5254454D 	 .ascii "RTEMS_MP_NOT_CONFIGURED\000"
 14050      535F4D50 
 14050      5F4E4F54 
 14050      5F434F4E 
 14050      46494755 
 14051              	.LASF432:
 14052 3c72 5254454D 	 .ascii "RTEMS_FILESYSTEM_READ_ONLY\000"
 14052      535F4649 
 14052      4C455359 
 14052      5354454D 
 14052      5F524541 
 14053              	.LASF302:
 14054 3c8d 6E6F5F72 	 .ascii "no_regular_file_mknod\000"
 14054      6567756C 
 14054      61725F66 
 14054      696C655F 
ARM GAS   			page 297


 14054      6D6B6E6F 
 14055              	.LASF121:
 14056 3ca3 74765F73 	 .ascii "tv_sec\000"
 14056      656300
 14057              	.LASF886:
 14058 3caa 6D745F66 	 .ascii "mt_fs\000"
 14058      7300
 14059              	.LASF712:
 14060 3cb0 72657475 	 .ascii "return_code\000"
 14060      726E5F63 
 14060      6F646500 
 14061              	.LASF368:
 14062 3cbc 665F666C 	 .ascii "f_flag\000"
 14062      616700
 14063              	.LASF487:
 14064 3cc3 7274656D 	 .ascii "rtems_shell_CP_Command\000"
 14064      735F7368 
 14064      656C6C5F 
 14064      43505F43 
 14064      6F6D6D61 
 14065              	.LASF0:
 14066 3cda 6C6F6E67 	 .ascii "long long unsigned int\000"
 14066      206C6F6E 
 14066      6720756E 
 14066      7369676E 
 14066      65642069 
 14067              	.LASF288:
 14068 3cf1 6F666673 	 .ascii "offset\000"
 14068      657400
 14069              	.LASF756:
 14070 3cf8 5F546872 	 .ascii "_Thread_Maximum_TLS_size\000"
 14070      6561645F 
 14070      4D617869 
 14070      6D756D5F 
 14070      544C535F 
 14071              	.LASF238:
 14072 3d11 7069645F 	 .ascii "pid_t\000"
 14072      7400
 14073              	.LASF561:
 14074 3d17 5065725F 	 .ascii "Per_CPU_Control\000"
 14074      4350555F 
 14074      436F6E74 
 14074      726F6C00 
 14075              	.LASF681:
 14076 3d27 54687265 	 .ascii "Thread_Entry_numeric\000"
 14076      61645F45 
 14076      6E747279 
 14076      5F6E756D 
 14076      65726963 
 14077              	.LASF145:
 14078 3d3c 5F537461 	 .ascii "_Stack_Space_size\000"
 14078      636B5F53 
 14078      70616365 
 14078      5F73697A 
 14078      6500
 14079              	.LASF236:
 14080 3d4e 7569645F 	 .ascii "uid_t\000"
ARM GAS   			page 298


 14080      7400
 14081              	.LASF35:
 14082 3d54 46726565 	 .ascii "Free_node\000"
 14082      5F6E6F64 
 14082      6500
 14083              	.LASF259:
 14084 3d5e 54696D65 	 .ascii "Timer_Classes\000"
 14084      725F436C 
 14084      61737365 
 14084      7300
 14085              	.LASF220:
 14086 3d6c 7274656D 	 .ascii "rtems_device_driver_entry\000"
 14086      735F6465 
 14086      76696365 
 14086      5F647269 
 14086      7665725F 
 14087              	.LASF955:
 14088 3d86 4C6F6F6B 	 .ascii "Lookup_node\000"
 14088      75705F6E 
 14088      6F646500 
 14089              	.LASF274:
 14090 3d92 73745F62 	 .ascii "st_blocks\000"
 14090      6C6F636B 
 14090      7300
 14091              	.LASF84:
 14092 3d9c 74687265 	 .ascii "thread_id\000"
 14092      61645F69 
 14092      6400
 14093              	.LASF807:
 14094 3da6 63616E63 	 .ascii "cancel_job\000"
 14094      656C5F6A 
 14094      6F6200
 14095              	.LASF733:
 14096 3db1 63757272 	 .ascii "current_directory\000"
 14096      656E745F 
 14096      64697265 
 14096      63746F72 
 14096      7900
 14097              	.LASF215:
 14098 3dc3 7274656D 	 .ascii "rtems_fatal_code\000"
 14098      735F6661 
 14098      74616C5F 
 14098      636F6465 
 14098      00
 14099              	.LASF59:
 14100 3dd4 75736572 	 .ascii "user_environment\000"
 14100      5F656E76 
 14100      69726F6E 
 14100      6D656E74 
 14100      00
 14101              	.LASF351:
 14102 3de5 6D745F65 	 .ascii "mt_entry\000"
 14102      6E747279 
 14102      00
 14103              	.LASF541:
 14104 3dee 7262655F 	 .ascii "rbe_color\000"
 14104      636F6C6F 
ARM GAS   			page 299


 14104      7200
 14105              	.LASF612:
 14106 3df8 4F424A45 	 .ascii "OBJECTS_POSIX_SEMAPHORES\000"
 14106      4354535F 
 14106      504F5349 
 14106      585F5345 
 14106      4D415048 
 14107              	.LASF385:
 14108 3e11 7274656D 	 .ascii "rtems_filesystem_eval_path_t\000"
 14108      735F6669 
 14108      6C657379 
 14108      7374656D 
 14108      5F657661 
 14109              	.LASF729:
 14110 3e2e 54687265 	 .ascii "Thread_Life_control\000"
 14110      61645F4C 
 14110      6966655F 
 14110      636F6E74 
 14110      726F6C00 
 14111              	.LASF115:
 14112 3e42 5254454D 	 .ascii "RTEMS_IO_ERROR\000"
 14112      535F494F 
 14112      5F455252 
 14112      4F5200
 14113              	.LASF958:
 14114 3e51 5F504F53 	 .ascii "_POSIX_Keys_Key_value_pair_maximum\000"
 14114      49585F4B 
 14114      6579735F 
 14114      4B65795F 
 14114      76616C75 
 14115              	.LASF678:
 14116 3e74 54687265 	 .ascii "Thread_Entry_numeric_type\000"
 14116      61645F45 
 14116      6E747279 
 14116      5F6E756D 
 14116      65726963 
 14117              	.LASF1035:
 14118 3e8e 5F4F626A 	 .ascii "_Objects_Allocate_static\000"
 14118      65637473 
 14118      5F416C6C 
 14118      6F636174 
 14118      655F7374 
 14119              	.LASF769:
 14120 3ea7 45787465 	 .ascii "Extension_Control\000"
 14120      6E73696F 
 14120      6E5F436F 
 14120      6E74726F 
 14120      6C00
 14121              	.LASF175:
 14122 3eb9 5254454D 	 .ascii "RTEMS_FATAL_SOURCE_HEAP\000"
 14122      535F4641 
 14122      54414C5F 
 14122      534F5552 
 14122      43455F48 
 14123              	.LASF251:
 14124 3ed1 434F5245 	 .ascii "CORE_message_queue_Buffer\000"
 14124      5F6D6573 
ARM GAS   			page 300


 14124      73616765 
 14124      5F717565 
 14124      75655F42 
 14125              	.LASF868:
 14126 3eeb 7274656D 	 .ascii "rtems_libio_iops\000"
 14126      735F6C69 
 14126      62696F5F 
 14126      696F7073 
 14126      00
 14127              	.LASF579:
 14128 3efc 73776170 	 .ascii "swapout_priority\000"
 14128      6F75745F 
 14128      7072696F 
 14128      72697479 
 14128      00
 14129              	.LASF165:
 14130 3f0d 5254454D 	 .ascii "RTEMS_FATAL_SOURCE_BDBUF\000"
 14130      535F4641 
 14130      54414C5F 
 14130      534F5552 
 14130      43455F42 
 14131              	.LASF691:
 14132 3f26 696E6974 	 .ascii "initialize\000"
 14132      69616C69 
 14132      7A6500
 14133              	.LASF275:
 14134 3f31 696F6374 	 .ascii "ioctl_command_t\000"
 14134      6C5F636F 
 14134      6D6D616E 
 14134      645F7400 
 14135              	.LASF494:
 14136 3f41 7274656D 	 .ascii "rtems_shell_CHMOD_Command\000"
 14136      735F7368 
 14136      656C6C5F 
 14136      43484D4F 
 14136      445F436F 
 14137              	.LASF303:
 14138 3f5b 70617468 	 .ascii "pathconf_limits_and_options\000"
 14138      636F6E66 
 14138      5F6C696D 
 14138      6974735F 
 14138      616E645F 
 14139              	.LASF258:
 14140 3f77 54494D45 	 .ascii "TIMER_TIME_OF_DAY_ON_TASK\000"
 14140      525F5449 
 14140      4D455F4F 
 14140      465F4441 
 14140      595F4F4E 
 14141              	.LASF462:
 14142 3f91 6273705F 	 .ascii "bsp_interrupt_shell_command\000"
 14142      696E7465 
 14142      72727570 
 14142      745F7368 
 14142      656C6C5F 
 14143              	.LASF956:
 14144 3fad 504F5349 	 .ascii "POSIX_Keys_Key_value_pair\000"
 14144      585F4B65 
ARM GAS   			page 301


 14144      79735F4B 
 14144      65795F76 
 14144      616C7565 
 14145              	.LASF745:
 14146 3fc7 5F63616E 	 .ascii "_canceltype\000"
 14146      63656C74 
 14146      79706500 
 14147              	.LASF364:
 14148 3fd3 665F6669 	 .ascii "f_files\000"
 14148      6C657300 
 14149              	.LASF965:
 14150 3fdb 5F62696E 	 .ascii "_binary_tarfile_size\000"
 14150      6172795F 
 14150      74617266 
 14150      696C655F 
 14150      73697A65 
 14151              	.LASF374:
 14152 3ff0 7274656D 	 .ascii "rtems_filesystem_mt_entry_lock_t\000"
 14152      735F6669 
 14152      6C657379 
 14152      7374656D 
 14152      5F6D745F 
 14153              	.LASF180:
 14154 4011 55736572 	 .ascii "User_extensions_thread_create_extension\000"
 14154      5F657874 
 14154      656E7369 
 14154      6F6E735F 
 14154      74687265 
 14155              	.LASF73:
 14156 4039 72656769 	 .ascii "register_r4\000"
 14156      73746572 
 14156      5F723400 
 14157              	.LASF74:
 14158 4045 72656769 	 .ascii "register_r5\000"
 14158      73746572 
 14158      5F723500 
 14159              	.LASF75:
 14160 4051 72656769 	 .ascii "register_r6\000"
 14160      73746572 
 14160      5F723600 
 14161              	.LASF76:
 14162 405d 72656769 	 .ascii "register_r7\000"
 14162      73746572 
 14162      5F723700 
 14163              	.LASF77:
 14164 4069 72656769 	 .ascii "register_r8\000"
 14164      73746572 
 14164      5F723800 
 14165              	.LASF78:
 14166 4075 72656769 	 .ascii "register_r9\000"
 14166      73746572 
 14166      5F723900 
 14167              	.LASF698:
 14168 4081 73746163 	 .ascii "stack_free\000"
 14168      6B5F6672 
 14168      656500
 14169              	.LASF828:
ARM GAS   			page 302


 14170 408c 72656164 	 .ascii "ready_chain\000"
 14170      795F6368 
 14170      61696E00 
 14171              	.LASF101:
 14172 4098 5254454D 	 .ascii "RTEMS_UNSATISFIED\000"
 14172      535F554E 
 14172      53415449 
 14172      53464945 
 14172      4400
 14173              	.LASF922:
 14174 40aa 62756666 	 .ascii "buffer_size\000"
 14174      65725F73 
 14174      697A6500 
 14175              	.LASF1000:
 14176 40b6 6E756C6C 	 .ascii "null_read\000"
 14176      5F726561 
 14176      6400
 14177              	.LASF834:
 14178 40c0 69735F65 	 .ascii "is_enabled\000"
 14178      6E61626C 
 14178      656400
 14179              	.LASF680:
 14180 40cb 54687265 	 .ascii "Thread_Entry_idle\000"
 14180      61645F45 
 14180      6E747279 
 14180      5F69646C 
 14180      6500
 14181              	.LASF761:
 14182 40dd 4150495F 	 .ascii "API_POSIX\000"
 14182      504F5349 
 14182      5800
 14183              	.LASF213:
 14184 40e7 5F557365 	 .ascii "_User_extensions_Initial_switch_controls\000"
 14184      725F6578 
 14184      74656E73 
 14184      696F6E73 
 14184      5F496E69 
 14185              	.LASF496:
 14186 4110 7274656D 	 .ascii "rtems_shell_MKRFS_Command\000"
 14186      735F7368 
 14186      656C6C5F 
 14186      4D4B5246 
 14186      535F436F 
 14187              	.LASF716:
 14188 412a 68656164 	 .ascii "header\000"
 14188      657200
 14189              	.LASF841:
 14190 4131 5369676E 	 .ascii "Signal\000"
 14190      616C00
 14191              	.LASF413:
 14192 4138 7274656D 	 .ascii "rtems_filesystem_fsync_t\000"
 14192      735F6669 
 14192      6C657379 
 14192      7374656D 
 14192      5F667379 
 14193              	.LASF556:
 14194 4151 5045525F 	 .ascii "PER_CPU_WATCHDOG_REALTIME\000"
ARM GAS   			page 303


 14194      4350555F 
 14194      57415443 
 14194      48444F47 
 14194      5F524541 
 14195              	.LASF235:
 14196 416b 6465765F 	 .ascii "dev_t\000"
 14196      7400
 14197              	.LASF352:
 14198 4171 7274656D 	 .ascii "rtems_filesystem_location_info_t\000"
 14198      735F6669 
 14198      6C657379 
 14198      7374656D 
 14198      5F6C6F63 
 14199              	.LASF1008:
 14200 4192 636F6E73 	 .ascii "console_open\000"
 14200      6F6C655F 
 14200      6F70656E 
 14200      00
 14201              	.LASF1048:
 14202 419f 474E5520 	 .ascii "GNU C17 13.3.0 20240521 (RTEMS 6, RSB c56f1cd069a2b"
 14202      43313720 
 14202      31332E33 
 14202      2E302032 
 14202      30323430 
 14203 41d2 61383235 	 .ascii "a8256d4cca4baadf8e217f94085-modified, Newlib 1b3dcf"
 14203      36643463 
 14203      63613462 
 14203      61616466 
 14203      38653231 
 14204 4205 6429202D 	 .ascii "d) -ftls-model=local-exec -mcpu=cortex-a8 -marm -ma"
 14204      66746C73 
 14204      2D6D6F64 
 14204      656C3D6C 
 14204      6F63616C 
 14205 4238 7263683D 	 .ascii "rch=armv7-a+sec -g -O2\000"
 14205      61726D76 
 14205      372D612B 
 14205      73656320 
 14205      2D67202D 
 14206              	.LASF859:
 14207 424f 5F525445 	 .ascii "_RTEMS_tasks_Objects\000"
 14207      4D535F74 
 14207      61736B73 
 14207      5F4F626A 
 14207      65637473 
 14208              	.LASF187:
 14209 4264 55736572 	 .ascii "User_extensions_fatal_extension\000"
 14209      5F657874 
 14209      656E7369 
 14209      6F6E735F 
 14209      66617461 
 14210              	.LASF863:
 14211 4284 5F494F5F 	 .ascii "_IO_Number_of_drivers\000"
 14211      4E756D62 
 14211      65725F6F 
 14211      665F6472 
 14211      69766572 
ARM GAS   			page 304


 14212              	.LASF205:
 14213 429a 5461696C 	 .ascii "Tail\000"
 14213      00
 14214              	.LASF176:
 14215 429f 5254454D 	 .ascii "RTEMS_FATAL_SOURCE_SPURIOUS_INTERRUPT\000"
 14215      535F4641 
 14215      54414C5F 
 14215      534F5552 
 14215      43455F53 
 14216              	.LASF649:
 14217 42c5 74687265 	 .ascii "thread_state\000"
 14217      61645F73 
 14217      74617465 
 14217      00
 14218              	.LASF421:
 14219 42d2 6D61785F 	 .ascii "max_input\000"
 14219      696E7075 
 14219      7400
 14220              	.LASF592:
 14221 42dc 46726565 	 .ascii "Free\000"
 14221      00
 14222              	.LASF11:
 14223 42e1 6C6F6E67 	 .ascii "long long int\000"
 14223      206C6F6E 
 14223      6720696E 
 14223      7400
 14224              	.LASF309:
 14225 42ef 6F70656E 	 .ascii "open_h\000"
 14225      5F6800
 14226              	.LASF1040:
 14227 42f6 7274656D 	 .ascii "rtems_stack_checker_create_extension\000"
 14227      735F7374 
 14227      61636B5F 
 14227      63686563 
 14227      6B65725F 
 14228              	.LASF865:
 14229 431b 5F4C696E 	 .ascii "_Linker_set__Sysinit__IO_Initialize_all_drivers\000"
 14229      6B65725F 
 14229      7365745F 
 14229      5F537973 
 14229      696E6974 
 14230              	.LASF549:
 14231 434b 57617463 	 .ascii "Watchdogs\000"
 14231      68646F67 
 14231      7300
 14232              	.LASF216:
 14233 4355 7274656D 	 .ascii "rtems_fatal_source\000"
 14233      735F6661 
 14233      74616C5F 
 14233      736F7572 
 14233      636500
 14234              	.LASF139:
 14235 4368 7274656D 	 .ascii "rtems_task_priority\000"
 14235      735F7461 
 14235      736B5F70 
 14235      72696F72 
 14235      69747900 
ARM GAS   			page 305


 14236              	.LASF81:
 14237 437c 72656769 	 .ascii "register_sp\000"
 14237      73746572 
 14237      5F737000 
 14238              	.LASF86:
 14239 4388 4350555F 	 .ascii "CPU_Uint32ptr\000"
 14239      55696E74 
 14239      33327074 
 14239      7200
 14240              	.LASF521:
 14241 4396 7274656D 	 .ascii "rtems_shell_SHUTDOWN_Command\000"
 14241      735F7368 
 14241      656C6C5F 
 14241      53485554 
 14241      444F574E 
 14242              	.LASF122:
 14243 43b3 74765F6E 	 .ascii "tv_nsec\000"
 14243      73656300 
 14244              	.LASF673:
 14245 43bb 54687265 	 .ascii "Thread_queue_Enqueue_operation\000"
 14245      61645F71 
 14245      75657565 
 14245      5F456E71 
 14245      75657565 
 14246              	.LASF689:
 14247 43da 61745F74 	 .ascii "at_tick\000"
 14247      69636B00 
 14248              	.LASF792:
 14249 43e2 53544154 	 .ascii "STATUS_CLASSIC_SUCCESSFUL\000"
 14249      55535F43 
 14249      4C415353 
 14249      49435F53 
 14249      55434345 
 14250              	.LASF1029:
 14251 43fc 5F536368 	 .ascii "_Scheduler_priority_Block\000"
 14251      6564756C 
 14251      65725F70 
 14251      72696F72 
 14251      6974795F 
 14252              	.LASF473:
 14253 4416 7274656D 	 .ascii "rtems_shell_MDUMP_Command\000"
 14253      735F7368 
 14253      656C6C5F 
 14253      4D44554D 
 14253      505F436F 
 14254              	.LASF711:
 14255 4430 6F707469 	 .ascii "option\000"
 14255      6F6E00
 14256              	.LASF836:
 14257 4437 4153525F 	 .ascii "ASR_Information\000"
 14257      496E666F 
 14257      726D6174 
 14257      696F6E00 
 14258              	.LASF927:
 14259 4447 434F5245 	 .ascii "CORE_mutex_Control\000"
 14259      5F6D7574 
 14259      65785F43 
ARM GAS   			page 306


 14259      6F6E7472 
 14259      6F6C00
 14260              	.LASF686:
 14261 445a 61646170 	 .ascii "adaptor\000"
 14261      746F7200 
 14262              	.LASF193:
 14263 4462 74687265 	 .ascii "thread_switch\000"
 14263      61645F73 
 14263      77697463 
 14263      6800
 14264              	.LASF533:
 14265 4470 7274656D 	 .ascii "rtems_shell_DIR_Alias\000"
 14265      735F7368 
 14265      656C6C5F 
 14265      4449525F 
 14265      416C6961 
 14266              	.LASF210:
 14267 4486 55736572 	 .ascii "User_extensions_Control\000"
 14267      5F657874 
 14267      656E7369 
 14267      6F6E735F 
 14267      436F6E74 
 14268              	.LASF108:
 14269 449e 5254454D 	 .ascii "RTEMS_INVALID_CLOCK\000"
 14269      535F494E 
 14269      56414C49 
 14269      445F434C 
 14269      4F434B00 
 14270              	.LASF277:
 14271 44b2 43484149 	 .ascii "CHAIN_ITERATOR_BACKWARD\000"
 14271      4E5F4954 
 14271      45524154 
 14271      4F525F42 
 14271      41434B57 
 14272              	.LASF190:
 14273 44ca 74687265 	 .ascii "thread_start\000"
 14273      61645F73 
 14273      74617274 
 14273      00
 14274              	.LASF800:
 14275 44d7 756E626C 	 .ascii "unblock\000"
 14275      6F636B00 
 14276              	.LASF21:
 14277 44df 5F5F696E 	 .ascii "__ino_t\000"
 14277      6F5F7400 
 14278              	.LASF156:
 14279 44e7 61726775 	 .ascii "argument\000"
 14279      6D656E74 
 14279      00
 14280              	.LASF127:
 14281 44f0 4F626A65 	 .ascii "Objects_Maximum\000"
 14281      6374735F 
 14281      4D617869 
 14281      6D756D00 
 14282              	.LASF323:
 14283 4500 77726974 	 .ascii "writev_h\000"
 14283      65765F68 
ARM GAS   			page 307


 14283      00
 14284              	.LASF874:
 14285 4509 73746174 	 .ascii "stat_mtime\000"
 14285      5F6D7469 
 14285      6D6500
 14286              	.LASF683:
 14287 4514 49646C65 	 .ascii "Idle\000"
 14287      00
 14288              	.LASF871:
 14289 4519 50617265 	 .ascii "Parent\000"
 14289      6E7400
 14290              	.LASF786:
 14291 4520 53544154 	 .ascii "STATUS_CLASSIC_NO_MEMORY\000"
 14291      55535F43 
 14291      4C415353 
 14291      49435F4E 
 14291      4F5F4D45 
 14292              	.LASF569:
 14293 4539 68656972 	 .ascii "heir\000"
 14293      00
 14294              	.LASF112:
 14295 453e 5254454D 	 .ascii "RTEMS_NOT_IMPLEMENTED\000"
 14295      535F4E4F 
 14295      545F494D 
 14295      504C454D 
 14295      454E5445 
 14296              	.LASF701:
 14297 4554 54687265 	 .ascii "Thread_Start_information\000"
 14297      61645F53 
 14297      74617274 
 14297      5F696E66 
 14297      6F726D61 
 14298              	.LASF631:
 14299 456d 5052494F 	 .ascii "PRIORITY_ACTION_CHANGE\000"
 14299      52495459 
 14299      5F414354 
 14299      494F4E5F 
 14299      4348414E 
 14300              	.LASF598:
 14301 4584 4F424A45 	 .ascii "OBJECTS_RTEMS_TASKS\000"
 14301      4354535F 
 14301      5254454D 
 14301      535F5441 
 14301      534B5300 
 14302              	.LASF805:
 14303 4598 6E6F6465 	 .ascii "node_destroy\000"
 14303      5F646573 
 14303      74726F79 
 14303      00
 14304              	.LASF803:
 14305 45a5 756E6D61 	 .ascii "unmap_priority\000"
 14305      705F7072 
 14305      696F7269 
 14305      747900
 14306              	.LASF333:
 14307 45b4 726D6E6F 	 .ascii "rmnod_h\000"
 14307      645F6800 
ARM GAS   			page 308


 14308              	.LASF853:
 14309 45bc 504F5349 	 .ascii "POSIX_API_Control\000"
 14309      585F4150 
 14309      495F436F 
 14309      6E74726F 
 14309      6C00
 14310              	.LASF604:
 14311 45ce 4F424A45 	 .ascii "OBJECTS_RTEMS_PORTS\000"
 14311      4354535F 
 14311      5254454D 
 14311      535F504F 
 14311      52545300 
 14312              	.LASF289:
 14313 45e2 70617468 	 .ascii "pathinfo\000"
 14313      696E666F 
 14313      00
 14314              	.LASF423:
 14315 45eb 70617468 	 .ascii "path_max\000"
 14315      5F6D6178 
 14315      00
 14316              	.LASF389:
 14317 45f4 7274656D 	 .ascii "rtems_filesystem_clonenode_t\000"
 14317      735F6669 
 14317      6C657379 
 14317      7374656D 
 14317      5F636C6F 
 14318              	.LASF327:
 14319 4611 6C6F636B 	 .ascii "lock_h\000"
 14319      5F6800
 14320              	.LASF663:
 14321 4618 54687265 	 .ascii "Thread_queue_Lock_context\000"
 14321      61645F71 
 14321      75657565 
 14321      5F4C6F63 
 14321      6B5F636F 
 14322              	.LASF387:
 14323 4632 7274656D 	 .ascii "rtems_filesystem_fchmod_t\000"
 14323      735F6669 
 14323      6C657379 
 14323      7374656D 
 14323      5F666368 
 14324              	.LASF710:
 14325 464c 72657475 	 .ascii "return_argument_second\000"
 14325      726E5F61 
 14325      7267756D 
 14325      656E745F 
 14325      7365636F 
 14326              	.LASF647:
 14327 4663 54687265 	 .ascii "Thread_queue_Context\000"
 14327      61645F71 
 14327      75657565 
 14327      5F436F6E 
 14327      74657874 
 14328              	.LASF470:
 14329 4678 7274656D 	 .ascii "rtems_shell_SETENV_Command\000"
 14329      735F7368 
 14329      656C6C5F 
ARM GAS   			page 309


 14329      53455445 
 14329      4E565F43 
 14330              	.LASF912:
 14331 4693 6D657373 	 .ascii "message_buffers\000"
 14331      6167655F 
 14331      62756666 
 14331      65727300 
 14332              	.LASF395:
 14333 46a3 7274656D 	 .ascii "rtems_filesystem_are_nodes_equal_t\000"
 14333      735F6669 
 14333      6C657379 
 14333      7374656D 
 14333      5F617265 
 14334              	.LASF443:
 14335 46c6 7274656D 	 .ascii "rtems_filesystem_root_configuration\000"
 14335      735F6669 
 14335      6C657379 
 14335      7374656D 
 14335      5F726F6F 
 14336              	.LASF404:
 14337 46ea 7274656D 	 .ascii "rtems_filesystem_close_t\000"
 14337      735F6669 
 14337      6C657379 
 14337      7374656D 
 14337      5F636C6F 
 14338              	.LASF412:
 14339 4703 7274656D 	 .ascii "rtems_filesystem_ftruncate_t\000"
 14339      735F6669 
 14339      6C657379 
 14339      7374656D 
 14339      5F667472 
 14340              	.LASF637:
 14341 4720 41637469 	 .ascii "Action\000"
 14341      6F6E00
 14342              	.LASF223:
 14343 4727 636C6F73 	 .ascii "close_entry\000"
 14343      655F656E 
 14343      74727900 
 14344              	.LASF866:
 14345 4733 5F4C696E 	 .ascii "_Linker_set__Sysinit_rtems_libio_post_driver\000"
 14345      6B65725F 
 14345      7365745F 
 14345      5F537973 
 14345      696E6974 
 14346              	.LASF311:
 14347 4760 72656164 	 .ascii "read_h\000"
 14347      5F6800
 14348              	.LASF118:
 14349 4767 7274656D 	 .ascii "rtems_status_code\000"
 14349      735F7374 
 14349      61747573 
 14349      5F636F64 
 14349      6500
 14350              	.LASF183:
 14351 4779 55736572 	 .ascii "User_extensions_thread_restart_extension\000"
 14351      5F657874 
 14351      656E7369 
ARM GAS   			page 310


 14351      6F6E735F 
 14351      74687265 
 14352              	.LASF319:
 14353 47a2 66636E74 	 .ascii "fcntl_h\000"
 14353      6C5F6800 
 14354              	.LASF435:
 14355 47aa 7274656D 	 .ascii "rtems_filesystem_options_t\000"
 14355      735F6669 
 14355      6C657379 
 14355      7374656D 
 14355      5F6F7074 
 14356              	.LASF454:
 14357 47c5 7274656D 	 .ascii "rtems_shell_PING_Command\000"
 14357      735F7368 
 14357      656C6C5F 
 14357      50494E47 
 14357      5F436F6D 
 14358              	.LASF543:
 14359 47de 52425472 	 .ascii "RBTree_Control\000"
 14359      65655F43 
 14359      6F6E7472 
 14359      6F6C00
 14360              	.LASF337:
 14361 47ed 66726565 	 .ascii "freenod_h\000"
 14361      6E6F645F 
 14361      6800
 14362              	.LASF1:
 14363 47f7 756E7369 	 .ascii "unsigned int\000"
 14363      676E6564 
 14363      20696E74 
 14363      00
 14364              	.LASF386:
 14365 4804 7274656D 	 .ascii "rtems_filesystem_link_t\000"
 14365      735F6669 
 14365      6C657379 
 14365      7374656D 
 14365      5F6C696E 
 14366              	.LASF555:
 14367 481c 5045525F 	 .ascii "PER_CPU_WATCHDOG_TICKS\000"
 14367      4350555F 
 14367      57415443 
 14367      48444F47 
 14367      5F544943 
 14368              	.LASF379:
 14369 4833 746F6B65 	 .ascii "tokenlen\000"
 14369      6E6C656E 
 14369      00
 14370              	.LASF381:
 14371 483c 63757272 	 .ascii "currentloc\000"
 14371      656E746C 
 14371      6F6300
 14372              	.LASF526:
 14373 4847 7274656D 	 .ascii "rtems_shell_PERIODUSE_Command\000"
 14373      735F7368 
 14373      656C6C5F 
 14373      50455249 
 14373      4F445553 
ARM GAS   			page 311


 14374              	.LASF383:
 14375 4865 73746172 	 .ascii "startloc\000"
 14375      746C6F63 
 14375      00
 14376              	.LASF245:
 14377 486e 70746872 	 .ascii "pthread_key_t\000"
 14377      6561645F 
 14377      6B65795F 
 14377      7400
 14378              	.LASF684:
 14379 487c 4E756D65 	 .ascii "Numeric\000"
 14379      72696300 
 14380              	.LASF961:
 14381 4884 5F504F53 	 .ascii "_POSIX_Keys_Information\000"
 14381      49585F4B 
 14381      6579735F 
 14381      496E666F 
 14381      726D6174 
 14382              	.LASF436:
 14383 489c 7274656D 	 .ascii "rtems_filesystem_table_t\000"
 14383      735F6669 
 14383      6C657379 
 14383      7374656D 
 14383      5F746162 
 14384              	.LASF895:
 14385 48b5 494D4653 	 .ascii "IMFS_fs_info_t\000"
 14385      5F66735F 
 14385      696E666F 
 14385      5F7400
 14386              	.LASF369:
 14387 48c4 665F6E61 	 .ascii "f_namemax\000"
 14387      6D656D61 
 14387      7800
 14388              	.LASF398:
 14389 48ce 7274656D 	 .ascii "rtems_filesystem_utimens_t\000"
 14389      735F6669 
 14389      6C657379 
 14389      7374656D 
 14389      5F757469 
 14390              	.LASF271:
 14391 48e9 73745F6D 	 .ascii "st_mtim\000"
 14391      74696D00 
 14392              	.LASF347:
 14393 48f1 6D745F65 	 .ascii "mt_entry_node\000"
 14393      6E747279 
 14393      5F6E6F64 
 14393      6500
 14394              	.LASF4:
 14395 48ff 73686F72 	 .ascii "short int\000"
 14395      7420696E 
 14395      7400
 14396              	.LASF605:
 14397 4909 4F424A45 	 .ascii "OBJECTS_RTEMS_PERIODS\000"
 14397      4354535F 
 14397      5254454D 
 14397      535F5045 
 14397      52494F44 
ARM GAS   			page 312


 14398              	.LASF42:
 14399 491f 53636865 	 .ascii "Scheduler\000"
 14399      64756C65 
 14399      7200
 14400              	.LASF926:
 14401 4929 5F506172 	 .ascii "_Partition_Information\000"
 14401      74697469 
 14401      6F6E5F49 
 14401      6E666F72 
 14401      6D617469 
 14402              	.LASF516:
 14403 4940 7274656D 	 .ascii "rtems_shell_SPI_Command\000"
 14403      735F7368 
 14403      656C6C5F 
 14403      5350495F 
 14403      436F6D6D 
 14404              	.LASF214:
 14405 4958 5F576F72 	 .ascii "_Workspace_Size\000"
 14405      6B737061 
 14405      63655F53 
 14405      697A6500 
 14406              	.LASF532:
 14407 4968 7274656D 	 .ascii "rtems_shell_Initial_commands\000"
 14407      735F7368 
 14407      656C6C5F 
 14407      496E6974 
 14407      69616C5F 
 14408              	.LASF884:
 14409 4985 494D4653 	 .ascii "IMFS_mknod_control\000"
 14409      5F6D6B6E 
 14409      6F645F63 
 14409      6F6E7472 
 14409      6F6C00
 14410              	.LASF839:
 14411 4998 4576656E 	 .ascii "Event\000"
 14411      7400
 14412              	.LASF512:
 14413 499e 7274656D 	 .ascii "rtems_shell_DEBUGRFS_Command\000"
 14413      735F7368 
 14413      656C6C5F 
 14413      44454255 
 14413      47524653 
 14414              	.LASF802:
 14415 49bb 6D61705F 	 .ascii "map_priority\000"
 14415      7072696F 
 14415      72697479 
 14415      00
 14416              	.LASF662:
 14417 49c8 54687265 	 .ascii "Thread_queue_Deadlock_callout\000"
 14417      61645F71 
 14417      75657565 
 14417      5F446561 
 14417      646C6F63 
 14418              	.LASF1005:
 14419 49e6 636F6E73 	 .ascii "console_write\000"
 14419      6F6C655F 
 14419      77726974 
ARM GAS   			page 313


 14419      6500
 14420              	.LASF440:
 14421 49f4 6F707469 	 .ascii "options\000"
 14421      6F6E7300 
 14422              	.LASF755:
 14423 49fc 5F546872 	 .ascii "_Thread_Maximum_name_size\000"
 14423      6561645F 
 14423      4D617869 
 14423      6D756D5F 
 14423      6E616D65 
 14424              	.LASF425:
 14425 4a16 706F7369 	 .ascii "posix_async_io\000"
 14425      785F6173 
 14425      796E635F 
 14425      696F00
 14426              	.LASF606:
 14427 4a25 4F424A45 	 .ascii "OBJECTS_RTEMS_EXTENSIONS\000"
 14427      4354535F 
 14427      5254454D 
 14427      535F4558 
 14427      54454E53 
 14428              	.LASF261:
 14429 4a3e 73746174 	 .ascii "stat\000"
 14429      00
 14430              	.LASF813:
 14431 4a43 5072696F 	 .ascii "Priority_bit_map_Word\000"
 14431      72697479 
 14431      5F626974 
 14431      5F6D6170 
 14431      5F576F72 
 14432              	.LASF287:
 14433 4a59 666C6167 	 .ascii "flags\000"
 14433      7300
 14434              	.LASF134:
 14435 4a5f 5F576174 	 .ascii "_Watchdog_Microseconds_per_tick\000"
 14435      6368646F 
 14435      675F4D69 
 14435      63726F73 
 14435      65636F6E 
 14436              	.LASF417:
 14437 4a7f 7274656D 	 .ascii "rtems_filesystem_kqfilter_t\000"
 14437      735F6669 
 14437      6C657379 
 14437      7374656D 
 14437      5F6B7166 
 14438              	.LASF233:
 14439 4a9b 66736669 	 .ascii "fsfilcnt_t\000"
 14439      6C636E74 
 14439      5F7400
 14440              	.LASF540:
 14441 4aa6 7262655F 	 .ascii "rbe_parent\000"
 14441      70617265 
 14441      6E7400
 14442              	 .ident "GCC: (GNU) 13.3.0 20240521 (RTEMS 6, RSB c56f1cd069a2ba8256d4cca4baadf8e217f94085-modified, Newlib 1b3dcfd)"
ARM GAS   			page 314


DEFINED SYMBOLS
                            *ABS*:00000000 rki_init.c
                            *ABS*:00001000 _ISR_Stack_size
            .rtemsstack.interrupt:00001000 _ISR_Stack_area_end
    {standard input}:864    .rtemsstack.interrupt:00000000 _ISR_Stack_area_begin
    {standard input}:27     .rodata.str1.4:00000000 $d
    {standard input}:28     .rodata.str1.4:00000000 .LC0
    {standard input}:31     .rodata.str1.4:00000004 .LC1
    {standard input}:34     .rodata.str1.4:0000002c .LC2
    {standard input}:37     .rodata.str1.4:00000044 .LC3
    {standard input}:40     .rodata.str1.4:0000004c .LC4
    {standard input}:43     .rodata.str1.4:00000068 .LC5
    {standard input}:46     .rodata.str1.4:00000080 .LC6
    {standard input}:49     .rodata.str1.4:000000ac .LC7
    {standard input}:52     .rodata.str1.4:000000c4 .LC8
    {standard input}:55     .rodata.str1.4:000000e4 .LC9
    {standard input}:58     .rodata.str1.4:00000100 .LC10
    {standard input}:63     .text:00000000 $a
    {standard input}:68     .text:00000000 Init
    {standard input}:247    .rodata:00000000 _Stack_Allocator_allocate_for_idle
    {standard input}:251    .rodata:00000004 _Stack_Space_size
    {standard input}:549    .data:00000000 rtems_minimum_stack_size
    {standard input}:255    .rodata:00000008 _Workspace_Size
    {standard input}:259    .rodata:0000000c _POSIX_Keys_Key_value_pair_maximum
    {standard input}:717    .bss:00000000 _POSIX_Keys_Key_value_pairs
    {standard input}:553    .data:00000004 _POSIX_Keys_Information
    {standard input}:570    .data:00000034 _Timer_Information
    {standard input}:587    .data:00000064 _Semaphore_Information
    {standard input}:604    .data:00000094 _Partition_Information
    {standard input}:621    .data:000000c4 _Message_queue_Information
    {standard input}:263    .rodata:00000010 rtems_libio_number_iops
    {standard input}:742    .bss:000013a0 rtems_libio_iops
    {standard input}:834    .rtemsroset._Sysinit.content.0.0x001f0080:00000000 _Linker_set__Sysinit_rtems_filesystem_initialize
    {standard input}:267    .rodata:00000014 rtems_filesystem_root_configuration
    {standard input}:275    .rodata:00000028 rtems_filesystem_table
    {standard input}:321    .rodata:000000b0 imfs_memfile_bytes_per_block
    {standard input}:858    .rtemsroset._Sysinit.content.0.0x002b0080:00000000 _Linker_set__Sysinit_rtems_libio_post_driver
    {standard input}:846    .rtemsroset._Sysinit.content.0.0x00240080:00000000 _Linker_set__Sysinit__IO_Initialize_all_drivers
    {standard input}:325    .rodata:000000b4 _IO_Number_of_drivers
    {standard input}:638    .data:000000f4 _IO_Driver_address_table
    {standard input}:852    .rtemsroset._Sysinit.content.0.0x00290080:00000000 _Linker_set__Sysinit__RTEMS_tasks_Initialize_user_task
    {standard input}:329    .rodata:000000b8 _RTEMS_tasks_User_task_table
    {standard input}:660    .data:000003f4 _RTEMS_tasks_Information
    {standard input}:679    .data:00000430 _Thread_Information
    {standard input}:339    .rodata:000000d4 _Thread_Initial_thread_count
    {standard input}:343    .rodata:000000d8 _Thread_Control_add_on_count
    {standard input}:347    .rodata:000000dc _Thread_Control_add_ons
    {standard input}:358    .rodata:000000fc _Thread_Maximum_TLS_size
    {standard input}:362    .rodata:00000100 _Thread_Maximum_name_size
    {standard input}:367    .rodata:00000108 _Scheduler_Table
    {standard input}:388    .rodata:00000150 Stack_checker_Reporter
    {standard input}:698    .data:0000046c _Extension_Information
    {standard input}:828    .rtemsroset._Sysinit.content.0.0x00050080:00000000 _Linker_set__Sysinit__User_extensions_Handler_initialization
    {standard input}:766    .bss:00004828 _User_extensions_Initial_switch_controls
    {standard input}:392    .rodata:00000154 _User_extensions_Initial_count
    {standard input}:396    .rodata:00000158 _User_extensions_Initial_extensions
    {standard input}:426    .rodata:000001c4 _Watchdog_Ticks_per_second
ARM GAS   			page 315


    {standard input}:430    .rodata:000001c8 _Watchdog_Nanoseconds_per_tick
    {standard input}:434    .rodata:000001cc _Watchdog_Microseconds_per_tick
    {standard input}:840    .rtemsroset._Sysinit.content.0.0x00240002:00000000 _Linker_set__Sysinit__Clock_Initialize
    {standard input}:438    .rodata:000001d0 rtems_bdbuf_configuration
    {standard input}:453    .rodata:00000200 _Thread_Idle_stack_size
    {standard input}:457    .rodata:00000204 rtems_shell_Initial_commands
    {standard input}:540    .rodata:00000344 rtems_shell_Initial_aliases
    {standard input}:244    .rodata:00000000 $d
    {standard input}:286    .rodata:00000048 IMFS_root_mount_data
    {standard input}:746    .bss:00003920 IMFS_root_fs_info
    {standard input}:299    .rodata:00000064 IMFS_root_ops
    {standard input}:292    .rodata:00000054 IMFS_root_mknod_controls
    {standard input}:758    .bss:00003b84 _Configuration_Scheduler_priority_dflt
    {standard input}:546    .data:00000000 $d
    {standard input}:721    .bss:00000900 _POSIX_Keys_Local_table
    {standard input}:784    .noinit.rtems.content.objects._POSIX_Keys:00000000 _POSIX_Keys_Objects
    {standard input}:725    .bss:00000980 _Timer_Local_table
    {standard input}:822    .noinit.rtems.content.objects._Timer:00000000 _Timer_Objects
    {standard input}:729    .bss:00000994 _Semaphore_Local_table
    {standard input}:806    .noinit.rtems.content.objects._Semaphore:00000000 _Semaphore_Objects
    {standard input}:733    .bss:00001194 _Partition_Local_table
    {standard input}:790    .noinit.rtems.content.objects._Partition:00000000 _Partition_Objects
    {standard input}:737    .bss:0000119c _Message_queue_Local_table
    {standard input}:778    .noinit.rtems.content.objects._Message_queue:00000000 _Message_queue_Objects
    {standard input}:750    .bss:00003978 _RTEMS_tasks_Local_table
    {standard input}:800    .noinit.rtems.content.objects._RTEMS_tasks:00002490 _RTEMS_tasks_Objects
    {standard input}:796    .noinit.rtems.content.objects._RTEMS_tasks:00000000 _RTEMS_tasks_Heads
    {standard input}:754    .bss:00003b80 _Thread_Local_table
    {standard input}:816    .noinit.rtems.content.objects._Thread:00000048 _Thread_Objects
    {standard input}:812    .noinit.rtems.content.objects._Thread:00000000 _Thread_Heads
    {standard input}:762    .bss:000047a8 _Extension_Local_table
    {standard input}:772    .noinit.rtems.content.objects._Extension:00000000 _Extension_Objects
    {standard input}:714    .bss:00000000 $d
    {standard input}:769    .noinit.rtems.content.objects._Extension:00000000 $d
    {standard input}:775    .noinit.rtems.content.objects._Message_queue:00000000 $d
    {standard input}:781    .noinit.rtems.content.objects._POSIX_Keys:00000000 $d
    {standard input}:787    .noinit.rtems.content.objects._Partition:00000000 $d
    {standard input}:793    .noinit.rtems.content.objects._RTEMS_tasks:00000000 $d
    {standard input}:803    .noinit.rtems.content.objects._Semaphore:00000000 $d
    {standard input}:809    .noinit.rtems.content.objects._Thread:00000000 $d
    {standard input}:819    .noinit.rtems.content.objects._Timer:00000000 $d
    {standard input}:825    .rtemsroset._Sysinit.content.0.0x00050080:00000000 $d
    {standard input}:831    .rtemsroset._Sysinit.content.0.0x001f0080:00000000 $d
    {standard input}:837    .rtemsroset._Sysinit.content.0.0x00240002:00000000 $d
    {standard input}:843    .rtemsroset._Sysinit.content.0.0x00240080:00000000 $d
    {standard input}:849    .rtemsroset._Sysinit.content.0.0x00290080:00000000 $d
    {standard input}:855    .rtemsroset._Sysinit.content.0.0x002b0080:00000000 $d
    {standard input}:861    .rtemsstack.interrupt:00000000 $d

UNDEFINED SYMBOLS
puts
rtems_version
printf
putchar
_binary_tarfile_size
_binary_tarfile_start
Untar_FromMemory
ARM GAS   			page 316


rki_setup_filesystems
rki_init_libbsd
rki_start_network_services
rki_add_local_cmds
rtems_task_delete
exit
_Stack_Allocator_allocate_for_idle_workspace
IMFS_initialize_support
IMFS_initialize
rtems_rfs_rtems_initialise
IMFS_mknod_control_dir_default
IMFS_mknod_control_device
IMFS_mknod_control_memfile
IMFS_mknod_control_enosys
rtems_filesystem_default_lock
rtems_filesystem_default_unlock
IMFS_eval_path
IMFS_link
rtems_filesystem_default_are_nodes_equal
IMFS_mknod
IMFS_rmnod
IMFS_fchmod
IMFS_chown
IMFS_node_clone
IMFS_node_free
IMFS_mount
IMFS_unmount
rtems_filesystem_default_fsunmount
IMFS_utimens
IMFS_symlink
IMFS_readlink
IMFS_rename
rtems_filesystem_default_statvfs
bsp_boot_cmdline
_Scheduler_priority_Initialize
_Scheduler_priority_Schedule
_Scheduler_priority_Yield
_Scheduler_priority_Block
_Scheduler_priority_Unblock
_Scheduler_priority_Update_priority
_Scheduler_default_Map_priority
_Scheduler_default_Unmap_priority
_Scheduler_priority_Node_initialize
_Scheduler_default_Node_destroy
_Scheduler_default_Release_job
_Scheduler_default_Cancel_job
_Scheduler_default_Start_idle
rtems_stack_checker_reporter_quiet
newlib_terminate_hook
rtems_stack_checker_create_extension
rtems_stack_checker_switch_extension
rtems_stack_checker_begin_extension
bsp_fatal_extension
rtems_shell_HELP_Command
rtems_shell_ALIAS_Command
rtems_shell_TIME_Command
rtems_shell_CMDLS_Command
ARM GAS   			page 317


rtems_shell_CMDCHOWN_Command
rtems_shell_CMDCHMOD_Command
rtems_shell_JOEL_Command
rtems_shell_DATE_Command
rtems_shell_ECHO_Command
rtems_shell_EDIT_Command
rtems_shell_SLEEP_Command
rtems_shell_ID_Command
rtems_shell_TTY_Command
rtems_shell_WHOAMI_Command
rtems_shell_LOGOFF_Command
rtems_shell_SETENV_Command
rtems_shell_GETENV_Command
rtems_shell_UNSETENV_Command
rtems_shell_MDUMP_Command
rtems_shell_WDUMP_Command
rtems_shell_LDUMP_Command
rtems_shell_MEDIT_Command
rtems_shell_MFILL_Command
rtems_shell_MMOVE_Command
rtems_shell_CP_Command
rtems_shell_PWD_Command
rtems_shell_LS_Command
rtems_shell_CHDIR_Command
rtems_shell_MKDIR_Command
rtems_shell_RMDIR_Command
rtems_shell_CHROOT_Command
rtems_shell_CHMOD_Command
rtems_shell_CAT_Command
rtems_shell_MKRFS_Command
rtems_shell_MSDOSFMT_Command
rtems_shell_MSDOSFMT_Alias
rtems_shell_MV_Command
rtems_shell_RM_Command
rtems_shell_LN_Command
rtems_shell_MKNOD_Command
rtems_shell_UMASK_Command
rtems_shell_LSOF_Command
rtems_shell_MOUNT_Command
rtems_shell_UNMOUNT_Command
rtems_shell_BLKSYNC_Command
rtems_shell_BLKSTATS_Command
rtems_shell_FDISK_Command
rtems_shell_DD_Command
rtems_shell_HEXDUMP_Command
rtems_shell_DEBUGRFS_Command
rtems_shell_DF_Command
rtems_shell_MD5_Command
rtems_shell_SHUTDOWN_Command
rtems_shell_CPUINFO_Command
rtems_shell_CPUUSE_Command
rtems_shell_TOP_Command
rtems_shell_STACKUSE_Command
rtems_shell_PERIODUSE_Command
rtems_shell_PROFREPORT_Command
rtems_shell_WKSPACE_INFO_Command
rtems_shell_RTEMS_Command
ARM GAS   			page 318


rtems_shell_MALLOC_INFO_Command
rtems_shell_RTRACE_Command
rtems_shell_RTC_Command
rtems_shell_SPI_Command
rtems_shell_FLASHDEV_Command
rtems_shell_I2CDETECT_Command
rtems_shell_I2CGET_Command
rtems_shell_I2CSET_Command
bsp_interrupt_shell_command
rtems_shell_ARP_Command
rtems_shell_HOSTNAME_Command
rtems_shell_PING_Command
rtems_shell_ROUTE_Command
rtems_shell_NETSTAT_Command
rtems_shell_IFCONFIG_Command
rtems_shell_TCPDUMP_Command
rtems_shell_SYSCTL_Command
rtems_shell_VMSTAT_Command
rtems_shell_DIR_Alias
rtems_shell_CD_Alias
rtems_shell_EXIT_Alias
_Objects_Allocate_static
_Objects_Free_static
console_initialize
console_open
console_close
console_read
console_write
console_control
null_initialize
null_open
null_close
null_read
null_write
null_control
dev_zero_initialize
dev_zero_open
dev_zero_close
dev_zero_read
dev_zero_write
dev_zero_control
_User_extensions_Handler_initialization
rtems_filesystem_initialize
_Clock_Initialize
_IO_Initialize_all_drivers
_RTEMS_tasks_Initialize_user_task
rtems_libio_post_driver
